(istats.words_stats
WordsStats
p1
(dp2
S'collected_words'
p3
(lp4
((lp5
S'carl'
p6
ag6
ag6
ag6
ag6
aS''
tp7
a((lp8
S'wonderful'
p9
ag9
aS'swedish'
p10
aS'beaches'
p11
aS'french'
p12
aS'http://www.cnbc.com/id/102764398'
p13
tp14
a((lp15
S'par'
p16
aS'several'
p17
aS'novels'
p18
aS'directed'
p19
aS'philip'
p20
aS'http://beachhousenaples.com/beaches.html'
p21
tp22
a((lp23
S'photographers'
p24
aS'oliver'
p25
aS'confident'
p26
aS'compilation'
p27
aS'tops'
p28
aS'http://connection.ebscohost.com/tag/DESIRES%20(Book)&offset=800'
p29
tp30
asS'tweet_file'
p31
S'tweet_CO_09.txt'
p32
sS'encoding_flow'
p33
(lp34
(lp35
I0
aI1
aI00
aS'sidestep'
p36
aI1
aI0
aI1
aI22
aI0
aI0
ag5
ac__builtin__
set
p37
((ltRp38
ag37
((lp39
g6
atRp40
aS'http://walkingdead.wikia.com/wiki/Carl_Grimes_(TV_Series)'
p41
aS'2015-06-24 22:03:01.087870'
p42
aa(lp43
I0
aI2
aI01
ag36
aI1
aI1
aI1
aI5
aI0
aI0
ag5
ag37
((lp44
g6
atRp45
ag37
((lp46
g6
atRp47
ag13
aS'2015-06-24 22:03:02.461867'
p48
aa(lp49
I1
aI1
aI00
aS'forward'
p50
aI5
aI0
aI5
aI19
aI1
aI0
ag8
ag37
((ltRp51
ag37
((lp52
g10
ag16
ag9
ag11
ag12
atRp53
aS'http://www.tripadvisor.com/ShowUserReviews-g147399-d254897-r113887575-Beaches_Turks_and_Caicos_Resort_Villages_and_Spa-Providenciales_Turks_and_Caicos.html'
p54
aS'2015-06-24 22:03:11.069255'
p55
aa(lp56
I1
aI2
aI00
ag50
aI5
aI2
aI5
aI15
aI1
aI0
ag8
ag37
((lp57
g10
ag12
atRp58
ag37
((lp59
g10
ag16
ag9
ag11
ag12
atRp60
aS'http://www.tripadvisor.com/ShowUserReviews-g147399-d254897-r256538268-Beaches_Turks_and_Caicos_Resort_Villages_and_Spa-Providenciales_Turks_and_Caicos.html'
p61
aS'2015-06-24 22:03:12.353071'
p62
aa(lp63
I1
aI3
aI00
ag50
aI5
aI1
aI5
aI18
aI1
aI0
ag8
ag37
((lp64
g9
atRp65
ag37
((lp66
g10
ag16
ag9
ag11
ag12
atRp67
aS'http://www.tripadvisor.com/ShowUserReviews-g147399-d254897-r19293190-Beaches_Turks_and_Caicos_Resort_Villages_and_Spa-Providenciales_Turks_and_Caicos.html'
p68
aS'2015-06-24 22:03:13.546751'
p69
aa(lp70
I1
aI4
aI00
ag50
aI5
aI3
aI5
aI14
aI1
aI0
ag8
ag37
((lp71
g10
ag11
ag12
atRp72
ag37
((lp73
g10
ag16
ag9
ag11
ag12
atRp74
aS'http://www.tripadvisor.com/ShowUserReviews-g147399-d254897-r156997016-Beaches_Turks_and_Caicos_Resort_Villages_and_Spa-Providenciales_Turks_and_Caicos.html'
p75
aS'2015-06-24 22:03:14.652610'
p76
aa(lp77
I1
aI5
aI00
ag50
aI5
aI2
aI2
aI3
aI1
aI0
ag8
ag37
((lp78
Vwonderful
p79
aVbeaches
p80
atRp81
ag37
((lp82
g79
ag80
atRp83
aS'http://www.tripadvisor.com/ShowUserReviews-g147399-d254897-r195961371-Beaches_Turks_and_Caicos_Resort_Villages_and_Spa-Providenciales_Turks_and_Caicos.html'
p84
aS'2015-06-24 22:03:15.143149'
p85
aa(lp86
I1
aI6
aI00
ag50
aI5
aI3
aI3
aI5
aI1
aI0
ag8
ag37
((lp87
Vwonderful
p88
aVfrench
p89
aVbeaches
p90
atRp91
ag37
((lp92
g88
ag89
ag90
atRp93
aS'http://www.tripadvisor.com/ShowUserReviews-g147399-d254897-r157563438-Beaches_Turks_and_Caicos_Resort_Villages_and_Spa-Providenciales_Turks_and_Caicos.html'
p94
aS'2015-06-24 22:03:15.678312'
p95
aa(lp96
I1
aI7
aI00
ag50
aI5
aI1
aI5
aI16
aI1
aI0
ag8
ag37
((lp97
g11
atRp98
ag37
((lp99
g10
ag16
ag9
ag11
ag12
atRp100
aS'http://www.tripadvisor.com/ShowUserReviews-g147399-d254897-r279040219-Beaches_Turks_and_Caicos_Resort_Villages_and_Spa-Providenciales_Turks_and_Caicos.html'
p101
aS'2015-06-24 22:03:16.855217'
p102
aa(lp103
I1
aI8
aI00
ag50
aI5
aI3
aI5
aI12
aI1
aI0
ag8
ag37
((lp104
g16
ag11
ag12
atRp105
ag37
((lp106
g10
ag16
ag9
ag11
ag12
atRp107
aS'http://www.tripadvisor.com/ShowUserReviews-g147399-d254897-r248441445-Beaches_Turks_and_Caicos_Resort_Villages_and_Spa-Providenciales_Turks_and_Caicos.html'
p108
aS'2015-06-24 22:03:17.378447'
p109
aa(lp110
I1
aI9
aI00
ag50
aI5
aI3
aI5
aI16
aI1
aI0
ag8
ag37
((lp111
g16
ag9
ag11
atRp112
ag37
((lp113
g10
ag16
ag9
ag11
ag12
atRp114
aS'http://www.tripadvisor.com/ShowUserReviews-g147399-d254897-r216712342-Beaches_Turks_and_Caicos_Resort_Villages_and_Spa-Providenciales_Turks_and_Caicos.html'
p115
aS'2015-06-24 22:03:18.584693'
p116
aa(lp117
I1
aI10
aI00
ag50
aI5
aI3
aI5
aI17
aI1
aI0
ag8
ag37
((lp118
g10
ag16
ag12
atRp119
ag37
((lp120
g10
ag16
ag9
ag11
ag12
atRp121
aS'http://www.tripadvisor.com/ShowUserReviews-g147399-d254897-r1540039-Beaches_Turks_and_Caicos_Resort_Villages_and_Spa-Providenciales_Turks_and_Caicos.html'
p122
aS'2015-06-24 22:03:19.649219'
p123
aa(lp124
I1
aI11
aI00
ag50
aI5
aI1
aI5
aI17
aI1
aI0
ag8
ag37
((lp125
g10
atRp126
ag37
((lp127
g10
ag16
ag9
ag11
ag12
atRp128
aS'http://www.tripadvisor.com/ShowUserReviews-g34067-d274006-r263414309-Haulover_Beach_Park-Bal_Harbour_Florida.html'
p129
aS'2015-06-24 22:03:23.864815'
p130
aa(lp131
I1
aI12
aI00
ag50
aI5
aI1
aI5
aI21
aI1
aI0
ag8
ag37
((lp132
g12
atRp133
ag37
((lp134
g10
ag16
ag9
ag11
ag12
atRp135
aS'http://www.tripadvisor.com/ShowUserReviews-g1993121-d148874-r4989586-Beaches_Ocho_Rios_Resort_Golf_Club-Boscobel_Saint_Mary_Parish_Jamaica.html'
p136
aS'2015-06-24 22:03:25.163675'
p137
aa(lp138
I1
aI13
aI00
ag50
aI5
aI2
aI5
aI17
aI1
aI0
ag8
ag37
((lp139
g16
ag9
atRp140
ag37
((lp141
g10
ag16
ag9
ag11
ag12
atRp142
aS'http://www.tripadvisor.com/ShowUserReviews-g147399-d254897-r193491588-Beaches_Turks_and_Caicos_Resort_Villages_and_Spa-Providenciales_Turks_and_Caicos.html'
p143
aS'2015-06-24 22:03:26.298157'
p144
aa(lp145
I1
aI14
aI00
ag50
aI5
aI1
aI5
aI22
aI1
aI0
ag8
ag37
((lp146
g11
atRp147
ag37
((lp148
g10
ag16
ag9
ag11
ag12
atRp149
aS'http://www.tripadvisor.com/ShowUserReviews-g1073588-d151150-r150213211-Esmeralda_Resort-Orient_Bay_Saint_Martin_St_Maarten_St_Martin.html'
p150
aS'2015-06-24 22:03:27.387512'
p151
aa(lp152
I1
aI15
aI00
ag50
aI5
aI2
aI5
aI23
aI1
aI0
ag8
ag37
((lp153
g10
ag11
atRp154
ag37
((lp155
g10
ag16
ag9
ag11
ag12
atRp156
aS'http://www.tripadvisor.com/ShowUserReviews-g147275-d270082-r262368765-Royalton_Hicacos_Varadero_Resort_Spa-Varadero_Matanzas_Province_Cuba.html'
p157
aS'2015-06-24 22:03:28.458093'
p158
aa(lp159
I1
aI16
aI00
ag50
aI5
aI1
aI5
aI22
aI1
aI0
ag8
ag37
((lp160
g16
atRp161
ag37
((lp162
g10
ag16
ag9
ag11
ag12
atRp163
aS'http://www.tripadvisor.com/ShowUserReviews-g147399-d254897-r148782149-Beaches_Turks_and_Caicos_Resort_Villages_and_Spa-Providenciales_Turks_and_Caicos.html'
p164
aS'2015-06-24 22:03:29.591999'
p165
aa(lp166
I1
aI17
aI00
ag50
aI5
aI3
aI5
aI19
aI1
aI0
ag8
ag37
((lp167
g10
ag11
ag12
atRp168
ag37
((lp169
g10
ag16
ag9
ag11
ag12
atRp170
aS'http://www.tripadvisor.com/ShowUserReviews-g147399-d254897-r194208490-Beaches_Turks_and_Caicos_Resort_Villages_and_Spa-Providenciales_Turks_and_Caicos.html'
p171
aS'2015-06-24 22:03:30.763893'
p172
aa(lp173
I1
aI18
aI00
ag50
aI5
aI1
aI5
aI20
aI1
aI0
ag8
ag37
((lp174
g9
atRp175
ag37
((lp176
g10
ag16
ag9
ag11
ag12
atRp177
aS'http://www.tripadvisor.com/ShowUserReviews-g147399-d254897-r261060661-Beaches_Turks_and_Caicos_Resort_Villages_and_Spa-Providenciales_Turks_and_Caicos.html'
p178
aS'2015-06-24 22:03:31.917979'
p179
aa(lp180
I1
aI19
aI00
ag50
aI5
aI4
aI5
aI19
aI1
aI0
ag8
ag37
((lp181
g10
ag16
ag11
ag12
atRp182
ag37
((lp183
g10
ag16
ag9
ag11
ag12
atRp184
aS'http://www.tripadvisor.com/ShowUserReviews-g147399-d254897-r25632969-Beaches_Turks_and_Caicos_Resort_Villages_and_Spa-Providenciales_Turks_and_Caicos.html'
p185
aS'2015-06-24 22:03:33.089964'
p186
aa(lp187
I1
aI20
aI00
ag50
aI5
aI0
aI0
aI0
aI1
aI0
ag8
ag37
((ltRp188
ag37
((ltRp189
aS'http://www.departures.com/travel/country-life/cornish-riviera'
p190
aS'2015-06-24 22:03:34.448114'
p191
aa(lp192
I1
aI21
aI00
ag50
aI5
aI2
aI4
aI14
aI1
aI0
ag8
ag37
((lp193
g11
ag12
atRp194
ag37
((lp195
g10
ag9
ag11
ag12
atRp196
aS'http://www.tripadvisor.com/ShowUserReviews-g580306-d571786-r179231131-Ola_Club_Panama-Palmanova_Calvia_Majorca_Balearic_Islands.html'
p197
aS'2015-06-24 22:03:37.826130'
p198
aa(lp199
I1
aI22
aI00
ag50
aI5
aI1
aI5
aI17
aI1
aI0
ag8
ag37
((lp200
g11
atRp201
ag37
((lp202
g10
ag16
ag9
ag11
ag12
atRp203
aS'http://www.tripadvisor.com/ShowUserReviews-g147399-d254897-r190837568-Beaches_Turks_and_Caicos_Resort_Villages_and_Spa-Providenciales_Turks_and_Caicos.html'
p204
aS'2015-06-24 22:03:39.246708'
p205
aa(lp206
I1
aI23
aI00
ag50
aI5
aI1
aI5
aI15
aI1
aI0
ag8
ag37
((lp207
g10
atRp208
ag37
((lp209
g10
ag16
ag9
ag11
ag12
atRp210
aS'http://www.tripadvisor.com/ShowUserReviews-g147399-d254897-r96653415-Beaches_Turks_and_Caicos_Resort_Villages_and_Spa-Providenciales_Turks_and_Caicos.html'
p211
aS'2015-06-24 22:03:40.586340'
p212
aa(lp213
I1
aI24
aI00
ag50
aI5
aI2
aI5
aI15
aI1
aI0
ag8
ag37
((lp214
g16
ag11
atRp215
ag37
((lp216
g10
ag16
ag9
ag11
ag12
atRp217
aS'http://www.tripadvisor.com/ShowUserReviews-g147399-d254897-r270909834-Beaches_Turks_and_Caicos_Resort_Villages_and_Spa-Providenciales_Turks_and_Caicos.html'
p218
aS'2015-06-24 22:03:41.632075'
p219
aa(lp220
I1
aI25
aI00
ag50
aI5
aI1
aI5
aI16
aI1
aI0
ag8
ag37
((lp221
g11
atRp222
ag37
((lp223
g10
ag16
ag9
ag11
ag12
atRp224
aS'http://www.tripadvisor.com/ShowUserReviews-g147399-d254897-r279689425-Beaches_Turks_and_Caicos_Resort_Villages_and_Spa-Providenciales_Turks_and_Caicos.html'
p225
aS'2015-06-24 22:03:42.701483'
p226
aa(lp227
I1
aI26
aI00
ag50
aI5
aI1
aI5
aI22
aI1
aI0
ag8
ag37
((lp228
g9
atRp229
ag37
((lp230
g10
ag16
ag9
ag11
ag12
atRp231
aS'http://www.tripadvisor.com/ShowUserReviews-g147399-d254897-r266604143-Beaches_Turks_and_Caicos_Resort_Villages_and_Spa-Providenciales_Turks_and_Caicos.html'
p232
aS'2015-06-24 22:03:43.794096'
p233
aa(lp234
I1
aI27
aI00
ag50
aI5
aI1
aI5
aI18
aI1
aI0
ag8
ag37
((lp235
g11
atRp236
ag37
((lp237
g10
ag16
ag9
ag11
ag12
atRp238
aS'http://www.tripadvisor.com/ShowUserReviews-g147399-d254897-r270661658-Beaches_Turks_and_Caicos_Resort_Villages_and_Spa-Providenciales_Turks_and_Caicos.html'
p239
aS'2015-06-24 22:03:44.885854'
p240
aa(lp241
I1
aI28
aI00
ag50
aI5
aI2
aI4
aI14
aI1
aI0
ag8
ag37
((lp242
g10
ag12
atRp243
ag37
((lp244
g10
ag9
ag11
ag12
atRp245
aS'http://www.tripadvisor.com/ShowUserReviews-g147399-d254897-r280000057-Beaches_Turks_and_Caicos_Resort_Villages_and_Spa-Providenciales_Turks_and_Caicos.html'
p246
aS'2015-06-24 22:03:45.971641'
p247
aa(lp248
I1
aI29
aI00
ag50
aI5
aI2
aI5
aI18
aI1
aI0
ag8
ag37
((lp249
g10
ag9
atRp250
ag37
((lp251
g10
ag16
ag9
ag11
ag12
atRp252
aS'http://www.homeaway.com/vacation-rental/p2038666'
p253
aS'2015-06-24 22:03:48.310723'
p254
aa(lp255
I1
aI30
aI00
ag50
aI5
aI1
aI5
aI15
aI1
aI0
ag8
ag37
((lp256
g10
atRp257
ag37
((lp258
g10
ag16
ag9
ag11
ag12
atRp259
aS'http://www.vrbo.com/580329'
p260
aS'2015-06-24 22:03:52.111723'
p261
aa(lp262
I1
aI31
aI00
ag50
aI5
aI3
aI5
aI15
aI1
aI0
ag8
ag37
((lp263
g10
ag9
ag11
atRp264
ag37
((lp265
g10
ag16
ag9
ag11
ag12
atRp266
aS'http://www.tripadvisor.com/ShowUserReviews-g147399-d254897-r270783632-Beaches_Turks_and_Caicos_Resort_Villages_and_Spa-Providenciales_Turks_and_Caicos.html'
p267
aS'2015-06-24 22:03:52.771359'
p268
aa(lp269
I1
aI32
aI00
ag50
aI5
aI1
aI5
aI19
aI1
aI0
ag8
ag37
((lp270
g10
atRp271
ag37
((lp272
g10
ag16
ag9
ag11
ag12
atRp273
aS'http://www.tripadvisor.com/ShowUserReviews-g147399-d254897-r194142583-Beaches_Turks_and_Caicos_Resort_Villages_and_Spa-Providenciales_Turks_and_Caicos.html'
p274
aS'2015-06-24 22:03:54.166387'
p275
aa(lp276
I1
aI33
aI00
ag50
aI5
aI1
aI5
aI17
aI1
aI0
ag8
ag37
((lp277
g11
atRp278
ag37
((lp279
g10
ag16
ag9
ag11
ag12
atRp280
aS'http://www.tripadvisor.com/ShowUserReviews-g147399-d254897-r258477692-Beaches_Turks_and_Caicos_Resort_Villages_and_Spa-Providenciales_Turks_and_Caicos.html'
p281
aS'2015-06-24 22:03:55.410338'
p282
aa(lp283
I1
aI34
aI00
ag50
aI5
aI1
aI5
aI19
aI1
aI0
ag8
ag37
((lp284
g12
atRp285
ag37
((lp286
g10
ag16
ag9
ag11
ag12
atRp287
aS'http://www.tripadvisor.com/ShowUserReviews-g147399-d254897-r194100213-Beaches_Turks_and_Caicos_Resort_Villages_and_Spa-Providenciales_Turks_and_Caicos.html'
p288
aS'2015-06-24 22:03:56.524600'
p289
aa(lp290
I1
aI35
aI00
ag50
aI5
aI1
aI5
aI17
aI1
aI0
ag8
ag37
((lp291
g16
atRp292
ag37
((lp293
g10
ag16
ag9
ag11
ag12
atRp294
aS'http://www.tripadvisor.com/ShowUserReviews-g147399-d254897-r247858527-Beaches_Turks_and_Caicos_Resort_Villages_and_Spa-Providenciales_Turks_and_Caicos.html'
p295
aS'2015-06-24 22:03:57.645361'
p296
aa(lp297
I1
aI36
aI00
ag50
aI5
aI4
aI5
aI16
aI1
aI0
ag8
ag37
((lp298
g16
ag9
ag11
ag12
atRp299
ag37
((lp300
g10
ag16
ag9
ag11
ag12
atRp301
aS'http://www.homeaway.com/vacation-rental/p1092495'
p302
aS'2015-06-24 22:03:59.684909'
p303
aa(lp304
I1
aI37
aI00
ag50
aI5
aI2
aI5
aI17
aI1
aI0
ag8
ag37
((lp305
g10
ag11
atRp306
ag37
((lp307
g10
ag16
ag9
ag11
ag12
atRp308
aS'http://www.homeaway.com/vacation-rental/p129953'
p309
aS'2015-06-24 22:04:01.752848'
p310
aa(lp311
I1
aI38
aI00
ag50
aI5
aI0
aI5
aI16
aI1
aI0
ag8
ag37
((ltRp312
ag37
((lp313
g10
ag16
ag9
ag11
ag12
atRp314
aS'http://www.homeaway.com/vacation-rental/p2131743'
p315
aS'2015-06-24 22:04:03.966741'
p316
aa(lp317
I1
aI39
aI00
ag50
aI5
aI1
aI5
aI16
aI1
aI0
ag8
ag37
((lp318
g12
atRp319
ag37
((lp320
g10
ag16
ag9
ag11
ag12
atRp321
aS'http://www.homeaway.com/vacation-rental/p789117'
p322
aS'2015-06-24 22:04:05.944057'
p323
aa(lp324
I1
aI40
aI00
ag50
aI5
aI2
aI5
aI16
aI1
aI0
ag8
ag37
((lp325
g10
ag11
atRp326
ag37
((lp327
g10
ag16
ag9
ag11
ag12
atRp328
aS'http://www.tripadvisor.com/ShowUserReviews-g147399-d254897-r252634942-Beaches_Turks_and_Caicos_Resort_Villages_and_Spa-Providenciales_Turks_and_Caicos.html'
p329
aS'2015-06-24 22:04:09.554257'
p330
aa(lp331
I1
aI41
aI00
ag50
aI5
aI2
aI5
aI19
aI1
aI0
ag8
ag37
((lp332
g9
ag12
atRp333
ag37
((lp334
g10
ag16
ag9
ag11
ag12
atRp335
aS'http://www.tripadvisor.com/ShowUserReviews-g147399-d254897-r196010808-Beaches_Turks_and_Caicos_Resort_Villages_and_Spa-Providenciales_Turks_and_Caicos.html'
p336
aS'2015-06-24 22:04:10.700779'
p337
aa(lp338
I1
aI42
aI00
ag50
aI5
aI1
aI5
aI19
aI1
aI0
ag8
ag37
((lp339
g12
atRp340
ag37
((lp341
g10
ag16
ag9
ag11
ag12
atRp342
aS'http://www.tripadvisor.com/ShowUserReviews-g147399-d254897-r261889000-Beaches_Turks_and_Caicos_Resort_Villages_and_Spa-Providenciales_Turks_and_Caicos.html'
p343
aS'2015-06-24 22:04:11.813226'
p344
aa(lp345
I1
aI43
aI00
ag50
aI5
aI3
aI5
aI15
aI1
aI0
ag8
ag37
((lp346
g16
ag9
ag12
atRp347
ag37
((lp348
g10
ag16
ag9
ag11
ag12
atRp349
aS'http://www.tripadvisor.com/ShowUserReviews-g1079181-d213861-r263515370-Hilton_Singer_Island_Oceanfront_Palm_Beaches_Resort-Singer_Island_Florida.html'
p350
aS'2015-06-24 22:04:12.867011'
p351
aa(lp352
I1
aI44
aI00
ag50
aI5
aI2
aI5
aI14
aI1
aI0
ag8
ag37
((lp353
g10
ag9
atRp354
ag37
((lp355
g10
ag16
ag9
ag11
ag12
atRp356
aS'http://www.tripadvisor.com/Attraction_Review-g147389-d149860-Reviews-Maracas_Bay-Port_of_Spain_Trinidad_Trinidad_and_Tobago.html'
p357
aS'2015-06-24 22:04:14.256317'
p358
aa(lp359
I1
aI45
aI00
ag50
aI5
aI2
aI5
aI17
aI1
aI0
ag8
ag37
((lp360
g16
ag12
atRp361
ag37
((lp362
g10
ag16
ag9
ag11
ag12
atRp363
aS'http://www.tripadvisor.com/ShowUserReviews-g147399-d254897-r261310242-Beaches_Turks_and_Caicos_Resort_Villages_and_Spa-Providenciales_Turks_and_Caicos.html'
p364
aS'2015-06-24 22:04:15.447109'
p365
aa(lp366
I1
aI46
aI00
ag50
aI5
aI1
aI5
aI18
aI1
aI0
ag8
ag37
((lp367
g16
atRp368
ag37
((lp369
g10
ag16
ag9
ag11
ag12
atRp370
aS'http://www.tripadvisor.com/ShowUserReviews-g147399-d254897-r194059657-Beaches_Turks_and_Caicos_Resort_Villages_and_Spa-Providenciales_Turks_and_Caicos.html'
p371
aS'2015-06-24 22:04:16.589569'
p372
aa(lp373
I1
aI47
aI00
ag50
aI5
aI2
aI5
aI16
aI1
aI0
ag8
ag37
((lp374
g9
ag11
atRp375
ag37
((lp376
g10
ag16
ag9
ag11
ag12
atRp377
aS'http://www.homeaway.com/vacation-rental/p750501'
p378
aS'2015-06-24 22:04:18.156528'
p379
aa(lp380
I1
aI48
aI00
ag50
aI5
aI3
aI5
aI16
aI1
aI0
ag8
ag37
((lp381
g10
ag9
ag11
atRp382
ag37
((lp383
g10
ag16
ag9
ag11
ag12
atRp384
aS'http://www.homeaway.com/vacation-rental/p2131734'
p385
aS'2015-06-24 22:04:20.551119'
p386
aa(lp387
I1
aI49
aI00
ag50
aI5
aI1
aI5
aI19
aI1
aI0
ag8
ag37
((lp388
g10
atRp389
ag37
((lp390
g10
ag16
ag9
ag11
ag12
atRp391
aS'http://www.homeaway.com/vacation-rental/p1306334a'
p392
aS'2015-06-24 22:04:22.553108'
p393
aa(lp394
I1
aI50
aI00
ag50
aI5
aI1
aI5
aI22
aI1
aI0
ag8
ag37
((lp395
g16
atRp396
ag37
((lp397
g10
ag16
ag9
ag11
ag12
atRp398
aS'http://www.tripadvisor.com/ShowUserReviews-g147399-d254897-r266473426-Beaches_Turks_and_Caicos_Resort_Villages_and_Spa-Providenciales_Turks_and_Caicos.html'
p399
aS'2015-06-24 22:04:26.985528'
p400
aa(lp401
I1
aI51
aI00
ag50
aI5
aI1
aI5
aI17
aI1
aI0
ag8
ag37
((lp402
g10
atRp403
ag37
((lp404
g10
ag16
ag9
ag11
ag12
atRp405
aS'http://www.tripadvisor.com/ShowUserReviews-g1079181-d213861-r233401904-Hilton_Singer_Island_Oceanfront_Palm_Beaches_Resort-Singer_Island_Florida.html'
p406
aS'2015-06-24 22:04:28.128042'
p407
aa(lp408
I1
aI52
aI00
ag50
aI5
aI1
aI5
aI16
aI1
aI0
ag8
ag37
((lp409
g9
atRp410
ag37
((lp411
g10
ag16
ag9
ag11
ag12
atRp412
aS'http://www.tripadvisor.com/ShowUserReviews-g147399-d254897-r142964930-Beaches_Turks_and_Caicos_Resort_Villages_and_Spa-Providenciales_Turks_and_Caicos.html'
p413
aS'2015-06-24 22:04:29.764671'
p414
aa(lp415
I1
aI53
aI00
ag50
aI5
aI2
aI5
aI17
aI1
aI0
ag8
ag37
((lp416
g10
ag16
atRp417
ag37
((lp418
g10
ag16
ag9
ag11
ag12
atRp419
aS'http://www.tripadvisor.com/ShowUserReviews-g1993121-d148874-r197440496-Beaches_Ocho_Rios_Resort_Golf_Club-Boscobel_Saint_Mary_Parish_Jamaica.html'
p420
aS'2015-06-24 22:04:30.839128'
p421
aa(lp422
I1
aI54
aI00
ag50
aI5
aI2
aI5
aI18
aI1
aI0
ag8
ag37
((lp423
g10
ag9
atRp424
ag37
((lp425
g10
ag16
ag9
ag11
ag12
atRp426
aS'http://www.tripadvisor.com/ShowUserReviews-g147399-d254897-r258563859-Beaches_Turks_and_Caicos_Resort_Villages_and_Spa-Providenciales_Turks_and_Caicos.html'
p427
aS'2015-06-24 22:04:31.980823'
p428
aa(lp429
I1
aI55
aI00
ag50
aI5
aI0
aI5
aI19
aI1
aI0
ag8
ag37
((ltRp430
ag37
((lp431
g10
ag16
ag9
ag11
ag12
atRp432
aS'http://www.tripadvisor.com/ShowUserReviews-g147399-d254897-r261161343-Beaches_Turks_and_Caicos_Resort_Villages_and_Spa-Providenciales_Turks_and_Caicos.html'
p433
aS'2015-06-24 22:04:33.129692'
p434
aa(lp435
I1
aI56
aI00
ag50
aI5
aI3
aI5
aI14
aI1
aI0
ag8
ag37
((lp436
g10
ag11
ag12
atRp437
ag37
((lp438
g10
ag16
ag9
ag11
ag12
atRp439
aS'http://www.tripadvisor.com/ShowUserReviews-g147399-d254897-r252591486-Beaches_Turks_and_Caicos_Resort_Villages_and_Spa-Providenciales_Turks_and_Caicos.html'
p440
aS'2015-06-24 22:04:34.231922'
p441
aa(lp442
I1
aI57
aI00
ag50
aI5
aI2
aI5
aI24
aI1
aI0
ag8
ag37
((lp443
g10
ag9
atRp444
ag37
((lp445
g10
ag16
ag9
ag11
ag12
atRp446
aS'http://www.tripadvisor.com/ShowUserReviews-g147399-d254897-r281480922-Beaches_Turks_and_Caicos_Resort_Villages_and_Spa-Providenciales_Turks_and_Caicos.html'
p447
aS'2015-06-24 22:04:35.350280'
p448
aa(lp449
I1
aI58
aI00
ag50
aI5
aI2
aI5
aI15
aI1
aI0
ag8
ag37
((lp450
g10
ag12
atRp451
ag37
((lp452
g10
ag16
ag9
ag11
ag12
atRp453
aS'http://www.homeaway.com/vacation-rental/p6079413'
p454
aS'2015-06-24 22:04:37.742085'
p455
aa(lp456
I1
aI59
aI00
ag50
aI5
aI0
aI5
aI18
aI1
aI0
ag8
ag37
((ltRp457
ag37
((lp458
g10
ag16
ag9
ag11
ag12
atRp459
aS'http://www.homeaway.com/vacation-rental/p85751'
p460
aS'2015-06-24 22:04:40.324330'
p461
aa(lp462
I1
aI60
aI00
ag50
aI5
aI4
aI5
aI19
aI1
aI0
ag8
ag37
((lp463
g16
ag9
ag11
ag12
atRp464
ag37
((lp465
g10
ag16
ag9
ag11
ag12
atRp466
aS'http://www.tripadvisor.com/ShowUserReviews-g147399-d254897-r270696309-Beaches_Turks_and_Caicos_Resort_Villages_and_Spa-Providenciales_Turks_and_Caicos.html'
p467
aS'2015-06-24 22:04:44.316514'
p468
aa(lp469
I1
aI61
aI00
ag50
aI5
aI2
aI5
aI20
aI1
aI0
ag8
ag37
((lp470
g9
ag11
atRp471
ag37
((lp472
g10
ag16
ag9
ag11
ag12
atRp473
aS'http://www.tripadvisor.com/ShowUserReviews-g147399-d254897-r147682167-Beaches_Turks_and_Caicos_Resort_Villages_and_Spa-Providenciales_Turks_and_Caicos.html'
p474
aS'2015-06-24 22:04:45.454864'
p475
aa(lp476
I1
aI62
aI00
ag50
aI5
aI3
aI5
aI17
aI1
aI0
ag8
ag37
((lp477
g10
ag16
ag9
atRp478
ag37
((lp479
g10
ag16
ag9
ag11
ag12
atRp480
aS'http://www.tripadvisor.com/ShowUserReviews-g147399-d254897-r190729046-Beaches_Turks_and_Caicos_Resort_Villages_and_Spa-Providenciales_Turks_and_Caicos.html'
p481
aS'2015-06-24 22:04:50.996460'
p482
aa(lp483
I1
aI63
aI00
ag50
aI5
aI2
aI5
aI16
aI1
aI0
ag8
ag37
((lp484
g10
ag11
atRp485
ag37
((lp486
g10
ag16
ag9
ag11
ag12
atRp487
aS'http://www.tripadvisor.com/ShowUserReviews-g147399-d254897-r262273972-Beaches_Turks_and_Caicos_Resort_Villages_and_Spa-Providenciales_Turks_and_Caicos.html'
p488
aS'2015-06-24 22:04:52.259330'
p489
aa(lp490
I1
aI64
aI00
ag50
aI5
aI1
aI5
aI17
aI1
aI0
ag8
ag37
((lp491
g11
atRp492
ag37
((lp493
g10
ag16
ag9
ag11
ag12
atRp494
aS'http://www.tripadvisor.com/ShowUserReviews-g147399-d254897-r140859163-Beaches_Turks_and_Caicos_Resort_Villages_and_Spa-Providenciales_Turks_and_Caicos.html'
p495
aS'2015-06-24 22:04:53.434333'
p496
aa(lp497
I1
aI65
aI00
ag50
aI5
aI3
aI5
aI20
aI1
aI0
ag8
ag37
((lp498
g10
ag9
ag12
atRp499
ag37
((lp500
g10
ag16
ag9
ag11
ag12
atRp501
aS'http://www.tripadvisor.com/ShowUserReviews-g150813-d591029-r263160811-Dreams_Tulum_Resort_Spa-Tulum_Yucatan_Peninsula.html'
p502
aS'2015-06-24 22:04:54.566468'
p503
aa(lp504
I1
aI66
aI00
ag50
aI5
aI3
aI5
aI16
aI1
aI0
ag8
ag37
((lp505
g9
ag11
ag12
atRp506
ag37
((lp507
g10
ag16
ag9
ag11
ag12
atRp508
aS'http://www.tripadvisor.com/ShowUserReviews-g147399-d254897-r280910058-Beaches_Turks_and_Caicos_Resort_Villages_and_Spa-Providenciales_Turks_and_Caicos.html'
p509
aS'2015-06-24 22:04:55.675700'
p510
aa(lp511
I1
aI67
aI00
ag50
aI5
aI0
aI5
aI17
aI1
aI0
ag8
ag37
((ltRp512
ag37
((lp513
g10
ag16
ag9
ag11
ag12
atRp514
aS'http://www.homeaway.com/vacation-rental/p1107535a'
p515
aS'2015-06-24 22:04:57.390569'
p516
aa(lp517
I1
aI68
aI00
ag50
aI5
aI0
aI5
aI20
aI1
aI0
ag8
ag37
((ltRp518
ag37
((lp519
g10
ag16
ag9
ag11
ag12
atRp520
aS'http://www.homeaway.com/vacation-rental/p416864'
p521
aS'2015-06-24 22:05:00.238570'
p522
aa(lp523
I1
aI69
aI00
ag50
aI5
aI1
aI5
aI21
aI1
aI0
ag8
ag37
((lp524
g10
atRp525
ag37
((lp526
g10
ag16
ag9
ag11
ag12
atRp527
aS'http://www.homeaway.com/vacation-rental/p642558a'
p528
aS'2015-06-24 22:05:02.385944'
p529
aa(lp530
I1
aI70
aI00
ag50
aI5
aI2
aI5
aI17
aI1
aI0
ag8
ag37
((lp531
g10
ag9
atRp532
ag37
((lp533
g10
ag16
ag9
ag11
ag12
atRp534
aS'http://www.homeaway.com/vacation-rental/p764125'
p535
aS'2015-06-24 22:05:09.970018'
p536
aa(lp537
I1
aI71
aI00
ag50
aI5
aI2
aI5
aI17
aI1
aI0
ag8
ag37
((lp538
g10
ag12
atRp539
ag37
((lp540
g10
ag16
ag9
ag11
ag12
atRp541
aS'http://www.homeaway.com/vacation-rental/p309456'
p542
aS'2015-06-24 22:05:11.913652'
p543
aa(lp544
I1
aI72
aI00
ag50
aI5
aI1
aI5
aI20
aI1
aI0
ag8
ag37
((lp545
g16
atRp546
ag37
((lp547
g10
ag16
ag9
ag11
ag12
atRp548
aS'http://www.tripadvisor.com/ShowUserReviews-g147399-d254897-r219215670-Beaches_Turks_and_Caicos_Resort_Villages_and_Spa-Providenciales_Turks_and_Caicos.html'
p549
aS'2015-06-24 22:05:13.313588'
p550
aa(lp551
I1
aI73
aI00
ag50
aI5
aI1
aI5
aI18
aI1
aI0
ag8
ag37
((lp552
g10
atRp553
ag37
((lp554
g10
ag16
ag9
ag11
ag12
atRp555
aS'http://www.tripadvisor.com/ShowUserReviews-g147399-d254897-r255622897-Beaches_Turks_and_Caicos_Resort_Villages_and_Spa-Providenciales_Turks_and_Caicos.html'
p556
aS'2015-06-24 22:05:14.455387'
p557
aa(lp558
I1
aI74
aI00
ag50
aI5
aI3
aI5
aI15
aI1
aI0
ag8
ag37
((lp559
g10
ag9
ag11
atRp560
ag37
((lp561
g10
ag16
ag9
ag11
ag12
atRp562
aS'http://www.tripadvisor.com/ShowUserReviews-g147399-d254897-r255823017-Beaches_Turks_and_Caicos_Resort_Villages_and_Spa-Providenciales_Turks_and_Caicos.html'
p563
aS'2015-06-24 22:05:14.968343'
p564
aa(lp565
I1
aI75
aI00
ag50
aI5
aI1
aI5
aI16
aI1
aI0
ag8
ag37
((lp566
g10
atRp567
ag37
((lp568
g10
ag16
ag9
ag11
ag12
atRp569
aS'http://www.tripadvisor.com/ShowUserReviews-g1993121-d148874-r189763932-Beaches_Ocho_Rios_Resort_Golf_Club-Boscobel_Saint_Mary_Parish_Jamaica.html'
p570
aS'2015-06-24 22:05:16.266943'
p571
aa(lp572
I1
aI76
aI00
ag50
aI5
aI0
aI5
aI19
aI1
aI0
ag8
ag37
((ltRp573
ag37
((lp574
g10
ag16
ag9
ag11
ag12
atRp575
aS'http://www.tripadvisor.com/ShowUserReviews-g150813-d591029-r263120002-Dreams_Tulum_Resort_Spa-Tulum_Yucatan_Peninsula.html'
p576
aS'2015-06-24 22:05:17.407039'
p577
aa(lp578
I1
aI77
aI00
ag50
aI5
aI3
aI5
aI16
aI1
aI0
ag8
ag37
((lp579
g10
ag9
ag11
atRp580
ag37
((lp581
g10
ag16
ag9
ag11
ag12
atRp582
aS'http://www.tripadvisor.com/ShowUserReviews-g1993121-d148874-r116221592-Beaches_Ocho_Rios_Resort_Golf_Club-Boscobel_Saint_Mary_Parish_Jamaica.html'
p583
aS'2015-06-24 22:05:18.435248'
p584
aa(lp585
I1
aI78
aI00
ag50
aI5
aI2
aI5
aI19
aI1
aI0
ag8
ag37
((lp586
g16
ag12
atRp587
ag37
((lp588
g10
ag16
ag9
ag11
ag12
atRp589
aS'http://www.tripadvisor.com/ShowUserReviews-g147399-d254897-r255695403-Beaches_Turks_and_Caicos_Resort_Villages_and_Spa-Providenciales_Turks_and_Caicos.html'
p590
aS'2015-06-24 22:05:19.485150'
p591
aa(lp592
I1
aI79
aI00
ag50
aI5
aI1
aI5
aI18
aI1
aI0
ag8
ag37
((lp593
g12
atRp594
ag37
((lp595
g10
ag16
ag9
ag11
ag12
atRp596
aS'http://www.tripadvisor.com/ShowUserReviews-g1993121-d148874-r137369686-Beaches_Ocho_Rios_Resort_Golf_Club-Boscobel_Saint_Mary_Parish_Jamaica.html'
p597
aS'2015-06-24 22:05:20.567711'
p598
aa(lp599
I1
aI80
aI00
ag50
aI5
aI2
aI5
aI20
aI1
aI0
ag8
ag37
((lp600
g10
ag9
atRp601
ag37
((lp602
g10
ag16
ag9
ag11
ag12
atRp603
aS'http://www.tripadvisor.com/ShowUserReviews-g147399-d254897-r247923069-Beaches_Turks_and_Caicos_Resort_Villages_and_Spa-Providenciales_Turks_and_Caicos.html'
p604
aS'2015-06-24 22:05:24.095640'
p605
aa(lp606
I1
aI81
aI00
ag50
aI5
aI2
aI5
aI18
aI1
aI0
ag8
ag37
((lp607
g11
ag12
atRp608
ag37
((lp609
g10
ag16
ag9
ag11
ag12
atRp610
aS'http://www.tripadvisor.com/ShowUserReviews-g187234-d197179-r40528646-Le_Meridien_Nice-Nice_French_Riviera_Cote_d_Azur_Provence.html'
p611
aS'2015-06-24 22:05:25.357259'
p612
aa(lp613
I1
aI82
aI00
ag50
aI5
aI2
aI5
aI18
aI1
aI0
ag8
ag37
((lp614
g16
ag12
atRp615
ag37
((lp616
g10
ag16
ag9
ag11
ag12
atRp617
aS'http://www.tripadvisor.com/ShowUserReviews-g147249-d150689-r46172424-Manchebo_Beach_Resort_Spa-Palm_Eagle_Beach_Aruba.html'
p618
aS'2015-06-24 22:05:26.700733'
p619
aa(lp620
I1
aI83
aI00
ag50
aI5
aI1
aI5
aI16
aI1
aI0
ag8
ag37
((lp621
g12
atRp622
ag37
((lp623
g10
ag16
ag9
ag11
ag12
atRp624
aS'http://www.tripadvisor.com/ShowUserReviews-g147399-d254897-r17182633-Beaches_Turks_and_Caicos_Resort_Villages_and_Spa-Providenciales_Turks_and_Caicos.html'
p625
aS'2015-06-24 22:05:27.843573'
p626
aa(lp627
I1
aI84
aI00
ag50
aI5
aI0
aI5
aI22
aI1
aI0
ag8
ag37
((ltRp628
ag37
((lp629
g10
ag16
ag9
ag11
ag12
atRp630
aS'http://www.tripadvisor.com/ShowUserReviews-g3176298-d1673192-r279158615-Barcelo_Bavaro_Palace_Deluxe-Bavaro_Punta_Cana_La_Altagracia_Province_Dominican.html'
p631
aS'2015-06-24 22:05:28.935499'
p632
aa(lp633
I1
aI85
aI00
ag50
aI5
aI1
aI5
aI19
aI1
aI0
ag8
ag37
((lp634
g9
atRp635
ag37
((lp636
g10
ag16
ag9
ag11
ag12
atRp637
aS'http://www.tripadvisor.com/ShowUserReviews-g147399-d254897-r190770112-Beaches_Turks_and_Caicos_Resort_Villages_and_Spa-Providenciales_Turks_and_Caicos.html'
p638
aS'2015-06-24 22:05:30.098928'
p639
aa(lp640
I1
aI86
aI00
ag50
aI5
aI2
aI5
aI15
aI1
aI0
ag8
ag37
((lp641
g10
ag12
atRp642
ag37
((lp643
g10
ag16
ag9
ag11
ag12
atRp644
aS'http://www.homeaway.com/vacation-rental/p927254a'
p645
aS'2015-06-24 22:05:31.109537'
p646
aa(lp647
I1
aI87
aI00
ag50
aI5
aI1
aI5
aI24
aI1
aI0
ag8
ag37
((lp648
g16
atRp649
ag37
((lp650
g10
ag16
ag9
ag11
ag12
atRp651
aS'http://www.homeaway.com/vacation-rental/p404803'
p652
aS'2015-06-24 22:05:32.945093'
p653
aa(lp654
I1
aI88
aI00
ag50
aI5
aI1
aI5
aI26
aI1
aI0
ag8
ag37
((lp655
g11
atRp656
ag37
((lp657
g10
ag16
ag9
ag11
ag12
atRp658
aS'http://kalitravelandtours.com/tourism.php?id=4'
p659
aS'2015-06-24 22:05:33.805015'
p660
aa(lp661
I1
aI89
aI00
ag50
aI5
aI2
aI5
aI22
aI1
aI0
ag8
ag37
((lp662
g16
ag12
atRp663
ag37
((lp664
g10
ag16
ag9
ag11
ag12
atRp665
aS'http://www.abutlersmanor.com/mobi/'
p666
aS'2015-06-24 22:05:35.530125'
p667
aa(lp668
I1
aI90
aI00
ag50
aI5
aI0
aI5
aI20
aI1
aI0
ag8
ag37
((ltRp669
ag37
((lp670
g10
ag16
ag9
ag11
ag12
atRp671
aS'http://www.tripadvisor.com/ShowUserReviews-g147399-d254897-r190719217-Beaches_Turks_and_Caicos_Resort_Villages_and_Spa-Providenciales_Turks_and_Caicos.html'
p672
aS'2015-06-24 22:05:39.062952'
p673
aa(lp674
I1
aI91
aI00
ag50
aI5
aI0
aI5
aI18
aI1
aI0
ag8
ag37
((ltRp675
ag37
((lp676
g10
ag16
ag9
ag11
ag12
atRp677
aS'http://www.tripadvisor.com/ShowUserReviews-g147399-d254897-r262124507-Beaches_Turks_and_Caicos_Resort_Villages_and_Spa-Providenciales_Turks_and_Caicos.html'
p678
aS'2015-06-24 22:05:40.324236'
p679
aa(lp680
I1
aI92
aI00
ag50
aI5
aI1
aI5
aI19
aI1
aI0
ag8
ag37
((lp681
g10
atRp682
ag37
((lp683
g10
ag16
ag9
ag11
ag12
atRp684
aS'http://www.tripadvisor.com/ShowUserReviews-g147399-d254897-r75853739-Beaches_Turks_and_Caicos_Resort_Villages_and_Spa-Providenciales_Turks_and_Caicos.html'
p685
aS'2015-06-24 22:05:41.487527'
p686
aa(lp687
I1
aI93
aI00
ag50
aI5
aI1
aI5
aI19
aI1
aI0
ag8
ag37
((lp688
g9
atRp689
ag37
((lp690
g10
ag16
ag9
ag11
ag12
atRp691
aS'http://www.tripadvisor.com/ShowUserReviews-g147399-d254897-r103950594-Beaches_Turks_and_Caicos_Resort_Villages_and_Spa-Providenciales_Turks_and_Caicos.html'
p692
aS'2015-06-24 22:05:42.634418'
p693
aa(lp694
I1
aI94
aI00
ag50
aI5
aI2
aI5
aI21
aI1
aI0
ag8
ag37
((lp695
g16
ag9
atRp696
ag37
((lp697
g10
ag16
ag9
ag11
ag12
atRp698
aS'http://www.tripadvisor.com/ShowUserReviews-g660724-d1167103-r126158966-Iberostar_Grand_Rose_Hall-Rose_Hall_Montego_Bay_Saint_James_Parish_Jamaica.html'
p699
aS'2015-06-24 22:05:43.811276'
p700
aa(lp701
I1
aI95
aI00
ag50
aI5
aI2
aI5
aI19
aI1
aI0
ag8
ag37
((lp702
g10
ag12
atRp703
ag37
((lp704
g10
ag16
ag9
ag11
ag12
atRp705
aS'http://www.tripadvisor.com/ShowUserReviews-g147399-d254897-r76067608-Beaches_Turks_and_Caicos_Resort_Villages_and_Spa-Providenciales_Turks_and_Caicos.html'
p706
aS'2015-06-24 22:05:45.004800'
p707
aa(lp708
I1
aI96
aI00
ag50
aI5
aI1
aI5
aI17
aI1
aI0
ag8
ag37
((lp709
g12
atRp710
ag37
((lp711
g10
ag16
ag9
ag11
ag12
atRp712
aS'http://www.tripadvisor.com/ShowUserReviews-g147399-d254897-r5037571-Beaches_Turks_and_Caicos_Resort_Villages_and_Spa-Providenciales_Turks_and_Caicos.html'
p713
aS'2015-06-24 22:05:46.151157'
p714
aa(lp715
I1
aI97
aI00
ag50
aI5
aI3
aI5
aI17
aI1
aI0
ag8
ag37
((lp716
g16
ag11
ag12
atRp717
ag37
((lp718
g10
ag16
ag9
ag11
ag12
atRp719
aS'http://www.homeaway.com/vacation-rental/p495192'
p720
aS'2015-06-24 22:05:47.175400'
p721
aa(lp722
I1
aI98
aI00
ag50
aI5
aI3
aI5
aI16
aI1
aI0
ag8
ag37
((lp723
g10
ag16
ag11
atRp724
ag37
((lp725
g10
ag16
ag9
ag11
ag12
atRp726
aS'http://www.homeaway.com/vacation-rental/p19417'
p727
aS'2015-06-24 22:05:49.300817'
p728
aa(lp729
I1
aI99
aI00
ag50
aI5
aI2
aI5
aI15
aI1
aI0
ag8
ag37
((lp730
g11
ag12
atRp731
ag37
((lp732
g10
ag16
ag9
ag11
ag12
atRp733
aS'http://www.homeaway.com/vacation-rental/p151684'
p734
aS'2015-06-24 22:05:50.661053'
p735
aa(lp736
I1
aI100
aI00
ag50
aI5
aI2
aI5
aI15
aI1
aI0
ag8
ag37
((lp737
g16
ag12
atRp738
ag37
((lp739
g10
ag16
ag9
ag11
ag12
atRp740
aS'http://www.homeaway.com/vacation-rental/p68846'
p741
aS'2015-06-24 22:05:55.768205'
p742
aa(lp743
I1
aI101
aI00
ag50
aI5
aI1
aI5
aI24
aI1
aI0
ag8
ag37
((lp744
g12
atRp745
ag37
((lp746
g10
ag16
ag9
ag11
ag12
atRp747
aS'http://www.homeaway.com/vacation-rental/p1167148'
p748
aS'2015-06-24 22:05:57.249788'
p749
aa(lp750
I1
aI102
aI00
ag50
aI5
aI0
aI0
aI1
aI1
aI0
ag8
ag37
((ltRp751
ag37
((ltRp752
aS'http://www.homeaway.com/vacation-rental/p97508'
p753
aS'2015-06-24 22:05:57.685069'
p754
aa(lp755
I1
aI103
aI00
ag50
aI5
aI2
aI5
aI14
aI1
aI0
ag8
ag37
((lp756
g10
ag9
atRp757
ag37
((lp758
g10
ag16
ag9
ag11
ag12
atRp759
aS'http://www.homeaway.com/vacation-rental/p6433903'
p760
aS'2015-06-24 22:06:01.023210'
p761
aa(lp762
I1
aI104
aI00
ag50
aI5
aI1
aI5
aI15
aI1
aI0
ag8
ag37
((lp763
g9
atRp764
ag37
((lp765
g10
ag16
ag9
ag11
ag12
atRp766
aS'http://www.homeaway.com/vacation-rental/p896457a'
p767
aS'2015-06-24 22:06:02.819664'
p768
aa(lp769
I1
aI105
aI00
ag50
aI5
aI1
aI5
aI15
aI1
aI0
ag8
ag37
((lp770
g16
atRp771
ag37
((lp772
g10
ag16
ag9
ag11
ag12
atRp773
aS'http://www.tripadvisor.com/ShowUserReviews-g47629-d79938-r265632842-C_o_The_Maidstone-East_Hampton_Long_Island_New_York.html'
p774
aS'2015-06-24 22:06:04.793366'
p775
aa(lp776
I1
aI106
aI00
ag50
aI5
aI2
aI5
aI19
aI1
aI0
ag8
ag37
((lp777
g10
ag9
atRp778
ag37
((lp779
g10
ag16
ag9
ag11
ag12
atRp780
aS'http://www.tripadvisor.com/ShowUserReviews-g150812-d1204526-r281833073-Grand_Velas_Riviera_Maya-Playa_del_Carmen_Yucatan_Peninsula.html'
p781
aS'2015-06-24 22:06:05.961436'
p782
aa(lp783
I1
aI107
aI00
ag50
aI5
aI2
aI5
aI18
aI1
aI0
ag8
ag37
((lp784
g9
ag11
atRp785
ag37
((lp786
g10
ag16
ag9
ag11
ag12
atRp787
aS'http://www.tripadvisor.com/ShowUserReviews-g147399-d254897-r117309687-Beaches_Turks_and_Caicos_Resort_Villages_and_Spa-Providenciales_Turks_and_Caicos.html'
p788
aS'2015-06-24 22:06:07.135930'
p789
aa(lp790
I1
aI108
aI00
ag50
aI5
aI2
aI5
aI18
aI1
aI0
ag8
ag37
((lp791
g16
ag12
atRp792
ag37
((lp793
g10
ag16
ag9
ag11
ag12
atRp794
aS'http://www.tripadvisor.com/ShowUserReviews-g147243-d148275-r93076387-Hawksbill_by_Rex_Resorts-St_John_s_Saint_John_Parish_Antigua_Antigua_and_Barbuda.html'
p795
aS'2015-06-24 22:06:08.207370'
p796
aa(lp797
I1
aI109
aI00
ag50
aI5
aI3
aI5
aI13
aI1
aI0
ag8
ag37
((lp798
g16
ag9
ag11
atRp799
ag37
((lp800
g10
ag16
ag9
ag11
ag12
atRp801
aS'http://www.tripadvisor.com/ShowUserReviews-g147275-d669563-r274468878-Varadero_Beach-Varadero_Matanzas_Province_Cuba.html'
p802
aS'2015-06-24 22:06:08.666178'
p803
aa(lp804
I1
aI110
aI00
ag50
aI5
aI1
aI5
aI16
aI1
aI0
ag8
ag37
((lp805
g16
atRp806
ag37
((lp807
g10
ag16
ag9
ag11
ag12
atRp808
aS'http://www.tripadvisor.com/ShowUserReviews-g1079181-d213861-r88670680-Hilton_Singer_Island_Oceanfront_Palm_Beaches_Resort-Singer_Island_Florida.html'
p809
aS'2015-06-24 22:06:11.964946'
p810
aa(lp811
I1
aI111
aI00
ag50
aI5
aI1
aI1
aI3
aI1
aI0
ag8
ag37
((lp812
Vbeaches
p813
atRp814
ag37
((lp815
g813
atRp816
aS'http://www.tripadvisor.com/ShowUserReviews-g147399-d254897-r72933578-Beaches_Turks_and_Caicos_Resort_Villages_and_Spa-Providenciales_Turks_and_Caicos.html'
p817
aS'2015-06-24 22:06:12.471923'
p818
aa(lp819
I1
aI112
aI00
ag50
aI5
aI1
aI5
aI18
aI1
aI0
ag8
ag37
((lp820
g12
atRp821
ag37
((lp822
g10
ag16
ag9
ag11
ag12
atRp823
aS'http://www.tripadvisor.com/ShowUserReviews-g147399-d254897-r6470091-Beaches_Turks_and_Caicos_Resort_Villages_and_Spa-Providenciales_Turks_and_Caicos.html'
p824
aS'2015-06-24 22:06:13.570268'
p825
aa(lp826
I1
aI113
aI00
ag50
aI5
aI1
aI5
aI17
aI1
aI0
ag8
ag37
((lp827
g16
atRp828
ag37
((lp829
g10
ag16
ag9
ag11
ag12
atRp830
aS'http://www.tripadvisor.com/ShowUserReviews-g150813-d591029-r264284630-Dreams_Tulum_Resort_Spa-Tulum_Yucatan_Peninsula.html'
p831
aS'2015-06-24 22:06:14.976965'
p832
aa(lp833
I1
aI114
aI00
ag50
aI5
aI0
aI4
aI16
aI1
aI0
ag8
ag37
((ltRp834
ag37
((lp835
g10
ag9
ag11
ag12
atRp836
aS'http://www.vrbo.com/503213'
p837
aS'2015-06-24 22:06:16.343010'
p838
aa(lp839
I1
aI115
aI00
ag50
aI5
aI1
aI5
aI11
aI1
aI0
ag8
ag37
((lp840
g10
atRp841
ag37
((lp842
g10
ag16
ag9
ag11
ag12
atRp843
aS'http://www.vrbo.com/431112'
p844
aS'2015-06-24 22:06:17.458798'
p845
aa(lp846
I1
aI116
aI00
ag50
aI5
aI2
aI5
aI19
aI1
aI0
ag8
ag37
((lp847
g10
ag12
atRp848
ag37
((lp849
g10
ag16
ag9
ag11
ag12
atRp850
aS'http://www.homeaway.com/vacation-rental/p93643'
p851
aS'2015-06-24 22:06:19.409007'
p852
aa(lp853
I1
aI117
aI00
ag50
aI5
aI1
aI5
aI18
aI1
aI0
ag8
ag37
((lp854
g11
atRp855
ag37
((lp856
g10
ag16
ag9
ag11
ag12
atRp857
aS'http://www.homeaway.com/vacation-rental/p672899a'
p858
aS'2015-06-24 22:06:21.296559'
p859
aa(lp860
I1
aI118
aI00
ag50
aI5
aI3
aI5
aI14
aI1
aI0
ag8
ag37
((lp861
g10
ag16
ag9
atRp862
ag37
((lp863
g10
ag16
ag9
ag11
ag12
atRp864
aS'http://www.homeaway.com/vacation-rental/p408080'
p865
aS'2015-06-24 22:06:23.535958'
p866
aa(lp867
I1
aI119
aI00
ag50
aI5
aI3
aI5
aI20
aI1
aI0
ag8
ag37
((lp868
g10
ag16
ag11
atRp869
ag37
((lp870
g10
ag16
ag9
ag11
ag12
atRp871
aS'http://www.homeaway.com/vacation-rental/p1081589'
p872
aS'2015-06-24 22:06:25.409428'
p873
aa(lp874
I1
aI120
aI00
ag50
aI5
aI2
aI5
aI20
aI1
aI0
ag8
ag37
((lp875
g10
ag12
atRp876
ag37
((lp877
g10
ag16
ag9
ag11
ag12
atRp878
aS'http://www.homeaway.com/vacation-rental/p410136'
p879
aS'2015-06-24 22:06:29.504271'
p880
aa(lp881
I1
aI121
aI00
ag50
aI5
aI2
aI5
aI22
aI1
aI0
ag8
ag37
((lp882
g10
ag9
atRp883
ag37
((lp884
g10
ag16
ag9
ag11
ag12
atRp885
aS'http://www.homeaway.com/vacation-rental/p84446'
p886
aS'2015-06-24 22:06:31.487822'
p887
aa(lp888
I1
aI122
aI00
ag50
aI5
aI2
aI5
aI17
aI1
aI0
ag8
ag37
((lp889
g11
ag12
atRp890
ag37
((lp891
g10
ag16
ag9
ag11
ag12
atRp892
aS'http://www.homeaway.com/vacation-rental/p336569'
p893
aS'2015-06-24 22:06:33.675873'
p894
aa(lp895
I1
aI123
aI00
ag50
aI5
aI0
aI5
aI20
aI1
aI0
ag8
ag37
((ltRp896
ag37
((lp897
g10
ag16
ag9
ag11
ag12
atRp898
aS'http://www.homeaway.com/vacation-rental/p4881'
p899
aS'2015-06-24 22:06:35.997736'
p900
aa(lp901
I1
aI124
aI00
ag50
aI5
aI1
aI5
aI17
aI1
aI0
ag8
ag37
((lp902
g11
atRp903
ag37
((lp904
g10
ag16
ag9
ag11
ag12
atRp905
aS'http://www.homeaway.com/vacation-rental/p1096068'
p906
aS'2015-06-24 22:06:37.658224'
p907
aa(lp908
I1
aI125
aI00
ag50
aI5
aI3
aI5
aI21
aI1
aI0
ag8
ag37
((lp909
g10
ag9
ag12
atRp910
ag37
((lp911
g10
ag16
ag9
ag11
ag12
atRp912
aS'http://www.homeaway.com/vacation-rental/p105966'
p913
aS'2015-06-24 22:06:40.035710'
p914
aa(lp915
I1
aI126
aI00
ag50
aI5
aI2
aI5
aI13
aI1
aI0
ag8
ag37
((lp916
g10
ag9
atRp917
ag37
((lp918
g10
ag16
ag9
ag11
ag12
atRp919
aS'http://www.borabora.com/french-polynesia-islands/moorea'
p920
aS'2015-06-24 22:06:42.123438'
p921
aa(lp922
I1
aI127
aI00
ag50
aI5
aI4
aI5
aI18
aI1
aI0
ag8
ag37
((lp923
g10
ag16
ag9
ag11
atRp924
ag37
((lp925
g10
ag16
ag9
ag11
ag12
atRp926
aS'http://www.tripadvisor.com/ShowUserReviews-g147347-d151247-r129232973-Flamingo_Beach_Resort-Philipsburg_Sint_Maarten_St_Maarten_St_Martin.html'
p927
aS'2015-06-24 22:06:43.424863'
p928
aa(lp929
I1
aI128
aI00
ag50
aI5
aI2
aI5
aI20
aI1
aI0
ag8
ag37
((lp930
g16
ag9
atRp931
ag37
((lp932
g10
ag16
ag9
ag11
ag12
atRp933
aS'http://www.tripadvisor.com/ShowUserReviews-g147399-d254897-r53448717-Beaches_Turks_and_Caicos_Resort_Villages_and_Spa-Providenciales_Turks_and_Caicos.html'
p934
aS'2015-06-24 22:06:44.584618'
p935
aa(lp936
I1
aI129
aI00
ag50
aI5
aI3
aI5
aI16
aI1
aI0
ag8
ag37
((lp937
g16
ag9
ag11
atRp938
ag37
((lp939
g10
ag16
ag9
ag11
ag12
atRp940
aS'http://www.tripadvisor.com/ShowUserReviews-g60654-d268660-r245700606-Ihilani_Resort_Spa_at_Ko_Olina-Kapolei_Oahu_Hawaii.html'
p941
aS'2015-06-24 22:06:45.661215'
p942
aa(lp943
I1
aI130
aI00
ag50
aI5
aI1
aI5
aI18
aI1
aI0
ag8
ag37
((lp944
g12
atRp945
ag37
((lp946
g10
ag16
ag9
ag11
ag12
atRp947
aS'http://www.homeaway.com/vacation-rental/p359029'
p948
aS'2015-06-24 22:06:52.892229'
p949
aa(lp950
I1
aI131
aI00
ag50
aI5
aI1
aI5
aI19
aI1
aI0
ag8
ag37
((lp951
g11
atRp952
ag37
((lp953
g10
ag16
ag9
ag11
ag12
atRp954
aS'http://www.homeaway.com/vacation-rental/p6343770'
p955
aS'2015-06-24 22:06:56.722985'
p956
aa(lp957
I1
aI132
aI00
ag50
aI5
aI2
aI5
aI14
aI1
aI0
ag8
ag37
((lp958
g9
ag11
atRp959
ag37
((lp960
g10
ag16
ag9
ag11
ag12
atRp961
aS'http://www.homeaway.com/vacation-rental/p679619a'
p962
aS'2015-06-24 22:06:58.412181'
p963
aa(lp964
I1
aI133
aI00
ag50
aI5
aI2
aI5
aI17
aI1
aI0
ag8
ag37
((lp965
g16
ag12
atRp966
ag37
((lp967
g10
ag16
ag9
ag11
ag12
atRp968
aS'http://www.tripadvisor.com/ShowUserReviews-g660724-d1200370-r56712933-Hilton_Rose_Hall_Resort_Spa-Rose_Hall_Montego_Bay_Saint_James_Parish_Jamaica.html'
p969
aS'2015-06-24 22:06:59.935864'
p970
aa(lp971
I1
aI134
aI00
ag50
aI5
aI1
aI5
aI19
aI1
aI0
ag8
ag37
((lp972
g16
atRp973
ag37
((lp974
g10
ag16
ag9
ag11
ag12
atRp975
aS'http://www.tripadvisor.com/ShowUserReviews-g147313-d214530-r104375274-Beaches_Negril_Resort_Spa-Negril_Westmoreland_Parish_Jamaica.html'
p976
aS'2015-06-24 22:07:01.247743'
p977
aa(lp978
I1
aI135
aI00
ag50
aI5
aI1
aI5
aI19
aI1
aI0
ag8
ag37
((lp979
g12
atRp980
ag37
((lp981
g10
ag16
ag9
ag11
ag12
atRp982
aS'http://www.tripadvisor.com/ShowUserReviews-g1993121-d148874-r2968721-Beaches_Ocho_Rios_Resort_Golf_Club-Boscobel_Saint_Mary_Parish_Jamaica.html'
p983
aS'2015-06-24 22:07:02.403235'
p984
aa(lp985
I1
aI136
aI00
ag50
aI5
aI2
aI5
aI17
aI1
aI0
ag8
ag37
((lp986
g10
ag9
atRp987
ag37
((lp988
g10
ag16
ag9
ag11
ag12
atRp989
aS'http://www.tripadvisor.com/Hotel_Review-g4014588-d610745-Reviews-Anantara_Dhigu_Resort_Spa-Dhigufinolhu_Island.html'
p990
aS'2015-06-24 22:07:04.103543'
p991
aa(lp992
I1
aI137
aI00
ag50
aI5
aI3
aI5
aI11
aI1
aI0
ag8
ag37
((lp993
g16
ag9
ag12
atRp994
ag37
((lp995
g10
ag16
ag9
ag11
ag12
atRp996
aS'http://www.borabora.com/french-polynesia-islands/tikehau'
p997
aS'2015-06-24 22:07:06.210723'
p998
aa(lp999
I1
aI138
aI00
ag50
aI5
aI1
aI2
aI7
aI1
aI0
ag8
ag37
((lp1000
g11
atRp1001
ag37
((lp1002
g9
ag11
atRp1003
aS'http://www.expedia.com/Cairns-And-Northern-Beaches-Hotels-Pullman-Palm-Cove-Sea-Temple-Resort-And-Spa.h1135657.Hotel-Information'
p1004
aS'2015-06-24 22:07:08.299673'
p1005
aa(lp1006
I1
aI139
aI00
ag50
aI5
aI1
aI3
aI10
aI1
aI0
ag8
ag37
((lp1007
g12
atRp1008
ag37
((lp1009
g10
ag9
ag12
atRp1010
aS'https://www.pinterest.com/pamelaprussel/n-e-s-t/'
p1011
aS'2015-06-24 22:07:11.380001'
p1012
aa(lp1013
I1
aI140
aI00
ag50
aI5
aI1
aI5
aI18
aI1
aI0
ag8
ag37
((lp1014
g11
atRp1015
ag37
((lp1016
g10
ag16
ag9
ag11
ag12
atRp1017
aS'http://www.homeaway.com/vacation-rental/p74803'
p1018
aS'2015-06-24 22:17:51.416725'
p1019
aa(lp1020
I1
aI141
aI00
ag50
aI5
aI2
aI5
aI20
aI1
aI0
ag8
ag37
((lp1021
g10
ag11
atRp1022
ag37
((lp1023
g10
ag16
ag9
ag11
ag12
atRp1024
aS'http://www.homeaway.com/vacation-rental/p1077878a'
p1025
aS'2015-06-24 22:17:53.944029'
p1026
aa(lp1027
I1
aI142
aI00
ag50
aI5
aI3
aI5
aI20
aI1
aI0
ag8
ag37
((lp1028
g10
ag16
ag9
atRp1029
ag37
((lp1030
g10
ag16
ag9
ag11
ag12
atRp1031
aS'http://www.homeaway.com/vacation-rental/p1119942'
p1032
aS'2015-06-24 22:17:55.970667'
p1033
aa(lp1034
I1
aI143
aI00
ag50
aI5
aI0
aI5
aI18
aI1
aI0
ag8
ag37
((ltRp1035
ag37
((lp1036
g10
ag16
ag9
ag11
ag12
atRp1037
aS'http://www.homeaway.com/vacation-rental/p81041'
p1038
aS'2015-06-24 22:17:58.709476'
p1039
aa(lp1040
I1
aI144
aI00
ag50
aI5
aI3
aI5
aI13
aI1
aI0
ag8
ag37
((lp1041
g16
ag9
ag11
atRp1042
ag37
((lp1043
g10
ag16
ag9
ag11
ag12
atRp1044
aS'http://www.homeaway.com/vacation-rental/p672244a'
p1045
aS'2015-06-24 22:18:00.617342'
p1046
aa(lp1047
I1
aI145
aI00
ag50
aI5
aI2
aI5
aI18
aI1
aI0
ag8
ag37
((lp1048
g16
ag12
atRp1049
ag37
((lp1050
g10
ag16
ag9
ag11
ag12
atRp1051
aS'http://www.homeaway.com/vacation-rental/p621342a'
p1052
aS'2015-06-24 22:18:02.248755'
p1053
aa(lp1054
I1
aI146
aI00
ag50
aI5
aI2
aI5
aI18
aI1
aI0
ag8
ag37
((lp1055
g11
ag12
atRp1056
ag37
((lp1057
g10
ag16
ag9
ag11
ag12
atRp1058
aS'http://www.tripadvisor.com/ShowUserReviews-g147275-d1646887-r7803232-Naviti_Varadero-Varadero_Matanzas_Province_Cuba.html'
p1059
aS'2015-06-24 22:18:03.793037'
p1060
aa(lp1061
I1
aI147
aI00
ag50
aI5
aI2
aI5
aI18
aI1
aI0
ag8
ag37
((lp1062
g16
ag12
atRp1063
ag37
((lp1064
g10
ag16
ag9
ag11
ag12
atRp1065
aS'http://www.tripadvisor.com/ShowUserReviews-g147399-d254897-r194081447-Beaches_Turks_and_Caicos_Resort_Villages_and_Spa-Providenciales_Turks_and_Caicos.html'
p1066
aS'2015-06-24 22:18:05.101169'
p1067
aa(lp1068
I1
aI148
aI00
ag50
aI5
aI1
aI5
aI16
aI1
aI0
ag8
ag37
((lp1069
g11
atRp1070
ag37
((lp1071
g10
ag16
ag9
ag11
ag12
atRp1072
aS'http://www.tripadvisor.com/ShowUserReviews-g147399-d254897-r149440275-Beaches_Turks_and_Caicos_Resort_Villages_and_Spa-Providenciales_Turks_and_Caicos.html'
p1073
aS'2015-06-24 22:18:06.352617'
p1074
aa(lp1075
I1
aI149
aI00
ag50
aI5
aI1
aI5
aI17
aI1
aI0
ag8
ag37
((lp1076
g12
atRp1077
ag37
((lp1078
g10
ag16
ag9
ag11
ag12
atRp1079
aS'http://www.tripadvisor.com/ShowUserReviews-g147399-d254897-r251639102-Beaches_Turks_and_Caicos_Resort_Villages_and_Spa-Providenciales_Turks_and_Caicos.html'
p1080
aS'2015-06-24 22:18:07.444816'
p1081
aa(lp1082
I1
aI150
aI00
ag50
aI5
aI1
aI5
aI17
aI1
aI0
ag8
ag37
((lp1083
g11
atRp1084
ag37
((lp1085
g10
ag16
ag9
ag11
ag12
atRp1086
aS'http://www.tripadvisor.com/ShowUserReviews-g147399-d254897-r194051474-Beaches_Turks_and_Caicos_Resort_Villages_and_Spa-Providenciales_Turks_and_Caicos.html'
p1087
aS'2015-06-24 22:18:10.863373'
p1088
aa(lp1089
I1
aI151
aI00
ag50
aI5
aI2
aI5
aI20
aI1
aI0
ag8
ag37
((lp1090
g16
ag11
atRp1091
ag37
((lp1092
g10
ag16
ag9
ag11
ag12
atRp1093
aS'http://www.tripadvisor.com/ShowUserReviews-g147399-d254897-r37791227-Beaches_Turks_and_Caicos_Resort_Villages_and_Spa-Providenciales_Turks_and_Caicos.html'
p1094
aS'2015-06-24 22:18:12.065102'
p1095
aa(lp1096
I1
aI152
aI00
ag50
aI5
aI1
aI5
aI22
aI1
aI0
ag8
ag37
((lp1097
g12
atRp1098
ag37
((lp1099
g10
ag16
ag9
ag11
ag12
atRp1100
aS'http://www.tripadvisor.com/ShowUserReviews-g147399-d254897-r54637859-Beaches_Turks_and_Caicos_Resort_Villages_and_Spa-Providenciales_Turks_and_Caicos.html'
p1101
aS'2015-06-24 22:18:13.244370'
p1102
aa(lp1103
I1
aI153
aI00
ag50
aI5
aI2
aI5
aI17
aI1
aI0
ag8
ag37
((lp1104
g16
ag9
atRp1105
ag37
((lp1106
g10
ag16
ag9
ag11
ag12
atRp1107
aS'http://www.tripadvisor.com/ShowUserReviews-g295424-d1022759-r272778783-Atlantis_The_Palm-Dubai_Emirate_of_Dubai.html'
p1108
aS'2015-06-24 22:18:14.728678'
p1109
aa(lp1110
I1
aI154
aI00
ag50
aI5
aI3
aI5
aI16
aI1
aI0
ag8
ag37
((lp1111
g16
ag9
ag12
atRp1112
ag37
((lp1113
g10
ag16
ag9
ag11
ag12
atRp1114
aS'http://www.tripadvisor.com/ShowUserReviews-g147399-d254897-r266272360-Beaches_Turks_and_Caicos_Resort_Villages_and_Spa-Providenciales_Turks_and_Caicos.html'
p1115
aS'2015-06-24 22:18:15.865734'
p1116
aa(lp1117
I1
aI155
aI00
ag50
aI5
aI1
aI5
aI18
aI1
aI0
ag8
ag37
((lp1118
g11
atRp1119
ag37
((lp1120
g10
ag16
ag9
ag11
ag12
atRp1121
aS'http://www.homeaway.com/vacation-rental/p364270'
p1122
aS'2015-06-24 22:18:17.869747'
p1123
aa(lp1124
I1
aI156
aI00
ag50
aI5
aI2
aI5
aI14
aI1
aI0
ag8
ag37
((lp1125
g9
ag11
atRp1126
ag37
((lp1127
g10
ag16
ag9
ag11
ag12
atRp1128
aS'http://www.homeaway.com/vacation-rental/p957104a'
p1129
aS'2015-06-24 22:18:19.759552'
p1130
aa(lp1131
I1
aI157
aI00
ag50
aI5
aI0
aI5
aI17
aI1
aI0
ag8
ag37
((ltRp1132
ag37
((lp1133
g10
ag16
ag9
ag11
ag12
atRp1134
aS'http://www.homeaway.com/vacation-rental/p482988'
p1135
aS'2015-06-24 22:18:21.737058'
p1136
aa(lp1137
I1
aI158
aI00
ag50
aI5
aI0
aI5
aI20
aI1
aI0
ag8
ag37
((ltRp1138
ag37
((lp1139
g10
ag16
ag9
ag11
ag12
atRp1140
aS'http://www.homeaway.com/vacation-rental/p937106'
p1141
aS'2015-06-24 22:18:23.631574'
p1142
aa(lp1143
I1
aI159
aI00
ag50
aI5
aI0
aI5
aI21
aI1
aI0
ag8
ag37
((ltRp1144
ag37
((lp1145
g10
ag16
ag9
ag11
ag12
atRp1146
aS'http://www.homeaway.com/vacation-rental/p270811'
p1147
aS'2015-06-24 22:18:25.538591'
p1148
aa(lp1149
I1
aI160
aI00
ag50
aI5
aI0
aI0
aI1
aI1
aI0
ag8
ag37
((ltRp1150
ag37
((ltRp1151
aS'http://www.homeaway.com/vacation-rental/p610413a'
p1152
aS'2015-06-24 22:18:28.273526'
p1153
aa(lp1154
I1
aI161
aI00
ag50
aI5
aI1
aI5
aI15
aI1
aI0
ag8
ag37
((lp1155
g16
atRp1156
ag37
((lp1157
g10
ag16
ag9
ag11
ag12
atRp1158
aS'http://www.homeaway.com/vacation-rental/p614579a'
p1159
aS'2015-06-24 22:18:29.998480'
p1160
aa(lp1161
I1
aI162
aI00
ag50
aI5
aI2
aI5
aI21
aI1
aI0
ag8
ag37
((lp1162
g10
ag11
atRp1163
ag37
((lp1164
g10
ag16
ag9
ag11
ag12
atRp1165
aS'http://www.homeaway.com/vacation-rental/p15107'
p1166
aS'2015-06-24 22:18:32.687966'
p1167
aa(lp1168
I1
aI163
aI00
ag50
aI5
aI2
aI5
aI15
aI1
aI0
ag8
ag37
((lp1169
g11
ag12
atRp1170
ag37
((lp1171
g10
ag16
ag9
ag11
ag12
atRp1172
aS'https://www.flipkey.com/algarve-villa-rentals/p371429/'
p1173
aS'2015-06-24 22:18:34.672021'
p1174
aa(lp1175
I1
aI164
aI00
ag50
aI5
aI2
aI5
aI19
aI1
aI0
ag8
ag37
((lp1176
g16
ag12
atRp1177
ag37
((lp1178
g10
ag16
ag9
ag11
ag12
atRp1179
aS'http://www.tripadvisor.com/ShowUserReviews-g147399-d254897-r123179979-Beaches_Turks_and_Caicos_Resort_Villages_and_Spa-Providenciales_Turks_and_Caicos.html'
p1180
aS'2015-06-24 22:18:36.202043'
p1181
aa(lp1182
I1
aI165
aI00
ag50
aI5
aI1
aI5
aI18
aI1
aI0
ag8
ag37
((lp1183
g9
atRp1184
ag37
((lp1185
g10
ag16
ag9
ag11
ag12
atRp1186
aS'http://www.tripadvisor.com/ShowUserReviews-g147399-d254897-r228657337-Beaches_Turks_and_Caicos_Resort_Villages_and_Spa-Providenciales_Turks_and_Caicos.html'
p1187
aS'2015-06-24 22:18:37.362439'
p1188
aa(lp1189
I1
aI166
aI00
ag50
aI5
aI3
aI5
aI22
aI1
aI0
ag8
ag37
((lp1190
g10
ag11
ag12
atRp1191
ag37
((lp1192
g10
ag16
ag9
ag11
ag12
atRp1193
aS'http://www.tripadvisor.com/ShowUserReviews-g642244-d599930-r129336633-Iberostar_Ensenachos-Cayo_Ensenachos_Cuba.html'
p1194
aS'2015-06-24 22:18:38.503093'
p1195
aa(lp1196
I1
aI167
aI00
ag50
aI5
aI2
aI5
aI16
aI1
aI0
ag8
ag37
((lp1197
g10
ag9
atRp1198
ag37
((lp1199
g10
ag16
ag9
ag11
ag12
atRp1200
aS'http://www.tripadvisor.com/ShowUserReviews-g503691-d523962-r7207962-Barefoot_at_Havelock-Havelock_Island_Andaman_and_Nicobar_Islands.html'
p1201
aS'2015-06-24 22:18:39.813769'
p1202
aa(lp1203
I1
aI168
aI00
ag50
aI5
aI1
aI5
aI16
aI1
aI0
ag8
ag37
((lp1204
g11
atRp1205
ag37
((lp1206
g10
ag16
ag9
ag11
ag12
atRp1207
aS'http://www.tripadvisor.com/ShowUserReviews-g187223-d606482-r221908386-Le_Mas_Samarcande-Golfe_Juan_Vallauris_Antibes_French_Riviera_Cote_d_Azur_Provenc.html'
p1208
aS'2015-06-24 22:18:41.012115'
p1209
aa(lp1210
I1
aI169
aI00
ag50
aI5
aI3
aI5
aI15
aI1
aI0
ag8
ag37
((lp1211
g10
ag16
ag12
atRp1212
ag37
((lp1213
g10
ag16
ag9
ag11
ag12
atRp1214
aS'http://www.counterpunch.org/2014/09/12/100-best-novels-in-translation-since-1900/'
p1215
aS'2015-06-24 22:18:42.000027'
p1216
aa(lp1217
I1
aI170
aI00
ag50
aI5
aI2
aI5
aI22
aI1
aI0
ag8
ag37
((lp1218
g10
ag11
atRp1219
ag37
((lp1220
g10
ag16
ag9
ag11
ag12
atRp1221
aS'http://www.tripadvisor.com/ShowUserReviews-g4053317-d285111-r144135140-Catalonia_Playa_Maroma-Playa_Maroma_Playa_del_Carmen_Yucatan_Peninsula.html'
p1222
aS'2015-06-24 22:18:45.678749'
p1223
aa(lp1224
I1
aI171
aI00
ag50
aI5
aI1
aI5
aI20
aI1
aI0
ag8
ag37
((lp1225
g12
atRp1226
ag37
((lp1227
g10
ag16
ag9
ag11
ag12
atRp1228
aS'http://www.tripadvisor.com/ShowUserReviews-g34481-d216486-r253429846-South_Seas_Island_Resort-Captiva_Island_Florida.html'
p1229
aS'2015-06-24 22:18:46.905748'
p1230
aa(lp1231
I1
aI172
aI00
ag50
aI5
aI1
aI5
aI17
aI1
aI0
ag8
ag37
((lp1232
g16
atRp1233
ag37
((lp1234
g10
ag16
ag9
ag11
ag12
atRp1235
aS'http://www.tripadvisor.com/ShowUserReviews-g147399-d254897-r70837551-Beaches_Turks_and_Caicos_Resort_Villages_and_Spa-Providenciales_Turks_and_Caicos.html'
p1236
aS'2015-06-24 22:18:48.132474'
p1237
aa(lp1238
I1
aI173
aI00
ag50
aI5
aI1
aI5
aI19
aI1
aI0
ag8
ag37
((lp1239
g9
atRp1240
ag37
((lp1241
g10
ag16
ag9
ag11
ag12
atRp1242
aS'http://www.tripadvisor.com/ShowUserReviews-g147399-d254897-r196021705-Beaches_Turks_and_Caicos_Resort_Villages_and_Spa-Providenciales_Turks_and_Caicos.html'
p1243
aS'2015-06-24 22:18:49.375524'
p1244
aa(lp1245
I1
aI174
aI00
ag50
aI5
aI3
aI5
aI16
aI1
aI0
ag8
ag37
((lp1246
g16
ag11
ag12
atRp1247
ag37
((lp1248
g10
ag16
ag9
ag11
ag12
atRp1249
aS'http://www.tripadvisor.com/ShowUserReviews-g147399-d254897-r270639149-Beaches_Turks_and_Caicos_Resort_Villages_and_Spa-Providenciales_Turks_and_Caicos.html'
p1250
aS'2015-06-24 22:18:50.730895'
p1251
aa(lp1252
I1
aI175
aI00
ag50
aI5
aI2
aI5
aI17
aI1
aI0
ag8
ag37
((lp1253
g10
ag9
atRp1254
ag37
((lp1255
g10
ag16
ag9
ag11
ag12
atRp1256
aS'http://www.tripadvisor.com/ShowUserReviews-g147399-d254897-r110803738-Beaches_Turks_and_Caicos_Resort_Villages_and_Spa-Providenciales_Turks_and_Caicos.html'
p1257
aS'2015-06-24 22:18:51.956719'
p1258
aa(lp1259
I1
aI176
aI00
ag50
aI5
aI1
aI5
aI21
aI1
aI0
ag8
ag37
((lp1260
g10
atRp1261
ag37
((lp1262
g10
ag16
ag9
ag11
ag12
atRp1263
aS'http://www.homeaway.com/vacation-rental/p436023'
p1264
aS'2015-06-24 22:18:53.836684'
p1265
aa(lp1266
I1
aI177
aI00
ag50
aI5
aI0
aI5
aI16
aI1
aI0
ag8
ag37
((ltRp1267
ag37
((lp1268
g10
ag16
ag9
ag11
ag12
atRp1269
aS'http://www.homeaway.com/vacation-rental/p145368'
p1270
aS'2015-06-24 22:18:56.060252'
p1271
aa(lp1272
I1
aI178
aI00
ag50
aI5
aI1
aI5
aI15
aI1
aI0
ag8
ag37
((lp1273
g9
atRp1274
ag37
((lp1275
g10
ag16
ag9
ag11
ag12
atRp1276
aS'http://www.homeaway.com/vacation-rental/p861934a'
p1277
aS'2015-06-24 22:18:57.798241'
p1278
aa(lp1279
I1
aI179
aI00
ag50
aI5
aI2
aI4
aI14
aI1
aI0
ag8
ag37
((lp1280
g10
ag11
atRp1281
ag37
((lp1282
g10
ag9
ag11
ag12
atRp1283
aS'http://www.homeaway.com/vacation-rental/p59113'
p1284
aS'2015-06-24 22:18:59.846505'
p1285
aa(lp1286
I1
aI180
aI00
ag50
aI5
aI3
aI5
aI16
aI1
aI0
ag8
ag37
((lp1287
g10
ag11
ag12
atRp1288
ag37
((lp1289
g10
ag16
ag9
ag11
ag12
atRp1290
aS'http://www.visitnj.org/nj-golfing/minerals-golf-course-crystal-springs-resort'
p1291
aS'2015-06-24 22:19:06.359218'
p1292
aa(lp1293
I1
aI181
aI00
ag50
aI5
aI2
aI5
aI17
aI1
aI0
ag8
ag37
((lp1294
g10
ag12
atRp1295
ag37
((lp1296
g10
ag16
ag9
ag11
ag12
atRp1297
aS'http://www.tripadvisor.com/ShowUserReviews-g147399-d254897-r261266622-Beaches_Turks_and_Caicos_Resort_Villages_and_Spa-Providenciales_Turks_and_Caicos.html'
p1298
aS'2015-06-24 22:19:07.745001'
p1299
aa(lp1300
I1
aI182
aI00
ag50
aI5
aI3
aI5
aI15
aI1
aI0
ag8
ag37
((lp1301
g16
ag11
ag12
atRp1302
ag37
((lp1303
g10
ag16
ag9
ag11
ag12
atRp1304
aS'http://www.tripadvisor.com/ShowUserReviews-g147399-d254897-r185586840-Beaches_Turks_and_Caicos_Resort_Villages_and_Spa-Providenciales_Turks_and_Caicos.html'
p1305
aS'2015-06-24 22:19:09.008720'
p1306
aa(lp1307
I1
aI183
aI00
ag50
aI5
aI2
aI5
aI20
aI1
aI0
ag8
ag37
((lp1308
g10
ag12
atRp1309
ag37
((lp1310
g10
ag16
ag9
ag11
ag12
atRp1311
aS'http://www.tripadvisor.com/ShowUserReviews-g147399-d254897-r15037896-Beaches_Turks_and_Caicos_Resort_Villages_and_Spa-Providenciales_Turks_and_Caicos.html'
p1312
aS'2015-06-24 22:19:10.152845'
p1313
aa(lp1314
I1
aI184
aI00
ag50
aI5
aI2
aI5
aI19
aI1
aI0
ag8
ag37
((lp1315
g11
ag12
atRp1316
ag37
((lp1317
g10
ag16
ag9
ag11
ag12
atRp1318
aS'http://www.tripadvisor.com/ShowUserReviews-g147399-d254897-r82089152-Beaches_Turks_and_Caicos_Resort_Villages_and_Spa-Providenciales_Turks_and_Caicos.html'
p1319
aS'2015-06-24 22:19:11.424896'
p1320
aa(lp1321
I1
aI185
aI00
ag50
aI5
aI3
aI5
aI17
aI1
aI0
ag8
ag37
((lp1322
g10
ag9
ag12
atRp1323
ag37
((lp1324
g10
ag16
ag9
ag11
ag12
atRp1325
aS'http://www.tripadvisor.com/ShowUserReviews-g147399-d254897-r27053159-Beaches_Turks_and_Caicos_Resort_Villages_and_Spa-Providenciales_Turks_and_Caicos.html'
p1326
aS'2015-06-24 22:19:12.568864'
p1327
aa(lp1328
I1
aI186
aI00
ag50
aI5
aI1
aI5
aI25
aI1
aI0
ag8
ag37
((lp1329
g9
atRp1330
ag37
((lp1331
g10
ag16
ag9
ag11
ag12
atRp1332
aS'http://www.tripadvisor.com/ShowUserReviews-g147399-d254897-r214110922-Beaches_Turks_and_Caicos_Resort_Villages_and_Spa-Providenciales_Turks_and_Caicos.html'
p1333
aS'2015-06-24 22:19:13.787488'
p1334
aa(lp1335
I1
aI187
aI00
ag50
aI5
aI3
aI5
aI16
aI1
aI0
ag8
ag37
((lp1336
g9
ag11
ag12
atRp1337
ag37
((lp1338
g10
ag16
ag9
ag11
ag12
atRp1339
aS'http://www.tripadvisor.com/ShowUserReviews-g147399-d254897-r6749830-Beaches_Turks_and_Caicos_Resort_Villages_and_Spa-Providenciales_Turks_and_Caicos.html'
p1340
aS'2015-06-24 22:19:15.013703'
p1341
aa(lp1342
I1
aI188
aI00
ag50
aI5
aI1
aI5
aI19
aI1
aI0
ag8
ag37
((lp1343
g10
atRp1344
ag37
((lp1345
g10
ag16
ag9
ag11
ag12
atRp1346
aS'http://www.tripadvisor.com/ShowUserReviews-g147399-d254897-r19390331-Beaches_Turks_and_Caicos_Resort_Villages_and_Spa-Providenciales_Turks_and_Caicos.html'
p1347
aS'2015-06-24 22:19:16.242178'
p1348
aa(lp1349
I1
aI189
aI00
ag50
aI5
aI1
aI5
aI20
aI1
aI0
ag8
ag37
((lp1350
g16
atRp1351
ag37
((lp1352
g10
ag16
ag9
ag11
ag12
atRp1353
aS'http://www.tripadvisor.com/ShowUserReviews-g153510-d240507-r265465543-Catalonia_Riviera_Maya-Puerto_Aventuras_Yucatan_Peninsula.html'
p1354
aS'2015-06-24 22:19:17.523183'
p1355
aa(lp1356
I1
aI190
aI00
ag50
aI5
aI1
aI5
aI19
aI1
aI0
ag8
ag37
((lp1357
g9
atRp1358
ag37
((lp1359
g10
ag16
ag9
ag11
ag12
atRp1360
aS'http://www.tripadvisor.com/ShowUserReviews-g147399-d254897-r148382522-Beaches_Turks_and_Caicos_Resort_Villages_and_Spa-Providenciales_Turks_and_Caicos.html'
p1361
aS'2015-06-24 22:19:20.840805'
p1362
aa(lp1363
I1
aI191
aI00
ag50
aI5
aI2
aI5
aI15
aI1
aI0
ag8
ag37
((lp1364
g10
ag16
atRp1365
ag37
((lp1366
g10
ag16
ag9
ag11
ag12
atRp1367
aS'http://www.tripadvisor.com/Attraction_Review-g612391-d1307603-Reviews-Koh_Kho_Khao_Island-Takua_Pa_Phang_Nga_Province.html'
p1368
aS'2015-06-24 22:19:22.388617'
p1369
aa(lp1370
I1
aI192
aI00
ag50
aI5
aI1
aI5
aI18
aI1
aI0
ag8
ag37
((lp1371
g16
atRp1372
ag37
((lp1373
g10
ag16
ag9
ag11
ag12
atRp1374
aS'http://www.tripadvisor.com/ShowUserReviews-g147399-d254897-r140884422-Beaches_Turks_and_Caicos_Resort_Villages_and_Spa-Providenciales_Turks_and_Caicos.html'
p1375
aS'2015-06-24 22:19:23.673646'
p1376
aa(lp1377
I1
aI193
aI00
ag50
aI5
aI1
aI5
aI16
aI1
aI0
ag8
ag37
((lp1378
g9
atRp1379
ag37
((lp1380
g10
ag16
ag9
ag11
ag12
atRp1381
aS'http://www.tripadvisor.com/ShowUserReviews-g147399-d254897-r255766124-Beaches_Turks_and_Caicos_Resort_Villages_and_Spa-Providenciales_Turks_and_Caicos.html'
p1382
aS'2015-06-24 22:19:24.809995'
p1383
aa(lp1384
I1
aI194
aI00
ag50
aI5
aI2
aI5
aI19
aI1
aI0
ag8
ag37
((lp1385
g10
ag11
atRp1386
ag37
((lp1387
g10
ag16
ag9
ag11
ag12
atRp1388
aS'http://www.tripadvisor.com/ShowUserReviews-g147399-d254897-r75988783-Beaches_Turks_and_Caicos_Resort_Villages_and_Spa-Providenciales_Turks_and_Caicos.html'
p1389
aS'2015-06-24 22:19:26.049440'
p1390
aa(lp1391
I1
aI195
aI00
ag50
aI5
aI3
aI5
aI17
aI1
aI0
ag8
ag37
((lp1392
g16
ag9
ag12
atRp1393
ag37
((lp1394
g10
ag16
ag9
ag11
ag12
atRp1395
aS'http://www.homeaway.com/vacation-rental/p96518'
p1396
aS'2015-06-24 22:19:27.642275'
p1397
aa(lp1398
I1
aI196
aI00
ag50
aI5
aI1
aI5
aI19
aI1
aI0
ag8
ag37
((lp1399
g11
atRp1400
ag37
((lp1401
g10
ag16
ag9
ag11
ag12
atRp1402
aS'http://www.homeaway.com/vacation-rental/p1079913'
p1403
aS'2015-06-24 22:19:29.821896'
p1404
aa(lp1405
I1
aI197
aI00
ag50
aI5
aI1
aI5
aI19
aI1
aI0
ag8
ag37
((lp1406
g11
atRp1407
ag37
((lp1408
g10
ag16
ag9
ag11
ag12
atRp1409
aS'http://www.homeaway.com/vacation-rental/p356413'
p1410
aS'2015-06-24 22:19:31.671288'
p1411
aa(lp1412
I1
aI198
aI00
ag50
aI5
aI2
aI5
aI18
aI1
aI0
ag8
ag37
((lp1413
g16
ag9
atRp1414
ag37
((lp1415
g10
ag16
ag9
ag11
ag12
atRp1416
aS'http://www.homeaway.com/vacation-rental/p1050073'
p1417
aS'2015-06-24 22:19:33.614151'
p1418
aa(lp1419
I1
aI199
aI00
ag50
aI5
aI2
aI5
aI16
aI1
aI0
ag8
ag37
((lp1420
g11
ag12
atRp1421
ag37
((lp1422
g10
ag16
ag9
ag11
ag12
atRp1423
aS'http://www.homeaway.com/vacation-rental/p412890'
p1424
aS'2015-06-24 22:19:35.255188'
p1425
aa(lp1426
I1
aI200
aI00
ag50
aI5
aI2
aI5
aI17
aI1
aI0
ag8
ag37
((lp1427
g10
ag16
atRp1428
ag37
((lp1429
g10
ag16
ag9
ag11
ag12
atRp1430
aS'http://www.tripadvisor.com/ShowUserReviews-g147399-d254897-r83647503-Beaches_Turks_and_Caicos_Resort_Villages_and_Spa-Providenciales_Turks_and_Caicos.html'
p1431
aS'2015-06-24 22:19:38.794653'
p1432
aa(lp1433
I1
aI201
aI00
ag50
aI5
aI1
aI5
aI15
aI1
aI0
ag8
ag37
((lp1434
g12
atRp1435
ag37
((lp1436
g10
ag16
ag9
ag11
ag12
atRp1437
aS'http://www.tripadvisor.com/ShowUserReviews-g187221-d275265-r168078597-Eden_Hotel_Spa-Cannes_French_Riviera_Cote_d_Azur_Provence.html'
p1438
aS'2015-06-24 22:19:40.081571'
p1439
aa(lp1440
I1
aI202
aI00
ag50
aI5
aI2
aI5
aI14
aI1
aI0
ag8
ag37
((lp1441
g16
ag11
atRp1442
ag37
((lp1443
g10
ag16
ag9
ag11
ag12
atRp1444
aS'http://www.tripadvisor.com/ShowUserReviews-g147399-d254897-r252414282-Beaches_Turks_and_Caicos_Resort_Villages_and_Spa-Providenciales_Turks_and_Caicos.html'
p1445
aS'2015-06-24 22:19:41.261825'
p1446
aa(lp1447
I1
aI203
aI00
ag50
aI5
aI1
aI5
aI19
aI1
aI0
ag8
ag37
((lp1448
g12
atRp1449
ag37
((lp1450
g10
ag16
ag9
ag11
ag12
atRp1451
aS'http://www.tripadvisor.com/ShowUserReviews-g147399-d254897-r270668495-Beaches_Turks_and_Caicos_Resort_Villages_and_Spa-Providenciales_Turks_and_Caicos.html'
p1452
aS'2015-06-24 22:19:42.436580'
p1453
aa(lp1454
I1
aI204
aI00
ag50
aI5
aI2
aI5
aI15
aI1
aI0
ag8
ag37
((lp1455
g16
ag11
atRp1456
ag37
((lp1457
g10
ag16
ag9
ag11
ag12
atRp1458
aS'http://www.tripadvisor.com/ShowUserReviews-g147399-d254897-r8263468-Beaches_Turks_and_Caicos_Resort_Villages_and_Spa-Providenciales_Turks_and_Caicos.html'
p1459
aS'2015-06-24 22:19:43.613588'
p1460
aa(lp1461
I1
aI205
aI00
ag50
aI5
aI2
aI5
aI14
aI1
aI0
ag8
ag37
((lp1462
g10
ag16
atRp1463
ag37
((lp1464
g10
ag16
ag9
ag11
ag12
atRp1465
aS'http://www.tripadvisor.com/ShowUserReviews-g147399-d254897-r252321131-Beaches_Turks_and_Caicos_Resort_Villages_and_Spa-Providenciales_Turks_and_Caicos.html'
p1466
aS'2015-06-24 22:19:44.767247'
p1467
aa(lp1468
I1
aI206
aI00
ag50
aI5
aI0
aI5
aI20
aI1
aI0
ag8
ag37
((ltRp1469
ag37
((lp1470
g10
ag16
ag9
ag11
ag12
atRp1471
aS'http://www.tripadvisor.com/ShowUserReviews-g147399-d254897-r81365965-Beaches_Turks_and_Caicos_Resort_Villages_and_Spa-Providenciales_Turks_and_Caicos.html'
p1472
aS'2015-06-24 22:19:45.912953'
p1473
aa(lp1474
I1
aI207
aI00
ag50
aI5
aI2
aI5
aI15
aI1
aI0
ag8
ag37
((lp1475
g10
ag11
atRp1476
ag37
((lp1477
g10
ag16
ag9
ag11
ag12
atRp1478
aS'http://www.tripadvisor.com/ShowUserReviews-g147389-d149860-r214908369-Maracas_Bay-Port_of_Spain_Trinidad_Trinidad_and_Tobago.html'
p1479
aS'2015-06-24 22:19:47.072636'
p1480
aa(lp1481
I1
aI208
aI00
ag50
aI5
aI1
aI5
aI20
aI1
aI0
ag8
ag37
((lp1482
g12
atRp1483
ag37
((lp1484
g10
ag16
ag9
ag11
ag12
atRp1485
aS'http://www.homeaway.com/vacation-rental/p77113'
p1486
aS'2015-06-24 22:19:52.986345'
p1487
aa(lp1488
I1
aI209
aI00
ag50
aI5
aI2
aI5
aI17
aI1
aI0
ag8
ag37
((lp1489
g10
ag11
atRp1490
ag37
((lp1491
g10
ag16
ag9
ag11
ag12
atRp1492
aS'http://www.myrtlebeach.com/hotels/ocean-forest-villas/'
p1493
aS'2015-06-24 22:19:54.941515'
p1494
aa(lp1495
I1
aI210
aI00
ag50
aI5
aI2
aI5
aI22
aI1
aI0
ag8
ag37
((lp1496
g10
ag16
atRp1497
ag37
((lp1498
g10
ag16
ag9
ag11
ag12
atRp1499
aS'http://www.homeaway.com/vacation-rental/p138802'
p1500
aS'2015-06-24 22:19:58.050764'
p1501
aa(lp1502
I1
aI211
aI00
ag50
aI5
aI2
aI5
aI17
aI1
aI0
ag8
ag37
((lp1503
g16
ag12
atRp1504
ag37
((lp1505
g10
ag16
ag9
ag11
ag12
atRp1506
aS'http://www.homeaway.com/vacation-rental/p866616'
p1507
aS'2015-06-24 22:20:00.606046'
p1508
aa(lp1509
I1
aI212
aI00
ag50
aI5
aI0
aI5
aI16
aI1
aI0
ag8
ag37
((ltRp1510
ag37
((lp1511
g10
ag16
ag9
ag11
ag12
atRp1512
aS'http://www.homeaway.com/vacation-rental/p5875'
p1513
aS'2015-06-24 22:20:02.696467'
p1514
aa(lp1515
I1
aI213
aI00
ag50
aI5
aI2
aI5
aI19
aI1
aI0
ag8
ag37
((lp1516
g10
ag12
atRp1517
ag37
((lp1518
g10
ag16
ag9
ag11
ag12
atRp1519
aS'http://www.tripadvisor.com/ShowUserReviews-g147399-d254897-r82249196-Beaches_Turks_and_Caicos_Resort_Villages_and_Spa-Providenciales_Turks_and_Caicos.html'
p1520
aS'2015-06-24 22:20:04.172243'
p1521
aa(lp1522
I1
aI214
aI00
ag50
aI5
aI2
aI4
aI13
aI1
aI0
ag8
ag37
((lp1523
g11
ag12
atRp1524
ag37
((lp1525
g10
ag9
ag11
ag12
atRp1526
aS'http://www.tripadvisor.com/ShowUserReviews-g644121-d1140513-r116252015-Ibis_Bayeux_Port_en_Bessin-Port_en_Bessin_Huppain_Calvados_Basse_Normandie_Norma.html'
p1527
aS'2015-06-24 22:20:05.365810'
p1528
aa(lp1529
I1
aI215
aI00
ag50
aI5
aI2
aI5
aI14
aI1
aI0
ag8
ag37
((lp1530
g9
ag11
atRp1531
ag37
((lp1532
g10
ag16
ag9
ag11
ag12
atRp1533
aS'http://www.tripadvisor.com/ShowUserReviews-g147399-d254897-r3677223-Beaches_Turks_and_Caicos_Resort_Villages_and_Spa-Providenciales_Turks_and_Caicos.html'
p1534
aS'2015-06-24 22:20:06.546268'
p1535
aa(lp1536
I1
aI216
aI00
ag50
aI5
aI3
aI5
aI16
aI1
aI0
ag8
ag37
((lp1537
g10
ag11
ag12
atRp1538
ag37
((lp1539
g10
ag16
ag9
ag11
ag12
atRp1540
aS'http://www.tripadvisor.com/ShowUserReviews-g147399-d254897-r255819052-Beaches_Turks_and_Caicos_Resort_Villages_and_Spa-Providenciales_Turks_and_Caicos.html'
p1541
aS'2015-06-24 22:20:07.682294'
p1542
aa(lp1543
I1
aI217
aI00
ag50
aI5
aI2
aI5
aI19
aI1
aI0
ag8
ag37
((lp1544
g16
ag11
atRp1545
ag37
((lp1546
g10
ag16
ag9
ag11
ag12
atRp1547
aS'http://www.tripadvisor.com/ShowUserReviews-g1184698-d651208-r128224091-The_Verandah_Resort_Spa-Saint_Philip_Saint_Phillip_Parish_Antigua_Antigua_and_Ba.html'
p1548
aS'2015-06-24 22:20:08.771372'
p1549
aa(lp1550
I1
aI218
aI00
ag50
aI5
aI1
aI5
aI18
aI1
aI0
ag8
ag37
((lp1551
g16
atRp1552
ag37
((lp1553
g10
ag16
ag9
ag11
ag12
atRp1554
aS'http://www.tripadvisor.com/ShowUserReviews-g1993121-d148874-r263746491-Beaches_Ocho_Rios_Resort_Golf_Club-Boscobel_Saint_Mary_Parish_Jamaica.html'
p1555
aS'2015-06-24 22:20:09.810021'
p1556
aa(lp1557
I1
aI219
aI00
ag50
aI5
aI0
aI0
aI2
aI1
aI0
ag8
ag37
((ltRp1558
ag37
((ltRp1559
aS'http://www.experiencekissimmee.com/things-to-do/activities/golf/'
p1560
aS'2015-06-24 22:20:10.792933'
p1561
aa(lp1562
I1
aI220
aI00
ag50
aI5
aI0
aI5
aI19
aI1
aI0
ag8
ag37
((ltRp1563
ag37
((lp1564
g10
ag16
ag9
ag11
ag12
atRp1565
aS'http://www.tripadvisor.com/ShowUserReviews-g147399-d254897-r261154031-Beaches_Turks_and_Caicos_Resort_Villages_and_Spa-Providenciales_Turks_and_Caicos.html'
p1566
aS'2015-06-24 22:20:14.419070'
p1567
aa(lp1568
I1
aI221
aI00
ag50
aI5
aI1
aI1
aI3
aI1
aI0
ag8
ag37
((lp1569
Vbeaches
p1570
atRp1571
ag37
((lp1572
g1570
atRp1573
aS'http://www.tripadvisor.com/ShowUserReviews-g147399-d254897-r203658262-Beaches_Turks_and_Caicos_Resort_Villages_and_Spa-Providenciales_Turks_and_Caicos.html'
p1574
aS'2015-06-24 22:20:14.924758'
p1575
aa(lp1576
I1
aI222
aI00
ag50
aI5
aI3
aI5
aI19
aI1
aI0
ag8
ag37
((lp1577
g10
ag11
ag12
atRp1578
ag37
((lp1579
g10
ag16
ag9
ag11
ag12
atRp1580
aS'http://www.tripadvisor.com/ShowUserReviews-g147399-d254897-r208890986-Beaches_Turks_and_Caicos_Resort_Villages_and_Spa-Providenciales_Turks_and_Caicos.html'
p1581
aS'2015-06-24 22:20:16.076165'
p1582
aa(lp1583
I1
aI223
aI00
ag50
aI5
aI1
aI5
aI16
aI1
aI0
ag8
ag37
((lp1584
g12
atRp1585
ag37
((lp1586
g10
ag16
ag9
ag11
ag12
atRp1587
aS'http://www.tripadvisor.com/ShowUserReviews-g147399-d254897-r145470792-Beaches_Turks_and_Caicos_Resort_Villages_and_Spa-Providenciales_Turks_and_Caicos.html'
p1588
aS'2015-06-24 22:20:17.223877'
p1589
aa(lp1590
I1
aI224
aI00
ag50
aI5
aI0
aI5
aI20
aI1
aI0
ag8
ag37
((ltRp1591
ag37
((lp1592
g10
ag16
ag9
ag11
ag12
atRp1593
aS'http://www.tripadvisor.com/ShowUserReviews-g147399-d254897-r196023471-Beaches_Turks_and_Caicos_Resort_Villages_and_Spa-Providenciales_Turks_and_Caicos.html'
p1594
aS'2015-06-24 22:20:18.367089'
p1595
aa(lp1596
I1
aI225
aI00
ag50
aI5
aI3
aI5
aI14
aI1
aI0
ag8
ag37
((lp1597
g10
ag16
ag11
atRp1598
ag37
((lp1599
g10
ag16
ag9
ag11
ag12
atRp1600
aS'https://www.pinterest.com/janthephotoman/portraits-par-excellence/'
p1601
aS'2015-06-24 22:20:22.014638'
p1602
aa(lp1603
I1
aI226
aI00
ag50
aI5
aI4
aI5
aI11
aI1
aI0
ag8
ag37
((lp1604
g10
ag16
ag11
ag12
atRp1605
ag37
((lp1606
g10
ag16
ag9
ag11
ag12
atRp1607
aS'https://www.pinterest.com/sweetbonnieblue/lustres-luminaires-et-bougies/'
p1608
aS'2015-06-24 22:20:25.481874'
p1609
aa(lp1610
I1
aI227
aI00
ag50
aI5
aI3
aI5
aI17
aI1
aI0
ag8
ag37
((lp1611
g16
ag9
ag11
atRp1612
ag37
((lp1613
g10
ag16
ag9
ag11
ag12
atRp1614
aS'http://www.homeaway.com/vacation-rental/p409948'
p1615
aS'2015-06-24 22:20:28.097834'
p1616
aa(lp1617
I1
aI228
aI00
ag50
aI5
aI1
aI5
aI16
aI1
aI0
ag8
ag37
((lp1618
g10
atRp1619
ag37
((lp1620
g10
ag16
ag9
ag11
ag12
atRp1621
aS'http://www.homeaway.com/vacation-rental/p845345a'
p1622
aS'2015-06-24 22:20:30.060715'
p1623
aa(lp1624
I1
aI229
aI00
ag50
aI5
aI0
aI5
aI19
aI1
aI0
ag8
ag37
((ltRp1625
ag37
((lp1626
g10
ag16
ag9
ag11
ag12
atRp1627
aS'http://www.homeaway.com/vacation-rental/p601080a'
p1628
aS'2015-06-24 22:20:32.241061'
p1629
aa(lp1630
I1
aI230
aI00
ag50
aI5
aI3
aI5
aI19
aI1
aI0
ag8
ag37
((lp1631
g10
ag11
ag12
atRp1632
ag37
((lp1633
g10
ag16
ag9
ag11
ag12
atRp1634
aS'http://www.homeaway.com/vacation-rental/p838172'
p1635
aS'2015-06-24 22:20:36.043161'
p1636
aa(lp1637
I1
aI231
aI00
ag50
aI5
aI3
aI5
aI16
aI1
aI0
ag8
ag37
((lp1638
g10
ag9
ag12
atRp1639
ag37
((lp1640
g10
ag16
ag9
ag11
ag12
atRp1641
aS'http://www.homeaway.com/vacation-rental/p169114'
p1642
aS'2015-06-24 22:20:37.934114'
p1643
aa(lp1644
I1
aI232
aI00
ag50
aI5
aI3
aI5
aI18
aI1
aI0
ag8
ag37
((lp1645
g10
ag9
ag12
atRp1646
ag37
((lp1647
g10
ag16
ag9
ag11
ag12
atRp1648
aS'http://www.homeaway.com/vacation-rental/p59551'
p1649
aS'2015-06-24 22:20:39.800128'
p1650
aa(lp1651
I1
aI233
aI00
ag50
aI5
aI3
aI5
aI17
aI1
aI0
ag8
ag37
((lp1652
g16
ag11
ag12
atRp1653
ag37
((lp1654
g10
ag16
ag9
ag11
ag12
atRp1655
aS'http://www.homeaway.com/vacation-rental/p90465'
p1656
aS'2015-06-24 22:20:41.800329'
p1657
aa(lp1658
I1
aI234
aI00
ag50
aI5
aI1
aI5
aI18
aI1
aI0
ag8
ag37
((lp1659
g9
atRp1660
ag37
((lp1661
g10
ag16
ag9
ag11
ag12
atRp1662
aS'http://www.tripadvisor.com/ShowUserReviews-g147399-d254897-r258551267-Beaches_Turks_and_Caicos_Resort_Villages_and_Spa-Providenciales_Turks_and_Caicos.html'
p1663
aS'2015-06-24 22:20:43.291477'
p1664
aa(lp1665
I1
aI235
aI00
ag50
aI5
aI2
aI5
aI18
aI1
aI0
ag8
ag37
((lp1666
g10
ag11
atRp1667
ag37
((lp1668
g10
ag16
ag9
ag11
ag12
atRp1669
aS'http://www.tripadvisor.com/ShowUserReviews-g147399-d254897-r119897966-Beaches_Turks_and_Caicos_Resort_Villages_and_Spa-Providenciales_Turks_and_Caicos.html'
p1670
aS'2015-06-24 22:20:44.533854'
p1671
aa(lp1672
I1
aI236
aI00
ag50
aI5
aI2
aI5
aI16
aI1
aI0
ag8
ag37
((lp1673
g10
ag16
atRp1674
ag37
((lp1675
g10
ag16
ag9
ag11
ag12
atRp1676
aS'http://www.tripadvisor.com/ShowUserReviews-g147399-d254897-r134242065-Beaches_Turks_and_Caicos_Resort_Villages_and_Spa-Providenciales_Turks_and_Caicos.html'
p1677
aS'2015-06-24 22:20:45.733230'
p1678
aa(lp1679
I1
aI237
aI00
ag50
aI5
aI1
aI5
aI20
aI1
aI0
ag8
ag37
((lp1680
g11
atRp1681
ag37
((lp1682
g10
ag16
ag9
ag11
ag12
atRp1683
aS'http://www.tripadvisor.com/ShowUserReviews-g147399-d254897-r194160985-Beaches_Turks_and_Caicos_Resort_Villages_and_Spa-Providenciales_Turks_and_Caicos.html'
p1684
aS'2015-06-24 22:20:46.945429'
p1685
aa(lp1686
I1
aI238
aI00
ag50
aI5
aI1
aI5
aI17
aI1
aI0
ag8
ag37
((lp1687
g12
atRp1688
ag37
((lp1689
g10
ag16
ag9
ag11
ag12
atRp1690
aS'http://www.tripadvisor.com/ShowUserReviews-g34097-d3307963-r248700005-Bradenton_Beach-Bradenton_Beach_Anna_Maria_Island_Florida.html'
p1691
aS'2015-06-24 22:20:48.382282'
p1692
aa(lp1693
I1
aI239
aI00
ag50
aI5
aI2
aI5
aI22
aI1
aI0
ag8
ag37
((lp1694
g16
ag11
atRp1695
ag37
((lp1696
g10
ag16
ag9
ag11
ag12
atRp1697
aS'http://www.tripadvisor.com/ShowUserReviews-g147293-d508162-r266706936-Dreams_Punta_Cana_Resort_Spa-Punta_Cana_La_Altagracia_Province_Dominican_Republic.html'
p1698
aS'2015-06-24 22:20:49.688059'
p1699
aa(lp1700
I1
aI240
aI00
ag50
aI5
aI1
aI5
aI18
aI1
aI0
ag8
ag37
((lp1701
g11
atRp1702
ag37
((lp1703
g10
ag16
ag9
ag11
ag12
atRp1704
aS'http://www.homeaway.com/vacation-rental/p487074'
p1705
aS'2015-06-24 22:20:52.765728'
p1706
aa(lp1707
I1
aI241
aI00
ag50
aI5
aI1
aI5
aI18
aI1
aI0
ag8
ag37
((lp1708
g16
atRp1709
ag37
((lp1710
g10
ag16
ag9
ag11
ag12
atRp1711
aS'http://www.homeaway.com/vacation-rental/p6674450'
p1712
aS'2015-06-24 22:20:55.284134'
p1713
aa(lp1714
I1
aI242
aI00
ag50
aI5
aI1
aI5
aI16
aI1
aI0
ag8
ag37
((lp1715
g11
atRp1716
ag37
((lp1717
g10
ag16
ag9
ag11
ag12
atRp1718
aS'http://www.homeaway.com/vacation-rental/p554'
p1719
aS'2015-06-24 22:20:57.558126'
p1720
aa(lp1721
I1
aI243
aI00
ag50
aI5
aI2
aI5
aI15
aI1
aI0
ag8
ag37
((lp1722
g16
ag9
atRp1723
ag37
((lp1724
g10
ag16
ag9
ag11
ag12
atRp1725
aS'http://www.homeaway.com/vacation-rental/p635406a'
p1726
aS'2015-06-24 22:20:59.759206'
p1727
aa(lp1728
I1
aI244
aI00
ag50
aI5
aI2
aI5
aI21
aI1
aI0
ag8
ag37
((lp1729
g10
ag11
atRp1730
ag37
((lp1731
g10
ag16
ag9
ag11
ag12
atRp1732
aS'http://www.homeaway.com/vacation-rental/p113802'
p1733
aS'2015-06-24 22:21:01.559029'
p1734
aa(lp1735
I1
aI245
aI00
ag50
aI5
aI0
aI5
aI20
aI1
aI0
ag8
ag37
((ltRp1736
ag37
((lp1737
g10
ag16
ag9
ag11
ag12
atRp1738
aS'http://www.tripadvisor.com/ShowUserReviews-g147399-d254897-r3986132-Beaches_Turks_and_Caicos_Resort_Villages_and_Spa-Providenciales_Turks_and_Caicos.html'
p1739
aS'2015-06-24 22:21:03.014018'
p1740
aa(lp1741
I1
aI246
aI00
ag50
aI5
aI1
aI5
aI21
aI1
aI0
ag8
ag37
((lp1742
g11
atRp1743
ag37
((lp1744
g10
ag16
ag9
ag11
ag12
atRp1745
aS'http://www.tripadvisor.com/ShowUserReviews-g147399-d254897-r70777765-Beaches_Turks_and_Caicos_Resort_Villages_and_Spa-Providenciales_Turks_and_Caicos.html'
p1746
aS'2015-06-24 22:21:04.199033'
p1747
aa(lp1748
I1
aI247
aI00
ag50
aI5
aI1
aI5
aI17
aI1
aI0
ag8
ag37
((lp1749
g10
atRp1750
ag37
((lp1751
g10
ag16
ag9
ag11
ag12
atRp1752
aS'http://www.tripadvisor.com/ShowUserReviews-g147399-d254897-r260825917-Beaches_Turks_and_Caicos_Resort_Villages_and_Spa-Providenciales_Turks_and_Caicos.html'
p1753
aS'2015-06-24 22:21:05.359605'
p1754
aa(lp1755
I1
aI248
aI00
ag50
aI5
aI1
aI5
aI19
aI1
aI0
ag8
ag37
((lp1756
g12
atRp1757
ag37
((lp1758
g10
ag16
ag9
ag11
ag12
atRp1759
aS'http://www.tripadvisor.com/ShowUserReviews-g187234-d231038-r165196263-AC_Hotel_Nice-Nice_French_Riviera_Cote_d_Azur_Provence.html'
p1760
aS'2015-06-24 22:21:06.470787'
p1761
aa(lp1762
I1
aI249
aI00
ag50
aI5
aI2
aI5
aI16
aI1
aI0
ag8
ag37
((lp1763
g10
ag9
atRp1764
ag37
((lp1765
g10
ag16
ag9
ag11
ag12
atRp1766
aS'https://www.pinterest.com/nataliewilmowsk/duck-egg/'
p1767
aS'2015-06-24 22:21:09.545511'
p1768
aa(lp1769
I1
aI250
aI00
ag50
aI5
aI0
aI4
aI17
aI1
aI0
ag8
ag37
((ltRp1770
ag37
((lp1771
g10
ag9
ag11
ag12
atRp1772
aS'http://www.tripadvisor.com/ShowUserReviews-g147399-d254897-r261321950-Beaches_Turks_and_Caicos_Resort_Villages_and_Spa-Providenciales_Turks_and_Caicos.html'
p1773
aS'2015-06-24 22:21:13.207205'
p1774
aa(lp1775
I1
aI251
aI00
ag50
aI5
aI2
aI5
aI13
aI1
aI0
ag8
ag37
((lp1776
g16
ag12
atRp1777
ag37
((lp1778
g10
ag16
ag9
ag11
ag12
atRp1779
aS'http://www.tripadvisor.com/Attraction_Review-g34530-d531878-Reviews-The_Breakers-Palm_Beach_Florida.html'
p1780
aS'2015-06-24 22:21:14.618192'
p1781
aa(lp1782
I1
aI252
aI00
ag50
aI5
aI2
aI5
aI18
aI1
aI0
ag8
ag37
((lp1783
g16
ag11
atRp1784
ag37
((lp1785
g10
ag16
ag9
ag11
ag12
atRp1786
aS'http://www.tripadvisor.com/ShowUserReviews-g147311-d147499-r7848350-Doctor_s_Cave_Beach-Montego_Bay_Saint_James_Parish_Jamaica.html'
p1787
aS'2015-06-24 22:21:16.003877'
p1788
aa(lp1789
I1
aI253
aI00
ag50
aI5
aI1
aI5
aI23
aI1
aI0
ag8
ag37
((lp1790
g9
atRp1791
ag37
((lp1792
g10
ag16
ag9
ag11
ag12
atRp1793
aS'http://www.tripadvisor.com/ShowUserReviews-g147293-d578371-r96525176-Majestic_Colonial_Punta_Cana-Punta_Cana_La_Altagracia_Province_Dominican_Republic.html'
p1794
aS'2015-06-24 22:21:17.540753'
p1795
aa(lp1796
I1
aI254
aI00
ag50
aI5
aI1
aI5
aI19
aI1
aI0
ag8
ag37
((lp1797
g16
atRp1798
ag37
((lp1799
g10
ag16
ag9
ag11
ag12
atRp1800
aS'http://www.tripadvisor.com/ShowUserReviews-g147399-d254897-r195275802-Beaches_Turks_and_Caicos_Resort_Villages_and_Spa-Providenciales_Turks_and_Caicos.html'
p1801
aS'2015-06-24 22:21:18.774197'
p1802
aa(lp1803
I1
aI255
aI00
ag50
aI5
aI2
aI5
aI17
aI1
aI0
ag8
ag37
((lp1804
g10
ag16
atRp1805
ag37
((lp1806
g10
ag16
ag9
ag11
ag12
atRp1807
aS'http://www.tripadvisor.com/ShowUserReviews-g147399-d254897-r279134793-Beaches_Turks_and_Caicos_Resort_Villages_and_Spa-Providenciales_Turks_and_Caicos.html'
p1808
aS'2015-06-24 22:21:20.011716'
p1809
aa(lp1810
I1
aI256
aI00
ag50
aI5
aI0
aI5
aI19
aI1
aI0
ag8
ag37
((ltRp1811
ag37
((lp1812
g10
ag16
ag9
ag11
ag12
atRp1813
aS'http://www.tripadvisor.com/ShowUserReviews-g147399-d254897-r140871964-Beaches_Turks_and_Caicos_Resort_Villages_and_Spa-Providenciales_Turks_and_Caicos.html'
p1814
aS'2015-06-24 22:21:21.245904'
p1815
aa(lp1816
I1
aI257
aI00
ag50
aI5
aI3
aI5
aI18
aI1
aI0
ag8
ag37
((lp1817
g10
ag9
ag12
atRp1818
ag37
((lp1819
g10
ag16
ag9
ag11
ag12
atRp1820
aS'http://www.homeaway.com/vacation-rental/p834013'
p1821
aS'2015-06-24 22:21:22.409187'
p1822
aa(lp1823
I1
aI258
aI00
ag50
aI5
aI2
aI5
aI18
aI1
aI0
ag8
ag37
((lp1824
g9
ag12
atRp1825
ag37
((lp1826
g10
ag16
ag9
ag11
ag12
atRp1827
aS'http://www.homeaway.com/vacation-rental/p148316'
p1828
aS'2015-06-24 22:21:24.327878'
p1829
aa(lp1830
I1
aI259
aI00
ag50
aI5
aI2
aI5
aI15
aI1
aI0
ag8
ag37
((lp1831
g16
ag11
atRp1832
ag37
((lp1833
g10
ag16
ag9
ag11
ag12
atRp1834
aS'https://www.pinterest.com/rsafti/la-maison-d%C3%A9t%C3%A9-by-safti/'
p1835
aS'2015-06-24 22:21:27.256136'
p1836
aa(lp1837
I1
aI260
aI00
ag50
aI5
aI3
aI5
aI17
aI1
aI0
ag8
ag37
((lp1838
g10
ag11
ag12
atRp1839
ag37
((lp1840
g10
ag16
ag9
ag11
ag12
atRp1841
aS'http://www.tripadvisor.com/ShowUserReviews-g147399-d254897-r170016357-Beaches_Turks_and_Caicos_Resort_Villages_and_Spa-Providenciales_Turks_and_Caicos.html'
p1842
aS'2015-06-24 22:21:31.033164'
p1843
aa(lp1844
I1
aI261
aI00
ag50
aI5
aI3
aI5
aI14
aI1
aI0
ag8
ag37
((lp1845
g16
ag9
ag12
atRp1846
ag37
((lp1847
g10
ag16
ag9
ag11
ag12
atRp1848
aS'http://www.tripadvisor.com/Hotel_Review-g196642-d196958-Reviews-Le_Grand_Hotel_Cabourg_MGallery_Collection-Cabourg_Calvados_Basse_Normandie_Normandy.html'
p1849
aS'2015-06-24 22:21:32.627470'
p1850
aa(lp1851
I1
aI262
aI00
ag50
aI5
aI2
aI5
aI15
aI1
aI0
ag8
ag37
((lp1852
g9
ag12
atRp1853
ag37
((lp1854
g10
ag16
ag9
ag11
ag12
atRp1855
aS'http://www.tripadvisor.com/ShowUserReviews-g147399-d254897-r270386651-Beaches_Turks_and_Caicos_Resort_Villages_and_Spa-Providenciales_Turks_and_Caicos.html'
p1856
aS'2015-06-24 22:21:33.233668'
p1857
aa(lp1858
I1
aI263
aI00
ag50
aI5
aI0
aI5
aI18
aI1
aI0
ag8
ag37
((ltRp1859
ag37
((lp1860
g10
ag16
ag9
ag11
ag12
atRp1861
aS'http://www.tripadvisor.com/ShowUserReviews-g147399-d254897-r195254851-Beaches_Turks_and_Caicos_Resort_Villages_and_Spa-Providenciales_Turks_and_Caicos.html'
p1862
aS'2015-06-24 22:21:34.464421'
p1863
aa(lp1864
I1
aI264
aI00
ag50
aI5
aI2
aI5
aI17
aI1
aI0
ag8
ag37
((lp1865
g16
ag9
atRp1866
ag37
((lp1867
g10
ag16
ag9
ag11
ag12
atRp1868
aS'http://www.tripadvisor.com/ShowUserReviews-g187229-d313445-r135141637-Les_Strelitzias-Juan_les_Pins_Antibes_French_Riviera_Cote_d_Azur_Provence.html'
p1869
aS'2015-06-24 22:21:35.668011'
p1870
aa(lp1871
I1
aI265
aI00
ag50
aI5
aI1
aI5
aI21
aI1
aI0
ag8
ag37
((lp1872
g11
atRp1873
ag37
((lp1874
g10
ag16
ag9
ag11
ag12
atRp1875
aS'http://www.tripadvisor.com/ShowUserReviews-g147399-d254897-r133880611-Beaches_Turks_and_Caicos_Resort_Villages_and_Spa-Providenciales_Turks_and_Caicos.html'
p1876
aS'2015-06-24 22:21:36.893266'
p1877
aa(lp1878
I1
aI266
aI00
ag50
aI5
aI1
aI5
aI20
aI1
aI0
ag8
ag37
((lp1879
g10
atRp1880
ag37
((lp1881
g10
ag16
ag9
ag11
ag12
atRp1882
aS'http://www.tripadvisor.com/ShowUserReviews-g147399-d254897-r261136152-Beaches_Turks_and_Caicos_Resort_Villages_and_Spa-Providenciales_Turks_and_Caicos.html'
p1883
aS'2015-06-24 22:21:38.068733'
p1884
aa(lp1885
I1
aI267
aI00
ag50
aI5
aI2
aI5
aI16
aI1
aI0
ag8
ag37
((lp1886
g10
ag11
atRp1887
ag37
((lp1888
g10
ag16
ag9
ag11
ag12
atRp1889
aS'http://www.tripadvisor.com/ShowUserReviews-g147399-d254897-r228851907-Beaches_Turks_and_Caicos_Resort_Villages_and_Spa-Providenciales_Turks_and_Caicos.html'
p1890
aS'2015-06-24 22:21:38.603475'
p1891
aa(lp1892
I1
aI268
aI00
ag50
aI5
aI2
aI5
aI17
aI1
aI0
ag8
ag37
((lp1893
g10
ag12
atRp1894
ag37
((lp1895
g10
ag16
ag9
ag11
ag12
atRp1896
aS'http://www.tripadvisor.com/ShowUserReviews-g147399-d254897-r216432109-Beaches_Turks_and_Caicos_Resort_Villages_and_Spa-Providenciales_Turks_and_Caicos.html'
p1897
aS'2015-06-24 22:21:39.713984'
p1898
aa(lp1899
I1
aI269
aI00
ag50
aI5
aI2
aI5
aI15
aI1
aI0
ag8
ag37
((lp1900
g10
ag12
atRp1901
ag37
((lp1902
g10
ag16
ag9
ag11
ag12
atRp1903
aS'http://www.homeaway.com/vacation-rental/p6350405'
p1904
aS'2015-06-24 22:21:42.178957'
p1905
aa(lp1906
I1
aI270
aI00
ag50
aI5
aI0
aI5
aI21
aI1
aI0
ag8
ag37
((ltRp1907
ag37
((lp1908
g10
ag16
ag9
ag11
ag12
atRp1909
aS'http://www.homeaway.com/vacation-rental/p801874'
p1910
aS'2015-06-24 22:21:46.873210'
p1911
aa(lp1912
I1
aI271
aI00
ag50
aI5
aI0
aI5
aI15
aI1
aI0
ag8
ag37
((ltRp1913
ag37
((lp1914
g10
ag16
ag9
ag11
ag12
atRp1915
aS'http://www.homeaway.com/vacation-rental/p602032a'
p1916
aS'2015-06-24 22:21:48.889579'
p1917
aa(lp1918
I1
aI272
aI00
ag50
aI5
aI2
aI5
aI17
aI1
aI0
ag8
ag37
((lp1919
g10
ag9
atRp1920
ag37
((lp1921
g10
ag16
ag9
ag11
ag12
atRp1922
aS'http://www.homeaway.com/vacation-rental/p750519'
p1923
aS'2015-06-24 22:21:54.000701'
p1924
aa(lp1925
I1
aI273
aI00
ag50
aI5
aI2
aI5
aI19
aI1
aI0
ag8
ag37
((lp1926
g16
ag12
atRp1927
ag37
((lp1928
g10
ag16
ag9
ag11
ag12
atRp1929
aS'http://www.homeaway.com/vacation-rental/p380523'
p1930
aS'2015-06-24 22:21:56.432996'
p1931
aa(lp1932
I1
aI274
aI00
ag50
aI5
aI0
aI5
aI18
aI1
aI0
ag8
ag37
((ltRp1933
ag37
((lp1934
g10
ag16
ag9
ag11
ag12
atRp1935
aS'http://www.homeaway.com/vacation-rental/p630289a'
p1936
aS'2015-06-24 22:21:58.515884'
p1937
aa(lp1938
I1
aI275
aI00
ag50
aI5
aI2
aI5
aI18
aI1
aI0
ag8
ag37
((lp1939
g10
ag11
atRp1940
ag37
((lp1941
g10
ag16
ag9
ag11
ag12
atRp1942
aS'http://www.homeaway.com/vacation-rental/p83455'
p1943
aS'2015-06-24 22:22:00.540839'
p1944
aa(lp1945
I1
aI276
aI00
ag50
aI5
aI1
aI5
aI16
aI1
aI0
ag8
ag37
((lp1946
g12
atRp1947
ag37
((lp1948
g10
ag16
ag9
ag11
ag12
atRp1949
aS'http://www.tripadvisor.com/ShowUserReviews-g147399-d1395227-r197900701-Gansevoort_Turks_Caicos-Providenciales_Turks_and_Caicos.html'
p1950
aS'2015-06-24 22:22:02.288188'
p1951
aa(lp1952
I1
aI277
aI00
ag50
aI5
aI3
aI5
aI11
aI1
aI0
ag8
ag37
((lp1953
g10
ag16
ag9
atRp1954
ag37
((lp1955
g10
ag16
ag9
ag11
ag12
atRp1956
aS'http://www.tripadvisor.com/Hotel_Review-g303906-d552784-Reviews-Libong_Beach_Resort-Ko_Libong_Trang_Province.html'
p1957
aS'2015-06-24 22:22:03.689023'
p1958
aa(lp1959
I1
aI278
aI00
ag50
aI5
aI2
aI5
aI19
aI1
aI0
ag8
ag37
((lp1960
g9
ag12
atRp1961
ag37
((lp1962
g10
ag16
ag9
ag11
ag12
atRp1963
aS'http://www.tripadvisor.com/ShowUserReviews-g147293-d218486-r38887132-Barcelo_Dominican_Beach-Punta_Cana_La_Altagracia_Province_Dominican_Republic.html'
p1964
aS'2015-06-24 22:22:05.009646'
p1965
aa(lp1966
I1
aI279
aI00
ag50
aI5
aI3
aI5
aI18
aI1
aI0
ag8
ag37
((lp1967
g10
ag16
ag11
atRp1968
ag37
((lp1969
g10
ag16
ag9
ag11
ag12
atRp1970
aS'http://www.tripadvisor.com/ShowUserReviews-g147311-d147499-r6083793-Doctor_s_Cave_Beach-Montego_Bay_Saint_James_Parish_Jamaica.html'
p1971
aS'2015-06-24 22:22:06.278415'
p1972
aa(lp1973
I1
aI280
aI00
ag50
aI5
aI4
aI5
aI15
aI1
aI0
ag8
ag37
((lp1974
g16
ag9
ag11
ag12
atRp1975
ag37
((lp1976
g10
ag16
ag9
ag11
ag12
atRp1977
aS'http://www.homeaway.com/vacation-rental/p422969'
p1978
aS'2015-06-24 22:22:10.899366'
p1979
aa(lp1980
I1
aI281
aI00
ag50
aI5
aI1
aI5
aI16
aI1
aI0
ag8
ag37
((lp1981
g16
atRp1982
ag37
((lp1983
g10
ag16
ag9
ag11
ag12
atRp1984
aS'http://www.homeaway.com/vacation-rental/p623231a'
p1985
aS'2015-06-24 22:22:12.904611'
p1986
aa(lp1987
I1
aI282
aI00
ag50
aI5
aI0
aI5
aI21
aI1
aI0
ag8
ag37
((ltRp1988
ag37
((lp1989
g10
ag16
ag9
ag11
ag12
atRp1990
aS'http://www.homeaway.com/vacation-rental/p54513'
p1991
aS'2015-06-24 22:22:14.854426'
p1992
aa(lp1993
I1
aI283
aI00
ag50
aI5
aI2
aI5
aI17
aI1
aI0
ag8
ag37
((lp1994
g10
ag9
atRp1995
ag37
((lp1996
g10
ag16
ag9
ag11
ag12
atRp1997
aS'http://www.homeaway.com/vacation-rental/p309456?flspusage=sp'
p1998
aS'2015-06-24 22:22:16.768822'
p1999
aa(lp2000
I1
aI284
aI00
ag50
aI5
aI2
aI5
aI15
aI1
aI0
ag8
ag37
((lp2001
g10
ag16
atRp2002
ag37
((lp2003
g10
ag16
ag9
ag11
ag12
atRp2004
aS'http://www.homeaway.com/vacation-rental/p403159'
p2005
aS'2015-06-24 22:22:18.453589'
p2006
aa(lp2007
I1
aI285
aI00
ag50
aI5
aI1
aI5
aI14
aI1
aI0
ag8
ag37
((lp2008
g11
atRp2009
ag37
((lp2010
g10
ag16
ag9
ag11
ag12
atRp2011
aS'http://www.homeaway.com/vacation-rental/p1098364'
p2012
aS'2015-06-24 22:22:20.303959'
p2013
aa(lp2014
I1
aI286
aI00
ag50
aI5
aI3
aI3
aI8
aI1
aI0
ag8
ag37
((lp2015
g16
ag11
ag12
atRp2016
ag37
((lp2017
g16
ag11
ag12
atRp2018
aS'https://www.facebook.com/EUinCanada'
p2019
aS'2015-06-24 22:22:22.079198'
p2020
aa(lp2021
I1
aI287
aI00
ag50
aI5
aI2
aI5
aI22
aI1
aI0
ag8
ag37
((lp2022
g10
ag11
atRp2023
ag37
((lp2024
g10
ag16
ag9
ag11
ag12
atRp2025
aS'http://www.tripadvisor.com/ShowUserReviews-g150812-d2064902-r282505108-Paradisus_Playa_del_Carmen_La_Perla-Playa_del_Carmen_Yucatan_Peninsula.html'
p2026
aS'2015-06-24 22:22:23.524256'
p2027
aa(lp2028
I1
aI288
aI00
ag50
aI5
aI1
aI5
aI17
aI1
aI0
ag8
ag37
((lp2029
g11
atRp2030
ag37
((lp2031
g10
ag16
ag9
ag11
ag12
atRp2032
aS'http://www.tripadvisor.com/ShowUserReviews-g147399-d254897-r127559458-Beaches_Turks_and_Caicos_Resort_Villages_and_Spa-Providenciales_Turks_and_Caicos.html'
p2033
aS'2015-06-24 22:22:24.725223'
p2034
aa(lp2035
I1
aI289
aI00
ag50
aI5
aI2
aI5
aI12
aI1
aI0
ag8
ag37
((lp2036
g10
ag16
atRp2037
ag37
((lp2038
g10
ag16
ag9
ag11
ag12
atRp2039
aS'http://www.tripadvisor.com/Attraction_Review-g147290-d4882767-Reviews-Malecon_Puerto_Plata-Puerto_Plata_Puerto_Plata_Province_Dominican_Republic.html'
p2040
aS'2015-06-24 22:22:26.159069'
p2041
aa(lp2042
I1
aI290
aI00
ag50
aI5
aI3
aI5
aI16
aI1
aI0
ag8
ag37
((lp2043
g9
ag11
ag12
atRp2044
ag37
((lp2045
g10
ag16
ag9
ag11
ag12
atRp2046
aS'http://www.homeaway.com/vacation-rental/p750506'
p2047
aS'2015-06-24 22:22:30.020003'
p2048
aa(lp2049
I1
aI291
aI00
ag50
aI5
aI1
aI5
aI16
aI1
aI0
ag8
ag37
((lp2050
g16
atRp2051
ag37
((lp2052
g10
ag16
ag9
ag11
ag12
atRp2053
aS'http://www.homeaway.com/vacation-rental/p239657'
p2054
aS'2015-06-24 22:22:32.285301'
p2055
aa(lp2056
I1
aI292
aI00
ag50
aI5
aI1
aI5
aI17
aI1
aI0
ag8
ag37
((lp2057
g11
atRp2058
ag37
((lp2059
g10
ag16
ag9
ag11
ag12
atRp2060
aS'http://www.homeaway.com/vacation-rental/p750526'
p2061
aS'2015-06-24 22:22:34.091676'
p2062
aa(lp2063
I1
aI293
aI00
ag50
aI5
aI1
aI5
aI17
aI1
aI0
ag8
ag37
((lp2064
g10
atRp2065
ag37
((lp2066
g10
ag16
ag9
ag11
ag12
atRp2067
aS'http://www.homeaway.com/vacation-rental/p2006842'
p2068
aS'2015-06-24 22:22:35.940144'
p2069
aa(lp2070
I1
aI294
aI00
ag50
aI5
aI3
aI4
aI11
aI1
aI0
ag8
ag37
((lp2071
g10
ag11
ag12
atRp2072
ag37
((lp2073
g10
ag9
ag11
ag12
atRp2074
aS'http://www.tripadvisor.com/Attraction_Review-g528745-d1755081-Reviews-San_Juan_del_Sur_Beach-San_Juan_del_Sur_Rivas_Department.html'
p2075
aS'2015-06-24 22:22:36.696173'
p2076
aa(lp2077
I1
aI295
aI00
ag50
aI5
aI2
aI5
aI20
aI1
aI0
ag8
ag37
((lp2078
g10
ag11
atRp2079
ag37
((lp2080
g10
ag16
ag9
ag11
ag12
atRp2081
aS'http://www.tripadvisor.com/ShowUserReviews-g663484-d1163459-r129257582-Dreams_La_Romana-Bayahibe_La_Altagracia_Province_Dominican_Republic.html'
p2082
aS'2015-06-24 22:22:38.219850'
p2083
aa(lp2084
I1
aI296
aI00
ag50
aI5
aI4
aI4
aI6
aI1
aI0
ag8
ag37
((lp2085
g10
ag16
ag11
ag12
atRp2086
ag37
((lp2087
g10
ag16
ag11
ag12
atRp2088
aS'http://french.fansshare.com/gallery/photos/14520689/winter-landscape-sweden-wallpaper-landscape/'
p2089
aS'2015-06-24 22:22:41.760156'
p2090
aa(lp2091
I1
aI297
aI00
ag50
aI5
aI1
aI5
aI14
aI1
aI0
ag8
ag37
((lp2092
g12
atRp2093
ag37
((lp2094
g10
ag16
ag9
ag11
ag12
atRp2095
aS'https://www.pinterest.com/KikiKincade/creepy-as-fuck/'
p2096
aS'2015-06-24 22:22:46.233200'
p2097
aa(lp2098
I1
aI298
aI00
ag50
aI5
aI3
aI4
aI8
aI1
aI0
ag8
ag37
((lp2099
g10
ag16
ag11
atRp2100
ag37
((lp2101
g10
ag16
ag9
ag11
atRp2102
aS'https://www.pinterest.com/loarzour/chevaux-livres/'
p2103
aS'2015-06-24 22:22:49.341055'
p2104
aa(lp2105
I1
aI299
aI00
ag50
aI5
aI3
aI5
aI13
aI1
aI0
ag8
ag37
((lp2106
g16
ag9
ag11
atRp2107
ag37
((lp2108
g10
ag16
ag9
ag11
ag12
atRp2109
aS'https://www.pinterest.com/dakeller/my-dream-home-is-shabby-2/'
p2110
aS'2015-06-24 22:22:52.407732'
p2111
aa(lp2112
I1
aI300
aI00
ag50
aI5
aI1
aI5
aI19
aI1
aI0
ag8
ag37
((lp2113
g16
atRp2114
ag37
((lp2115
g10
ag16
ag9
ag11
ag12
atRp2116
aS'http://www.homeaway.com/vacation-rental/p680999a'
p2117
aS'2015-06-24 22:22:56.508520'
p2118
aa(lp2119
I1
aI301
aI00
ag50
aI5
aI0
aI5
aI19
aI1
aI0
ag8
ag37
((ltRp2120
ag37
((lp2121
g10
ag16
ag9
ag11
ag12
atRp2122
aS'http://www.homeaway.com/vacation-rental/p1221114'
p2123
aS'2015-06-24 22:22:58.878834'
p2124
aa(lp2125
I1
aI302
aI00
ag50
aI5
aI1
aI5
aI16
aI1
aI0
ag8
ag37
((lp2126
g12
atRp2127
ag37
((lp2128
g10
ag16
ag9
ag11
ag12
atRp2129
aS'http://www.homeaway.com/vacation-rental/p10313'
p2130
aS'2015-06-24 22:23:00.720698'
p2131
aa(lp2132
I1
aI303
aI00
ag50
aI5
aI1
aI5
aI22
aI1
aI0
ag8
ag37
((lp2133
g12
atRp2134
ag37
((lp2135
g10
ag16
ag9
ag11
ag12
atRp2136
aS'http://www.homeaway.com/vacation-rental/p911888'
p2137
aS'2015-06-24 22:23:02.809814'
p2138
aa(lp2139
I1
aI304
aI00
ag50
aI5
aI1
aI5
aI16
aI1
aI0
ag8
ag37
((lp2140
g10
atRp2141
ag37
((lp2142
g10
ag16
ag9
ag11
ag12
atRp2143
aS'http://www.homeaway.com/vacation-rental/p8825'
p2144
aS'2015-06-24 22:23:04.820465'
p2145
aa(lp2146
I1
aI305
aI00
ag50
aI5
aI2
aI5
aI18
aI1
aI0
ag8
ag37
((lp2147
g16
ag12
atRp2148
ag37
((lp2149
g10
ag16
ag9
ag11
ag12
atRp2150
aS'http://www.tripadvisor.com/ShowUserReviews-g147290-d265694-r144586749-ClubHotel_Riu_Bachata-Puerto_Plata_Puerto_Plata_Province_Dominican_Republic.html'
p2151
aS'2015-06-24 22:23:06.366676'
p2152
aa(lp2153
I1
aI306
aI00
ag50
aI5
aI3
aI5
aI17
aI1
aI0
ag8
ag37
((lp2154
g16
ag9
ag11
atRp2155
ag37
((lp2156
g10
ag16
ag9
ag11
ag12
atRp2157
aS'http://www.tripadvisor.com/ShowUserReviews-g150807-d154897-r132203220-Omni_Cancun_Hotel_Villas-Cancun_Yucatan_Peninsula.html'
p2158
aS'2015-06-24 22:23:07.612876'
p2159
aa(lp2160
I1
aI307
aI00
ag50
aI5
aI1
aI5
aI18
aI1
aI0
ag8
ag37
((lp2161
g9
atRp2162
ag37
((lp2163
g10
ag16
ag9
ag11
ag12
atRp2164
aS'http://www.tripadvisor.com/ShowUserReviews-g304142-d1674695-r129909882-Turtle_Bay-Tangalle_Southern_Province.html'
p2165
aS'2015-06-24 22:23:08.807933'
p2166
aa(lp2167
I1
aI308
aI00
ag50
aI5
aI2
aI5
aI13
aI1
aI0
ag8
ag37
((lp2168
g16
ag12
atRp2169
ag37
((lp2170
g10
ag16
ag9
ag11
ag12
atRp2171
aS'http://www.tripadvisor.com/ShowUserReviews-g499396-d1064261-r196429225-Coco_Cay_Little_Stirrup_Cay-Berry_Islands_Out_Islands_Bahamas.html'
p2172
aS'2015-06-24 22:23:10.018219'
p2173
aa(lp2174
I1
aI309
aI00
ag50
aI5
aI2
aI5
aI17
aI1
aI0
ag8
ag37
((lp2175
g9
ag11
atRp2176
ag37
((lp2177
g10
ag16
ag9
ag11
ag12
atRp2178
aS'http://www.tripadvisor.com/ShowUserReviews-g147347-d151173-r28685406-Sonesta_Great_Bay_Beach_Resort_Casino_Spa-Philipsburg_Sint_Maarten_St_Maarten_St_M.html'
p2179
aS'2015-06-24 22:23:11.301696'
p2180
aa(lp2181
I1
aI310
aI00
ag50
aI5
aI3
aI5
aI11
aI1
aI0
ag8
ag37
((lp2182
g10
ag11
ag12
atRp2183
ag37
((lp2184
g10
ag16
ag9
ag11
ag12
atRp2185
aS'https://steamcommunity.com/app/263440/guides/?browsesort=mostrecent&browsefilter=mostrecent&p=1'
p2186
aS'2015-06-24 22:23:15.018870'
p2187
aa(lp2188
I1
aI311
aI00
ag50
aI5
aI2
aI5
aI18
aI1
aI0
ag8
ag37
((lp2189
g16
ag11
atRp2190
ag37
((lp2191
g10
ag16
ag9
ag11
ag12
atRp2192
aS'http://www.homeaway.com/vacation-rental/p3003285'
p2193
aS'2015-06-24 22:23:16.838715'
p2194
aa(lp2195
I1
aI312
aI00
ag50
aI5
aI3
aI5
aI19
aI1
aI0
ag8
ag37
((lp2196
g9
ag11
ag12
atRp2197
ag37
((lp2198
g10
ag16
ag9
ag11
ag12
atRp2199
aS'http://www.homeaway.com/vacation-rental/p298998'
p2200
aS'2015-06-24 22:23:18.838911'
p2201
aa(lp2202
I1
aI313
aI00
ag50
aI5
aI2
aI5
aI15
aI1
aI0
ag8
ag37
((lp2203
g10
ag11
atRp2204
ag37
((lp2205
g10
ag16
ag9
ag11
ag12
atRp2206
aS'http://www.homeaway.com/vacation-rental/p3684642'
p2207
aS'2015-06-24 22:23:20.414859'
p2208
aa(lp2209
I1
aI314
aI00
ag50
aI5
aI2
aI5
aI13
aI1
aI0
ag8
ag37
((lp2210
g9
ag11
atRp2211
ag37
((lp2212
g10
ag16
ag9
ag11
ag12
atRp2213
aS'http://www.homeaway.com/vacation-rental/p354915'
p2214
aS'2015-06-24 22:23:22.245554'
p2215
aa(lp2216
I1
aI315
aI00
ag50
aI5
aI3
aI5
aI19
aI1
aI0
ag8
ag37
((lp2217
g16
ag9
ag12
atRp2218
ag37
((lp2219
g10
ag16
ag9
ag11
ag12
atRp2220
aS'http://www.homeaway.com/vacation-rental/p85496'
p2221
aS'2015-06-24 22:23:23.986987'
p2222
aa(lp2223
I1
aI316
aI00
ag50
aI5
aI2
aI5
aI18
aI1
aI0
ag8
ag37
((lp2224
g9
ag11
atRp2225
ag37
((lp2226
g10
ag16
ag9
ag11
ag12
atRp2227
aS'http://www.homeaway.com/vacation-rental/p54982'
p2228
aS'2015-06-24 22:23:25.863007'
p2229
aa(lp2230
I1
aI317
aI00
ag50
aI5
aI3
aI5
aI17
aI1
aI0
ag8
ag37
((lp2231
g16
ag11
ag12
atRp2232
ag37
((lp2233
g10
ag16
ag9
ag11
ag12
atRp2234
aS'http://www.homeaway.com/vacation-rental/p93229'
p2235
aS'2015-06-24 22:23:27.810745'
p2236
aa(lp2237
I1
aI318
aI00
ag50
aI5
aI4
aI5
aI10
aI1
aI0
ag8
ag37
((lp2238
g10
ag9
ag11
ag12
atRp2239
ag37
((lp2240
g10
ag16
ag9
ag11
ag12
atRp2241
aS'http://www.tripadvisor.com/Hotel_Review-g187880-d2216040-Reviews-La_Posada_sul_Golfo-Alghero_Province_of_Sassari_Sardinia.html'
p2242
aS'2015-06-24 22:23:29.403040'
p2243
aa(lp2244
I1
aI319
aI00
ag50
aI5
aI4
aI5
aI9
aI1
aI0
ag8
ag37
((lp2245
g10
ag9
ag11
ag12
atRp2246
ag37
((lp2247
g10
ag16
ag9
ag11
ag12
atRp2248
aS'http://lynnseldon.com/article804.html'
p2249
aS'2015-06-24 22:23:29.714224'
p2250
aa(lp2251
I1
aI320
aI00
ag50
aI5
aI2
aI3
aI14
aI1
aI0
ag8
ag37
((lp2252
g10
ag11
atRp2253
ag37
((lp2254
g10
ag11
ag12
atRp2255
aS'https://www.pinterest.com/nancyschmit142/black-and-white-french-cottage-6/'
p2256
aS'2015-06-24 22:23:34.929116'
p2257
aa(lp2258
I1
aI321
aI00
ag50
aI5
aI2
aI5
aI21
aI1
aI0
ag8
ag37
((lp2259
g16
ag12
atRp2260
ag37
((lp2261
g10
ag16
ag9
ag11
ag12
atRp2262
aS'http://www.homeaway.com/vacation-rental/p248688'
p2263
aS'2015-06-24 22:23:37.072395'
p2264
aa(lp2265
I1
aI322
aI00
ag50
aI5
aI2
aI5
aI14
aI1
aI0
ag8
ag37
((lp2266
g16
ag12
atRp2267
ag37
((lp2268
g10
ag16
ag9
ag11
ag12
atRp2269
aS'http://www.homeaway.com/vacation-rental/p14429'
p2270
aS'2015-06-24 22:23:39.304163'
p2271
aa(lp2272
I1
aI323
aI00
ag50
aI5
aI2
aI5
aI21
aI1
aI0
ag8
ag37
((lp2273
g16
ag11
atRp2274
ag37
((lp2275
g10
ag16
ag9
ag11
ag12
atRp2276
aS'http://www.homeaway.com/vacation-rental/p95303'
p2277
aS'2015-06-24 22:23:41.033983'
p2278
aa(lp2279
I1
aI324
aI00
ag50
aI5
aI2
aI5
aI17
aI1
aI0
ag8
ag37
((lp2280
g10
ag16
atRp2281
ag37
((lp2282
g10
ag16
ag9
ag11
ag12
atRp2283
aS'http://www.homeaway.com/vacation-rental/p789128'
p2284
aS'2015-06-24 22:23:42.889579'
p2285
aa(lp2286
I1
aI325
aI00
ag50
aI5
aI3
aI5
aI14
aI1
aI0
ag8
ag37
((lp2287
g10
ag9
ag11
atRp2288
ag37
((lp2289
g10
ag16
ag9
ag11
ag12
atRp2290
aS'http://www.homeaway.com/vacation-rental/p962657a'
p2291
aS'2015-06-24 22:23:44.824449'
p2292
aa(lp2293
I1
aI326
aI00
ag50
aI5
aI1
aI5
aI18
aI1
aI0
ag8
ag37
((lp2294
g10
atRp2295
ag37
((lp2296
g10
ag16
ag9
ag11
ag12
atRp2297
aS'http://www.homeaway.com/vacation-rental/p3594813'
p2298
aS'2015-06-24 22:23:46.798576'
p2299
aa(lp2300
I1
aI327
aI00
ag50
aI5
aI2
aI5
aI19
aI1
aI0
ag8
ag37
((lp2301
g10
ag9
atRp2302
ag37
((lp2303
g10
ag16
ag9
ag11
ag12
atRp2304
aS'http://www.homeaway.com/vacation-rental/p801734'
p2305
aS'2015-06-24 22:23:48.774056'
p2306
aa(lp2307
I1
aI328
aI00
ag50
aI5
aI0
aI0
aI5
aI1
aI0
ag8
ag37
((ltRp2308
ag37
((ltRp2309
aS'http://www.expedia.com/Kaneohe-Hotels-Paradise-Bay-Resort.h4410854.Hotel-Information'
p2310
aS'2015-06-24 22:23:52.862321'
p2311
aa(lp2312
I1
aI329
aI00
ag50
aI5
aI4
aI5
aI11
aI1
aI0
ag8
ag37
((lp2313
g10
ag16
ag9
ag12
atRp2314
ag37
((lp2315
g10
ag16
ag9
ag11
ag12
atRp2316
aS'http://www.tripadvisor.com/Attraction_Review-g294256-d3837023-Reviews-Seven_Commando_Beach-El_Nido_Palawan_Island_Palawan_Province_Mimaropa.html'
p2317
aS'2015-06-24 22:23:58.923617'
p2318
aa(lp2319
I1
aI330
aI00
ag50
aI5
aI3
aI5
aI14
aI1
aI0
ag8
ag37
((lp2320
g16
ag9
ag12
atRp2321
ag37
((lp2322
g10
ag16
ag9
ag11
ag12
atRp2323
aS'http://www.tripadvisor.com/Hotel_Review-g479219-d586665-Reviews-Casa_Rex-Vilanculos_Inhambane_Province.html'
p2324
aS'2015-06-24 22:24:03.205137'
p2325
aa(lp2326
I1
aI331
aI00
ag50
aI5
aI1
aI5
aI24
aI1
aI0
ag8
ag37
((lp2327
g10
atRp2328
ag37
((lp2329
g10
ag16
ag9
ag11
ag12
atRp2330
aS'http://www.tripadvisor.com/ShowUserReviews-g642244-d599930-r14973536-Iberostar_Ensenachos-Cayo_Ensenachos_Cuba.html'
p2331
aS'2015-06-24 22:24:05.307499'
p2332
aa(lp2333
I1
aI332
aI00
ag50
aI5
aI2
aI5
aI19
aI1
aI0
ag8
ag37
((lp2334
g9
ag11
atRp2335
ag37
((lp2336
g10
ag16
ag9
ag11
ag12
atRp2337
aS'http://www.homeaway.com/vacation-rental/p838173'
p2338
aS'2015-06-24 22:24:06.687504'
p2339
aa(lp2340
I1
aI333
aI00
ag50
aI5
aI0
aI5
aI19
aI1
aI0
ag8
ag37
((ltRp2341
ag37
((lp2342
g10
ag16
ag9
ag11
ag12
atRp2343
aS'http://www.homeaway.com/vacation-rental/p427585'
p2344
aS'2015-06-24 22:24:09.312431'
p2345
aa(lp2346
I1
aI334
aI00
ag50
aI5
aI2
aI5
aI17
aI1
aI0
ag8
ag37
((lp2347
g9
ag11
atRp2348
ag37
((lp2349
g10
ag16
ag9
ag11
ag12
atRp2350
aS'http://www.homeaway.com/vacation-rental/p132169'
p2351
aS'2015-06-24 22:24:11.036269'
p2352
aa(lp2353
I1
aI335
aI00
ag50
aI5
aI3
aI5
aI17
aI1
aI0
ag8
ag37
((lp2354
g10
ag11
ag12
atRp2355
ag37
((lp2356
g10
ag16
ag9
ag11
ag12
atRp2357
aS'http://www.homeaway.com/vacation-rental/p18628'
p2358
aS'2015-06-24 22:24:13.057107'
p2359
aa(lp2360
I1
aI336
aI00
ag50
aI5
aI2
aI5
aI12
aI1
aI0
ag8
ag37
((lp2361
g10
ag9
atRp2362
ag37
((lp2363
g10
ag16
ag9
ag11
ag12
atRp2364
aS'http://www.homeaway.com/vacation-rental/p6627094'
p2365
aS'2015-06-24 22:24:15.021612'
p2366
aa(lp2367
I1
aI337
aI00
ag50
aI5
aI1
aI5
aI19
aI1
aI0
ag8
ag37
((lp2368
g16
atRp2369
ag37
((lp2370
g10
ag16
ag9
ag11
ag12
atRp2371
aS'http://www.homeaway.com/vacation-rental/p78370'
p2372
aS'2015-06-24 22:24:17.033453'
p2373
aa(lp2374
I1
aI338
aI00
ag50
aI5
aI0
aI5
aI24
aI1
aI0
ag8
ag37
((ltRp2375
ag37
((lp2376
g10
ag16
ag9
ag11
ag12
atRp2377
aS'http://killerfemme.com/category/french/'
p2378
aS'2015-06-24 22:24:18.737656'
p2379
aa(lp2380
I1
aI339
aI00
ag50
aI5
aI0
aI0
aI4
aI1
aI0
ag8
ag37
((ltRp2381
ag37
((ltRp2382
aS'http://www.expedia.com/Dominica-Hotels-Elegant-Suites-Apartments.h5203079.Hotel-Information'
p2383
aS'2015-06-24 22:24:21.813581'
p2384
aa(lp2385
I1
aI340
aI00
ag50
aI5
aI3
aI5
aI16
aI1
aI0
ag8
ag37
((lp2386
g10
ag16
ag12
atRp2387
ag37
((lp2388
g10
ag16
ag9
ag11
ag12
atRp2389
aS'http://www.homeaway.com/vacation-rental/p330870'
p2390
aS'2015-06-24 22:24:26.129301'
p2391
aa(lp2392
I1
aI341
aI00
ag50
aI5
aI2
aI5
aI22
aI1
aI0
ag8
ag37
((lp2393
g16
ag11
atRp2394
ag37
((lp2395
g10
ag16
ag9
ag11
ag12
atRp2396
aS'http://www.homeaway.com/vacation-rental/p184692'
p2397
aS'2015-06-24 22:24:28.173752'
p2398
aa(lp2399
I1
aI342
aI00
ag50
aI5
aI2
aI5
aI24
aI1
aI0
ag8
ag37
((lp2400
g10
ag9
atRp2401
ag37
((lp2402
g10
ag16
ag9
ag11
ag12
atRp2403
aS'http://www.homeaway.com/vacation-rental/p167080'
p2404
aS'2015-06-24 22:24:30.376293'
p2405
aa(lp2406
I1
aI343
aI00
ag50
aI5
aI0
aI5
aI16
aI1
aI0
ag8
ag37
((ltRp2407
ag37
((lp2408
g10
ag16
ag9
ag11
ag12
atRp2409
aS'http://www.homeaway.com/vacation-rental/p6581472'
p2410
aS'2015-06-24 22:24:32.120184'
p2411
aa(lp2412
I1
aI344
aI00
ag50
aI5
aI3
aI5
aI18
aI1
aI0
ag8
ag37
((lp2413
g10
ag16
ag11
atRp2414
ag37
((lp2415
g10
ag16
ag9
ag11
ag12
atRp2416
aS'http://www.tripadvisor.com/ShowUserReviews-g60608-d89980-r91563151-Hilton_Waikoloa_Village-Waikoloa_Kohala_Coast_Island_of_Hawaii_Hawaii.html'
p2417
aS'2015-06-24 22:24:33.695096'
p2418
aa(lp2419
I1
aI345
aI00
ag50
aI5
aI1
aI5
aI17
aI1
aI0
ag8
ag37
((lp2420
g10
atRp2421
ag37
((lp2422
g10
ag16
ag9
ag11
ag12
atRp2423
aS'http://www.tripadvisor.com/Hotel_Review-g34141-d86195-Reviews-Hampton_Inn_Clearwater_Central-Clearwater_Florida.html'
p2424
aS'2015-06-24 22:24:35.364143'
p2425
aa(lp2426
I1
aI346
aI00
ag50
aI5
aI0
aI5
aI19
aI1
aI0
ag8
ag37
((ltRp2427
ag37
((lp2428
g10
ag16
ag9
ag11
ag12
atRp2429
aS'http://www.tripadvisor.com/ShowUserReviews-g240327-d248849-r222674246-Now_Sapphire_Riviera_Cancun-Puerto_Morelos_Yucatan_Peninsula.html'
p2430
aS'2015-06-24 22:24:36.667927'
p2431
aa(lp2432
I1
aI347
aI00
ag50
aI5
aI3
aI5
aI23
aI1
aI0
ag8
ag37
((lp2433
g10
ag16
ag9
atRp2434
ag37
((lp2435
g10
ag16
ag9
ag11
ag12
atRp2436
aS'http://www.tripadvisor.com/ShowUserReviews-g670039-d295233-r13936984-Melia_Cayo_Santa_Maria-Cayo_Santa_Maria_Villa_Clara_Province_Cuba.html'
p2437
aS'2015-06-24 22:24:37.830889'
p2438
aa(lp2439
I1
aI348
aI00
ag50
aI5
aI1
aI1
aI2
aI1
aI0
ag8
ag37
((lp2440
Vfrench
p2441
atRp2442
ag37
((lp2443
g2441
atRp2444
aS'http://www.poshpadz.com/PropertyFullDetails.aspx?_=325'
p2445
aS'2015-06-24 22:24:44.995451'
p2446
aa(lp2447
I1
aI349
aI00
ag50
aI5
aI3
aI5
aI12
aI1
aI0
ag8
ag37
((lp2448
g10
ag16
ag12
atRp2449
ag37
((lp2450
g10
ag16
ag9
ag11
ag12
atRp2451
aS'https://www.pinterest.com/nadineymung/motif/'
p2452
aS'2015-06-24 22:24:48.523600'
p2453
aa(lp2454
I1
aI350
aI00
ag50
aI5
aI2
aI5
aI17
aI1
aI0
ag8
ag37
((lp2455
g10
ag9
atRp2456
ag37
((lp2457
g10
ag16
ag9
ag11
ag12
atRp2458
aS'http://www.homeaway.com/vacation-rental/p845671a'
p2459
aS'2015-06-24 22:24:51.918176'
p2460
aa(lp2461
I1
aI351
aI00
ag50
aI5
aI2
aI5
aI16
aI1
aI0
ag8
ag37
((lp2462
g10
ag11
atRp2463
ag37
((lp2464
g10
ag16
ag9
ag11
ag12
atRp2465
aS'http://www.homeaway.com/vacation-rental/p2131740'
p2466
aS'2015-06-24 22:24:53.731198'
p2467
aa(lp2468
I1
aI352
aI00
ag50
aI5
aI1
aI5
aI22
aI1
aI0
ag8
ag37
((lp2469
g12
atRp2470
ag37
((lp2471
g10
ag16
ag9
ag11
ag12
atRp2472
aS'http://www.homeaway.com/vacation-rental/p84783'
p2473
aS'2015-06-24 22:24:59.715872'
p2474
aa(lp2475
I1
aI353
aI00
ag50
aI5
aI2
aI5
aI19
aI1
aI0
ag8
ag37
((lp2476
g9
ag11
atRp2477
ag37
((lp2478
g10
ag16
ag9
ag11
ag12
atRp2479
aS'http://www.homeaway.com/vacation-rental/p499388'
p2480
aS'2015-06-24 22:25:01.806706'
p2481
aa(lp2482
I1
aI354
aI00
ag50
aI5
aI1
aI5
aI15
aI1
aI0
ag8
ag37
((lp2483
g16
atRp2484
ag37
((lp2485
g10
ag16
ag9
ag11
ag12
atRp2486
aS'http://www.homeaway.com/vacation-rental/p876567a'
p2487
aS'2015-06-24 22:25:03.583193'
p2488
aa(lp2489
I1
aI355
aI00
ag50
aI5
aI1
aI5
aI17
aI1
aI0
ag8
ag37
((lp2490
g10
atRp2491
ag37
((lp2492
g10
ag16
ag9
ag11
ag12
atRp2493
aS'http://www.homeaway.com/vacation-rental/p91362'
p2494
aS'2015-06-24 22:25:05.787010'
p2495
aa(lp2496
I1
aI356
aI00
ag50
aI5
aI1
aI1
aI5
aI1
aI0
ag8
ag37
((lp2497
Vwonderful
p2498
atRp2499
ag37
((lp2500
g2498
atRp2501
aS'http://www.expedia.com/Patmos-Island-Hotels-Joanna-Apart-Hotel.h2423837.Hotel-Information'
p2502
aS'2015-06-24 22:25:08.483528'
p2503
aa(lp2504
I1
aI357
aI00
ag50
aI5
aI1
aI5
aI20
aI1
aI0
ag8
ag37
((lp2505
g9
atRp2506
ag37
((lp2507
g10
ag16
ag9
ag11
ag12
atRp2508
aS'http://www.tripadvisor.com/ShowUserReviews-g147248-d150688-r117101651-Divi_Aruba_All_Inclusive-Oranjestad_Aruba.html'
p2509
aS'2015-06-24 22:25:10.013353'
p2510
aa(lp2511
I1
aI358
aI00
ag50
aI5
aI3
aI5
aI20
aI1
aI0
ag8
ag37
((lp2512
g10
ag9
ag12
atRp2513
ag37
((lp2514
g10
ag16
ag9
ag11
ag12
atRp2515
aS'http://www.tripadvisor.com/ShowUserReviews-g499445-d503104-r22497314-Grand_Bahia_Principe_Tulum-Akumal_Yucatan_Peninsula.html'
p2516
aS'2015-06-24 22:25:11.265447'
p2517
aa(lp2518
I1
aI359
aI00
ag50
aI5
aI0
aI0
aI3
aI1
aI0
ag8
ag37
((ltRp2519
ag37
((ltRp2520
aS'http://honeymoons.com/top-10/spots/top-10-most-popular-destinations/'
p2521
aS'2015-06-24 22:25:11.823288'
p2522
aa(lp2523
I1
aI360
aI00
ag50
aI5
aI1
aI5
aI17
aI1
aI0
ag8
ag37
((lp2524
g12
atRp2525
ag37
((lp2526
g10
ag16
ag9
ag11
ag12
atRp2527
aS'http://www.homeaway.com/vacation-rental/p647494a'
p2528
aS'2015-06-24 22:25:16.648961'
p2529
aa(lp2530
I1
aI361
aI00
ag50
aI5
aI1
aI5
aI19
aI1
aI0
ag8
ag37
((lp2531
g12
atRp2532
ag37
((lp2533
g10
ag16
ag9
ag11
ag12
atRp2534
aS'http://www.homeaway.com/vacation-rental/p240014'
p2535
aS'2015-06-24 22:25:18.555205'
p2536
aa(lp2537
I1
aI362
aI00
ag50
aI5
aI1
aI5
aI19
aI1
aI0
ag8
ag37
((lp2538
g16
atRp2539
ag37
((lp2540
g10
ag16
ag9
ag11
ag12
atRp2541
aS'http://www.homeaway.com/vacation-rental/p258429'
p2542
aS'2015-06-24 22:25:20.323325'
p2543
aa(lp2544
I1
aI363
aI00
ag50
aI5
aI1
aI5
aI13
aI1
aI0
ag8
ag37
((lp2545
g10
atRp2546
ag37
((lp2547
g10
ag16
ag9
ag11
ag12
atRp2548
aS'http://www.homeaway.com/vacation-rental/p606630a'
p2549
aS'2015-06-24 22:25:22.215151'
p2550
aa(lp2551
I1
aI364
aI00
ag50
aI5
aI1
aI5
aI18
aI1
aI0
ag8
ag37
((lp2552
g16
atRp2553
ag37
((lp2554
g10
ag16
ag9
ag11
ag12
atRp2555
aS'http://www.homeaway.com/vacation-rental/p884339'
p2556
aS'2015-06-24 22:25:24.051847'
p2557
aa(lp2558
I1
aI365
aI00
ag50
aI5
aI3
aI5
aI16
aI1
aI0
ag8
ag37
((lp2559
g10
ag16
ag11
atRp2560
ag37
((lp2561
g10
ag16
ag9
ag11
ag12
atRp2562
aS'http://www.homeaway.com/vacation-rental/p995596a'
p2563
aS'2015-06-24 22:25:25.926287'
p2564
aa(lp2565
I1
aI366
aI00
ag50
aI5
aI1
aI5
aI16
aI1
aI0
ag8
ag37
((lp2566
g11
atRp2567
ag37
((lp2568
g10
ag16
ag9
ag11
ag12
atRp2569
aS'http://www.homeaway.com/vacation-rental/p3862076'
p2570
aS'2015-06-24 22:25:27.897913'
p2571
aa(lp2572
I1
aI367
aI00
ag50
aI5
aI4
aI5
aI17
aI1
aI0
ag8
ag37
((lp2573
g10
ag16
ag11
ag12
atRp2574
ag37
((lp2575
g10
ag16
ag9
ag11
ag12
atRp2576
aS'https://www.pinterest.com/pinroof/genre-nordic-netherlands/'
p2577
aS'2015-06-24 22:25:31.154000'
p2578
aa(lp2579
I1
aI368
aI00
ag50
aI5
aI2
aI4
aI11
aI1
aI0
ag8
ag37
((lp2580
g9
ag11
atRp2581
ag37
((lp2582
g10
ag9
ag11
ag12
atRp2583
aS'https://www.pinterest.com/lyonbrandon/travel-advertising/'
p2584
aS'2015-06-24 22:25:34.149741'
p2585
aa(lp2586
I1
aI369
aI00
ag50
aI5
aI1
aI4
aI17
aI1
aI0
ag8
ag37
((lp2587
g9
atRp2588
ag37
((lp2589
g10
ag9
ag11
ag12
atRp2590
aS'http://www.vrbo.com/367920'
p2591
aS'2015-06-24 22:25:35.837343'
p2592
aa(lp2593
I1
aI370
aI00
ag50
aI5
aI1
aI5
aI13
aI1
aI0
ag8
ag37
((lp2594
g11
atRp2595
ag37
((lp2596
g10
ag16
ag9
ag11
ag12
atRp2597
aS'http://www.worldcat.org/identities/lccn-n50009766'
p2598
aS'2015-06-24 22:25:39.045304'
p2599
aa(lp2600
I1
aI371
aI00
ag50
aI5
aI3
aI5
aI16
aI1
aI0
ag8
ag37
((lp2601
g10
ag16
ag9
atRp2602
ag37
((lp2603
g10
ag16
ag9
ag11
ag12
atRp2604
aS'http://www.tripadvisor.com/Hotel_Review-g230095-d634079-Reviews-Salobre_Golf_Resort_Villas-Maspalomas_Gran_Canaria_Canary_Islands.html'
p2605
aS'2015-06-24 22:25:40.620658'
p2606
aa(lp2607
I1
aI372
aI00
ag50
aI5
aI2
aI5
aI19
aI1
aI0
ag8
ag37
((lp2608
g10
ag12
atRp2609
ag37
((lp2610
g10
ag16
ag9
ag11
ag12
atRp2611
aS'http://www.tripadvisor.com/ShowUserReviews-g147271-d226417-r282454464-Melia_Cohiba-Havana_Cuba.html'
p2612
aS'2015-06-24 22:25:41.869059'
p2613
aa(lp2614
I1
aI373
aI00
ag50
aI5
aI1
aI5
aI19
aI1
aI0
ag8
ag37
((lp2615
g16
atRp2616
ag37
((lp2617
g10
ag16
ag9
ag11
ag12
atRp2618
aS'http://www.tripadvisor.com/ShowUserReviews-g775971-d481825-r50647022-The_Leela_Goa-Cavelossim_Goa.html'
p2619
aS'2015-06-24 22:25:43.061716'
p2620
aa(lp2621
I1
aI374
aI00
ag50
aI5
aI0
aI5
aI21
aI1
aI0
ag8
ag37
((ltRp2622
ag37
((lp2623
g10
ag16
ag9
ag11
ag12
atRp2624
aS'http://www.homeaway.com/vacation-rental/p89850'
p2625
aS'2015-06-24 22:25:44.355721'
p2626
aa(lp2627
I1
aI375
aI00
ag50
aI5
aI0
aI5
aI16
aI1
aI0
ag8
ag37
((ltRp2628
ag37
((lp2629
g10
ag16
ag9
ag11
ag12
atRp2630
aS'http://www.homeaway.com/vacation-rental/p13858'
p2631
aS'2015-06-24 22:25:46.084948'
p2632
aa(lp2633
I1
aI376
aI00
ag50
aI5
aI0
aI5
aI20
aI1
aI0
ag8
ag37
((ltRp2634
ag37
((lp2635
g10
ag16
ag9
ag11
ag12
atRp2636
aS'http://www.homeaway.com/vacation-rental/p422130'
p2637
aS'2015-06-24 22:25:48.372173'
p2638
aa(lp2639
I1
aI377
aI00
ag50
aI5
aI1
aI5
aI12
aI1
aI0
ag8
ag37
((lp2640
g9
atRp2641
ag37
((lp2642
g10
ag16
ag9
ag11
ag12
atRp2643
aS'http://govillascyprus.com/location/larnaca/'
p2644
aS'2015-06-24 22:25:51.527839'
p2645
aa(lp2646
I1
aI378
aI00
ag50
aI5
aI3
aI4
aI8
aI1
aI0
ag8
ag37
((lp2647
g10
ag11
ag12
atRp2648
ag37
((lp2649
g10
ag16
ag11
ag12
atRp2650
aS'https://www.airbnb.com/s/Uppsala-County--Sweden?type=cabin'
p2651
aS'2015-06-24 22:25:56.925064'
p2652
aa(lp2653
I1
aI379
aI00
ag50
aI5
aI2
aI2
aI3
aI1
aI0
ag8
ag37
((lp2654
Vpar
p2655
aVbeaches
p2656
atRp2657
ag37
((lp2658
g2655
ag2656
atRp2659
aS'http://toptravels12.blogspot.com/2014/09/why-we-love-beaches-emirates-abu-dhabi.html'
p2660
aS'2015-06-24 22:26:01.973431'
p2661
aa(lp2662
I1
aI380
aI00
ag50
aI5
aI1
aI5
aI18
aI1
aI0
ag8
ag37
((lp2663
g9
atRp2664
ag37
((lp2665
g10
ag16
ag9
ag11
ag12
atRp2666
aS'http://www.homeaway.com/vacation-rental/p805734'
p2667
aS'2015-06-24 22:26:05.738849'
p2668
aa(lp2669
I1
aI381
aI00
ag50
aI5
aI3
aI5
aI17
aI1
aI0
ag8
ag37
((lp2670
g9
ag11
ag12
atRp2671
ag37
((lp2672
g10
ag16
ag9
ag11
ag12
atRp2673
aS'http://www.homeaway.com/vacation-rental/p75706'
p2674
aS'2015-06-24 22:26:07.995486'
p2675
aa(lp2676
I1
aI382
aI00
ag50
aI5
aI1
aI5
aI16
aI1
aI0
ag8
ag37
((lp2677
g16
atRp2678
ag37
((lp2679
g10
ag16
ag9
ag11
ag12
atRp2680
aS'http://www.homeaway.com/vacation-rental/p1344798'
p2681
aS'2015-06-24 22:26:09.825097'
p2682
aa(lp2683
I1
aI383
aI00
ag50
aI5
aI2
aI5
aI14
aI1
aI0
ag8
ag37
((lp2684
g10
ag16
atRp2685
ag37
((lp2686
g10
ag16
ag9
ag11
ag12
atRp2687
aS'http://www.homeaway.com/vacation-rental/p635250a'
p2688
aS'2015-06-24 22:26:11.626200'
p2689
aa(lp2690
I1
aI384
aI00
ag50
aI5
aI2
aI5
aI16
aI1
aI0
ag8
ag37
((lp2691
g10
ag16
atRp2692
ag37
((lp2693
g10
ag16
ag9
ag11
ag12
atRp2694
aS'http://www.tripadvisor.com/ShowUserReviews-g34420-d209411-r46687033-Marco_Island_Marriott_Resort_Golf_Club_Spa-Marco_Island_Florida.html'
p2695
aS'2015-06-24 22:26:13.186806'
p2696
aa(lp2697
I1
aI385
aI00
ag50
aI5
aI1
aI5
aI16
aI1
aI0
ag8
ag37
((lp2698
g12
atRp2699
ag37
((lp2700
g10
ag16
ag9
ag11
ag12
atRp2701
aS'http://www.tripadvisor.com/ShowUserReviews-g147249-d151277-r152195482-Hotel_Riu_Palace_Aruba-Palm_Eagle_Beach_Aruba.html'
p2702
aS'2015-06-24 22:26:14.464008'
p2703
aa(lp2704
I1
aI386
aI00
ag50
aI5
aI0
aI0
aI4
aI1
aI0
ag8
ag37
((ltRp2705
ag37
((ltRp2706
aS'http://www.tripadvisor.com/ShowUserReviews-g147311-d150720-r143224039-Sandals_Royal_Caribbean_Resort_and_Private_Island-Montego_Bay_Saint_James_Parish_.html'
p2707
aS'2015-06-24 22:26:15.006804'
p2708
aa(lp2709
I1
aI387
aI00
ag50
aI5
aI0
aI4
aI21
aI1
aI0
ag8
ag37
((ltRp2710
ag37
((lp2711
g10
ag16
ag9
ag12
atRp2712
aS'https://uk.pinterest.com/KikiKincade/creepy-as-fuck/'
p2713
aS'2015-06-24 22:26:18.328301'
p2714
aa(lp2715
I1
aI388
aI00
ag50
aI5
aI1
aI1
aI10
aI1
aI0
ag8
ag37
((lp2716
g11
atRp2717
ag37
((lp2718
g11
atRp2719
aS'http://www.expedia.com/Antigua-And-Barbuda-Hotels-Hawksbill-By-Rex-Resorts-All-Inclusive.h24813.Hotel-Information'
p2720
aS'2015-06-24 22:26:20.222872'
p2721
aa(lp2722
I1
aI389
aI00
ag50
aI5
aI1
aI5
aI16
aI1
aI0
ag8
ag37
((lp2723
g12
atRp2724
ag37
((lp2725
g10
ag16
ag9
ag11
ag12
atRp2726
aS'http://customers.cheapcaribbean.com/dreams-riviera-cancun-resort-spa-reviews.jsp'
p2727
aS'2015-06-24 22:26:22.242319'
p2728
aa(lp2729
I1
aI390
aI00
ag50
aI5
aI2
aI5
aI18
aI1
aI0
ag8
ag37
((lp2730
g16
ag11
atRp2731
ag37
((lp2732
g10
ag16
ag9
ag11
ag12
atRp2733
aS'http://www.homeaway.com/vacation-rental/p401962'
p2734
aS'2015-06-24 22:26:26.796062'
p2735
aa(lp2736
I1
aI391
aI00
ag50
aI5
aI3
aI5
aI17
aI1
aI0
ag8
ag37
((lp2737
g16
ag11
ag12
atRp2738
ag37
((lp2739
g10
ag16
ag9
ag11
ag12
atRp2740
aS'http://www.homeaway.com/vacation-rental/p274772'
p2741
aS'2015-06-24 22:26:29.298218'
p2742
aa(lp2743
I1
aI392
aI00
ag50
aI5
aI1
aI5
aI17
aI1
aI0
ag8
ag37
((lp2744
g10
atRp2745
ag37
((lp2746
g10
ag16
ag9
ag11
ag12
atRp2747
aS'http://www.homeaway.com/vacation-rental/p53539'
p2748
aS'2015-06-24 22:26:31.000018'
p2749
aa(lp2750
I1
aI393
aI00
ag50
aI5
aI2
aI5
aI18
aI1
aI0
ag8
ag37
((lp2751
g11
ag12
atRp2752
ag37
((lp2753
g10
ag16
ag9
ag11
ag12
atRp2754
aS'http://www.homeaway.com/vacation-rental/p750523'
p2755
aS'2015-06-24 22:26:33.647509'
p2756
aa(lp2757
I1
aI394
aI00
ag50
aI5
aI0
aI5
aI17
aI1
aI0
ag8
ag37
((ltRp2758
ag37
((lp2759
g10
ag16
ag9
ag11
ag12
atRp2760
aS'http://www.tripadvisor.com/ShowUserReviews-g147275-d1646887-r106749962-Naviti_Varadero-Varadero_Matanzas_Province_Cuba.html'
p2761
aS'2015-06-24 22:26:36.206606'
p2762
aa(lp2763
I1
aI395
aI00
ag50
aI5
aI1
aI5
aI14
aI1
aI0
ag8
ag37
((lp2764
g10
atRp2765
ag37
((lp2766
g10
ag16
ag9
ag11
ag12
atRp2767
aS'http://www.tripadvisor.com/ShowUserReviews-g499396-d1064261-r196056951-Coco_Cay_Little_Stirrup_Cay-Berry_Islands_Out_Islands_Bahamas.html'
p2768
aS'2015-06-24 22:26:37.751947'
p2769
aa(lp2770
I1
aI396
aI00
ag50
aI5
aI2
aI5
aI19
aI1
aI0
ag8
ag37
((lp2771
g9
ag11
atRp2772
ag37
((lp2773
g10
ag16
ag9
ag11
ag12
atRp2774
aS'http://www.tripadvisor.com/ShowUserReviews-g147317-d3746481-r282090528-Luxury_Bahia_Principe_Runaway_Bay_Don_Pablo_Collection-Runaway_Bay_Saint_Ann_Par.html'
p2775
aS'2015-06-24 22:26:38.936594'
p2776
aa(lp2777
I1
aI397
aI00
ag50
aI5
aI3
aI3
aI6
aI1
aI0
ag8
ag37
((lp2778
g16
ag11
ag12
atRp2779
ag37
((lp2780
g16
ag11
ag12
atRp2781
aS'http://french.fansshare.com/gallery/photos/12763772/upperegyptmap/'
p2782
aS'2015-06-24 22:26:41.626653'
p2783
aa(lp2784
I1
aI398
aI00
ag50
aI5
aI1
aI1
aI7
aI1
aI0
ag8
ag37
((lp2785
g9
atRp2786
ag37
((lp2787
g9
atRp2788
aS'http://www.expedia.com/Cascais-Hotels-Albatroz-Seafront-Hotel.h804613.Hotel-Information'
p2789
aS'2015-06-24 22:26:46.246511'
p2790
aa(lp2791
I1
aI399
aI00
ag50
aI5
aI1
aI5
aI12
aI1
aI0
ag8
ag37
((lp2792
g10
atRp2793
ag37
((lp2794
g10
ag16
ag9
ag11
ag12
atRp2795
aS'http://www.resortmaxmin.com/hotels-place/4818'
p2796
aS'2015-06-24 22:26:48.569217'
p2797
aa(lp2798
I1
aI400
aI00
ag50
aI5
aI2
aI5
aI17
aI1
aI0
ag8
ag37
((lp2799
g9
ag12
atRp2800
ag37
((lp2801
g10
ag16
ag9
ag11
ag12
atRp2802
aS'http://www.homeaway.com/vacation-rental/p55033'
p2803
aS'2015-06-24 22:26:52.631369'
p2804
aa(lp2805
I1
aI401
aI00
ag50
aI5
aI3
aI5
aI18
aI1
aI0
ag8
ag37
((lp2806
g10
ag16
ag11
atRp2807
ag37
((lp2808
g10
ag16
ag9
ag11
ag12
atRp2809
aS'http://www.homeaway.com/vacation-rental/p872271a'
p2810
aS'2015-06-24 22:26:54.988022'
p2811
aa(lp2812
I1
aI402
aI00
ag50
aI5
aI1
aI5
aI17
aI1
aI0
ag8
ag37
((lp2813
g16
atRp2814
ag37
((lp2815
g10
ag16
ag9
ag11
ag12
atRp2816
aS'http://www.homeaway.com/vacation-rental/p873395a'
p2817
aS'2015-06-24 22:26:56.547439'
p2818
aa(lp2819
I1
aI403
aI00
ag50
aI5
aI1
aI5
aI22
aI1
aI0
ag8
ag37
((lp2820
g9
atRp2821
ag37
((lp2822
g10
ag16
ag9
ag11
ag12
atRp2823
aS'http://www.homeaway.com/vacation-rental/p480750'
p2824
aS'2015-06-24 22:27:02.488735'
p2825
aa(lp2826
I1
aI404
aI00
ag50
aI5
aI1
aI5
aI20
aI1
aI0
ag8
ag37
((lp2827
g16
atRp2828
ag37
((lp2829
g10
ag16
ag9
ag11
ag12
atRp2830
aS'http://www.homeaway.com/vacation-rental/p93984'
p2831
aS'2015-06-24 22:27:04.165388'
p2832
aa(lp2833
I1
aI405
aI00
ag50
aI5
aI2
aI5
aI20
aI1
aI0
ag8
ag37
((lp2834
g10
ag9
atRp2835
ag37
((lp2836
g10
ag16
ag9
ag11
ag12
atRp2837
aS'http://www.tripadvisor.com/ShowUserReviews-g499445-d593981-r5967598-Grand_Bahia_Principe_Coba-Akumal_Yucatan_Peninsula.html'
p2838
aS'2015-06-24 22:27:06.886586'
p2839
aa(lp2840
I1
aI406
aI00
ag50
aI5
aI2
aI5
aI19
aI1
aI0
ag8
ag37
((lp2841
g16
ag11
atRp2842
ag37
((lp2843
g10
ag16
ag9
ag11
ag12
atRp2844
aS'http://www.tripadvisor.com/ShowUserReviews-g240327-d248849-r271496447-Now_Sapphire_Riviera_Cancun-Puerto_Morelos_Yucatan_Peninsula.html'
p2845
aS'2015-06-24 22:27:08.128326'
p2846
aa(lp2847
I1
aI407
aI00
ag50
aI5
aI1
aI5
aI19
aI1
aI0
ag8
ag37
((lp2848
g11
atRp2849
ag37
((lp2850
g10
ag16
ag9
ag11
ag12
atRp2851
aS'http://www.tripadvisor.com/ShowUserReviews-g150812-d2299038-r282141746-Paradisus_Playa_Del_Carmen_La_Esmeralda-Playa_del_Carmen_Yucatan_Peninsula.html'
p2852
aS'2015-06-24 22:27:09.470170'
p2853
aa(lp2854
I1
aI408
aI00
ag50
aI5
aI1
aI4
aI18
aI1
aI0
ag8
ag37
((lp2855
g16
atRp2856
ag37
((lp2857
g10
ag16
ag11
ag12
atRp2858
aS'https://www.pinterest.com/cathyfennell/favorite-places-spaces/'
p2859
aS'2015-06-24 22:27:13.035364'
p2860
aa(lp2861
I1
aI409
aI00
ag50
aI5
aI1
aI5
aI16
aI1
aI0
ag8
ag37
((lp2862
g16
atRp2863
ag37
((lp2864
g10
ag16
ag9
ag11
ag12
atRp2865
aS'http://visitstegen.com/attractions/recreation.html'
p2866
aS'2015-06-24 22:27:14.796822'
p2867
aa(lp2868
I1
aI410
aI00
ag50
aI5
aI1
aI5
aI18
aI1
aI0
ag8
ag37
((lp2869
g16
atRp2870
ag37
((lp2871
g10
ag16
ag9
ag11
ag12
atRp2872
aS'http://www.tripadvisor.com/ShowUserReviews-g150812-d530483-r281964758-The_Royal_Playa_del_Carmen-Playa_del_Carmen_Yucatan_Peninsula.html'
p2873
aS'2015-06-24 22:27:18.593504'
p2874
aa(lp2875
I1
aI411
aI00
ag50
aI5
aI1
aI5
aI20
aI1
aI0
ag8
ag37
((lp2876
g11
atRp2877
ag37
((lp2878
g10
ag16
ag9
ag11
ag12
atRp2879
aS'http://www.tripadvisor.com/ShowUserReviews-g3176298-d149399-r4100452-Melia_Caribe_Tropical-Bavaro_Punta_Cana_La_Altagracia_Province_Dominican_Republic.html'
p2880
aS'2015-06-24 22:27:19.800335'
p2881
aa(lp2882
I1
aI412
aI00
ag50
aI5
aI2
aI5
aI22
aI1
aI0
ag8
ag37
((lp2883
g10
ag9
atRp2884
ag37
((lp2885
g10
ag16
ag9
ag11
ag12
atRp2886
aS'http://www.tripadvisor.com/ShowUserReviews-g298283-d302018-r19259515-The_Andaman_A_Luxury_Collection_Resort-Langkawi_Langkawi_District_Kedah.html'
p2887
aS'2015-06-24 22:27:20.994701'
p2888
aa(lp2889
I1
aI413
aI00
ag50
aI5
aI2
aI5
aI16
aI1
aI0
ag8
ag37
((lp2890
g11
ag12
atRp2891
ag37
((lp2892
g10
ag16
ag9
ag11
ag12
atRp2893
aS'http://www.homeaway.com/vacation-rental/p750504'
p2894
aS'2015-06-24 22:27:22.593071'
p2895
aa(lp2896
I1
aI414
aI00
ag50
aI5
aI1
aI5
aI21
aI1
aI0
ag8
ag37
((lp2897
g10
atRp2898
ag37
((lp2899
g10
ag16
ag9
ag11
ag12
atRp2900
aS'http://www.homeaway.com/vacation-rental/p268867'
p2901
aS'2015-06-24 22:27:24.828791'
p2902
aa(lp2903
I1
aI415
aI00
ag50
aI5
aI2
aI5
aI17
aI1
aI0
ag8
ag37
((lp2904
g16
ag11
atRp2905
ag37
((lp2906
g10
ag16
ag9
ag11
ag12
atRp2907
aS'http://www.homeaway.com/vacation-rental/p225115'
p2908
aS'2015-06-24 22:27:26.680778'
p2909
aa(lp2910
I1
aI416
aI00
ag50
aI5
aI0
aI4
aI13
aI1
aI0
ag8
ag37
((ltRp2911
ag37
((lp2912
g10
ag16
ag11
ag12
atRp2913
aS'https://www.pinterest.com/bohorefugee/seating/'
p2914
aS'2015-06-24 22:27:30.514630'
p2915
aa(lp2916
I1
aI417
aI00
ag50
aI5
aI4
aI5
aI14
aI1
aI0
ag8
ag37
((lp2917
g10
ag16
ag9
ag12
atRp2918
ag37
((lp2919
g10
ag16
ag9
ag11
ag12
atRp2920
aS'https://www.pinterest.com/lyzynelly/home/'
p2921
aS'2015-06-24 22:27:34.041309'
p2922
aa(lp2923
I1
aI418
aI00
ag50
aI5
aI2
aI5
aI10
aI1
aI0
ag8
ag37
((lp2924
g9
ag11
atRp2925
ag37
((lp2926
g10
ag16
ag9
ag11
ag12
atRp2927
aS'http://steamcommunity.com/app/263440/guides/?browsefilter=mostrecent&requiredtags%5B0%5D=Multiplayer&p=1&numperpage=18&browsesort=mostrecent'
p2928
aS'2015-06-24 22:27:35.355333'
p2929
aa(lp2930
I1
aI419
aI00
ag50
aI5
aI3
aI5
aI10
aI1
aI0
ag8
ag37
((lp2931
g10
ag16
ag12
atRp2932
ag37
((lp2933
g10
ag16
ag9
ag11
ag12
atRp2934
aS'http://steamcommunity.com/app/263440/guides/?browsesort=toprated&filetype=11&requiredtags%5B0%5D=Multiplayer&browsefilter=toprated&p=1'
p2935
aS'2015-06-24 22:27:36.101375'
p2936
aa(lp2937
I1
aI420
aI00
ag50
aI5
aI4
aI5
aI26
aI1
aI0
ag8
ag37
((lp2938
g10
ag16
ag9
ag12
atRp2939
ag37
((lp2940
g10
ag16
ag9
ag11
ag12
atRp2941
aS'http://www.designsponge.com/2012/03/auckland-new-zealand-guide.html'
p2942
aS'2015-06-24 22:27:40.241854'
p2943
aa(lp2944
I1
aI421
aI00
ag50
aI5
aI2
aI5
aI18
aI1
aI0
ag8
ag37
((lp2945
g9
ag11
atRp2946
ag37
((lp2947
g10
ag16
ag9
ag11
ag12
atRp2948
aS'http://www.tripadvisor.com/ShowUserReviews-g60634-d101352-r71706301-Hyatt_Regency_Maui_Resort_and_Spa-Lahaina_Maui_Hawaii.html'
p2949
aS'2015-06-24 22:27:41.778403'
p2950
aa(lp2951
I1
aI422
aI00
ag50
aI5
aI1
aI5
aI15
aI1
aI0
ag8
ag37
((lp2952
g9
atRp2953
ag37
((lp2954
g10
ag16
ag9
ag11
ag12
atRp2955
aS'http://www.tripadvisor.com/ShowUserReviews-g150812-d258447-r131076257-Ocean_Maya_Royale-Playa_del_Carmen_Yucatan_Peninsula.html'
p2956
aS'2015-06-24 22:27:42.989752'
p2957
aa(lp2958
I1
aI423
aI00
ag50
aI5
aI0
aI5
aI20
aI1
aI0
ag8
ag37
((ltRp2959
ag37
((lp2960
g10
ag16
ag9
ag11
ag12
atRp2961
aS'http://www.sellstatepriority.com/communities-estero'
p2962
aS'2015-06-24 22:27:43.653618'
p2963
aa(lp2964
I1
aI424
aI00
ag50
aI5
aI0
aI5
aI18
aI1
aI0
ag8
ag37
((ltRp2965
ag37
((lp2966
g10
ag16
ag9
ag11
ag12
atRp2967
aS'http://www.homeaway.com/vacation-rental/p249365'
p2968
aS'2015-06-24 22:27:45.774007'
p2969
aa(lp2970
I1
aI425
aI00
ag50
aI5
aI2
aI5
aI15
aI1
aI0
ag8
ag37
((lp2971
g10
ag12
atRp2972
ag37
((lp2973
g10
ag16
ag9
ag11
ag12
atRp2974
aS'http://www.homeaway.com/vacation-rental/p401783'
p2975
aS'2015-06-24 22:27:47.823624'
p2976
aa(lp2977
I1
aI426
aI00
ag50
aI5
aI0
aI5
aI18
aI1
aI0
ag8
ag37
((ltRp2978
ag37
((lp2979
g10
ag16
ag9
ag11
ag12
atRp2980
aS'http://www.homeaway.com/vacation-rental/p140001'
p2981
aS'2015-06-24 22:27:49.610454'
p2982
aa(lp2983
I1
aI427
aI00
ag50
aI5
aI2
aI5
aI21
aI1
aI0
ag8
ag37
((lp2984
g16
ag12
atRp2985
ag37
((lp2986
g10
ag16
ag9
ag11
ag12
atRp2987
aS'http://www.homeaway.com/vacation-rental/p912682'
p2988
aS'2015-06-24 22:27:51.646654'
p2989
aa(lp2990
I1
aI428
aI00
ag50
aI5
aI2
aI5
aI17
aI1
aI0
ag8
ag37
((lp2991
g16
ag11
atRp2992
ag37
((lp2993
g10
ag16
ag9
ag11
ag12
atRp2994
aS'http://www.homeaway.com/vacation-rental/p613717a'
p2995
aS'2015-06-24 22:27:53.465429'
p2996
aa(lp2997
I1
aI429
aI00
ag50
aI5
aI2
aI5
aI24
aI1
aI0
ag8
ag37
((lp2998
g11
ag12
atRp2999
ag37
((lp3000
g10
ag16
ag9
ag11
ag12
atRp3001
aS'http://www.rooshv.com/adjusting-a-girls-rating-based-on-her-nationality'
p3002
aS'2015-06-24 22:27:55.305541'
p3003
aa(lp3004
I1
aI430
aI00
ag50
aI5
aI3
aI5
aI21
aI1
aI0
ag8
ag37
((lp3005
g9
ag11
ag12
atRp3006
ag37
((lp3007
g10
ag16
ag9
ag11
ag12
atRp3008
aS'http://www.tripadvisor.com/ShowUserReviews-g793509-d1094847-r23259555-Grand_Palladium_Jamaica_Resort_Spa-Lucea_Hanover_Parish_Jamaica.html'
p3009
aS'2015-06-24 22:27:58.969059'
p3010
aa(lp3011
I1
aI431
aI00
ag50
aI5
aI1
aI5
aI17
aI1
aI0
ag8
ag37
((lp3012
g16
atRp3013
ag37
((lp3014
g10
ag16
ag9
ag11
ag12
atRp3015
aS'http://www.tripadvisor.com/ShowUserReviews-g34530-d85517-r237414284-Four_Seasons_Resort_Palm_Beach-Palm_Beach_Florida.html'
p3016
aS'2015-06-24 22:28:04.225034'
p3017
aa(lp3018
I1
aI432
aI00
ag50
aI5
aI1
aI5
aI18
aI1
aI0
ag8
ag37
((lp3019
g10
atRp3020
ag37
((lp3021
g10
ag16
ag9
ag11
ag12
atRp3022
aS'http://www.tripadvisor.com/ShowUserReviews-g34345-d224530-r282223570-Southernmost_on_the_Beach-Key_West_Florida_Keys_Florida.html'
p3023
aS'2015-06-24 22:28:05.664570'
p3024
aa(lp3025
I1
aI433
aI00
ag50
aI5
aI3
aI5
aI11
aI1
aI0
ag8
ag37
((lp3026
g16
ag9
ag11
atRp3027
ag37
((lp3028
g10
ag16
ag9
ag11
ag12
atRp3029
aS'http://www.tripadvisor.com/Hotel_Review-g294436-d1752325-Reviews-Itsandra_Beach_Hotel-Moroni_Grande_Comore.html'
p3030
aS'2015-06-24 22:28:07.250502'
p3031
aa(lp3032
I1
aI434
aI00
ag50
aI5
aI1
aI5
aI16
aI1
aI0
ag8
ag37
((lp3033
g11
atRp3034
ag37
((lp3035
g10
ag16
ag9
ag11
ag12
atRp3036
aS'http://www.tripadvisor.com/ShowUserReviews-g34420-d209411-r31494484-Marco_Island_Marriott_Resort_Golf_Club_Spa-Marco_Island_Florida.html'
p3037
aS'2015-06-24 22:28:08.411152'
p3038
aa(lp3039
I1
aI435
aI00
ag50
aI5
aI2
aI5
aI16
aI1
aI0
ag8
ag37
((lp3040
g16
ag12
atRp3041
ag37
((lp3042
g10
ag16
ag9
ag11
ag12
atRp3043
aS'http://www.homeaway.com/vacation-rental/p672574a'
p3044
aS'2015-06-24 22:28:10.026242'
p3045
aa(lp3046
I1
aI436
aI00
ag50
aI5
aI1
aI5
aI23
aI1
aI0
ag8
ag37
((lp3047
g10
atRp3048
ag37
((lp3049
g10
ag16
ag9
ag11
ag12
atRp3050
aS'http://www.homeaway.com/vacation-rental/p66817'
p3051
aS'2015-06-24 22:28:13.625705'
p3052
aa(lp3053
I1
aI437
aI00
ag50
aI5
aI1
aI5
aI19
aI1
aI0
ag8
ag37
((lp3054
g9
atRp3055
ag37
((lp3056
g10
ag16
ag9
ag11
ag12
atRp3057
aS'http://www.homeaway.com/vacation-rental/p17970'
p3058
aS'2015-06-24 22:28:15.650600'
p3059
aa(lp3060
I1
aI438
aI00
ag50
aI5
aI2
aI5
aI19
aI1
aI0
ag8
ag37
((lp3061
g9
ag12
atRp3062
ag37
((lp3063
g10
ag16
ag9
ag11
ag12
atRp3064
aS'http://www.homeaway.com/vacation-rental/p419011'
p3065
aS'2015-06-24 22:28:17.411876'
p3066
aa(lp3067
I1
aI439
aI00
ag50
aI5
aI1
aI3
aI12
aI1
aI0
ag8
ag37
((lp3068
g11
atRp3069
ag37
((lp3070
g16
ag9
ag11
atRp3071
aS'http://www.myrtlebeach.com/102-things-to-do/historical-sites-plantations/'
p3072
aS'2015-06-24 22:28:18.435066'
p3073
aa(lp3074
I1
aI440
aI00
ag50
aI5
aI1
aI5
aI17
aI1
aI0
ag8
ag37
((lp3075
g16
atRp3076
ag37
((lp3077
g10
ag16
ag9
ag11
ag12
atRp3078
aS'http://www.homeaway.com/vacation-rental/p808899'
p3079
aS'2015-06-24 22:28:22.464267'
p3080
aa(lp3081
I1
aI441
aI00
ag50
aI5
aI1
aI5
aI15
aI1
aI0
ag8
ag37
((lp3082
g11
atRp3083
ag37
((lp3084
g10
ag16
ag9
ag11
ag12
atRp3085
aS'http://www.homeaway.com/vacation-rental/p415400'
p3086
aS'2015-06-24 22:28:24.739542'
p3087
aa(lp3088
I1
aI442
aI00
ag50
aI5
aI2
aI5
aI21
aI1
aI0
ag8
ag37
((lp3089
g9
ag12
atRp3090
ag37
((lp3091
g10
ag16
ag9
ag11
ag12
atRp3092
aS'http://www.homeaway.com/vacation-rental/p628632a'
p3093
aS'2015-06-24 22:28:26.810010'
p3094
aa(lp3095
I1
aI443
aI00
ag50
aI5
aI2
aI5
aI16
aI1
aI0
ag8
ag37
((lp3096
g16
ag11
atRp3097
ag37
((lp3098
g10
ag16
ag9
ag11
ag12
atRp3099
aS'http://www.homeaway.com/vacation-rental/p979340a'
p3100
aS'2015-06-24 22:28:28.707013'
p3101
aa(lp3102
I1
aI444
aI00
ag50
aI5
aI2
aI5
aI21
aI1
aI0
ag8
ag37
((lp3103
g16
ag12
atRp3104
ag37
((lp3105
g10
ag16
ag9
ag11
ag12
atRp3106
aS'http://www.homeaway.com/vacation-rental/p467169'
p3107
aS'2015-06-24 22:28:30.727700'
p3108
aa(lp3109
I1
aI445
aI00
ag50
aI5
aI1
aI5
aI15
aI1
aI0
ag8
ag37
((lp3110
g10
atRp3111
ag37
((lp3112
g10
ag16
ag9
ag11
ag12
atRp3113
aS'http://www.homeaway.com/vacation-rental/p631813a'
p3114
aS'2015-06-24 22:28:32.366109'
p3115
aa(lp3116
I1
aI446
aI00
ag50
aI5
aI2
aI5
aI18
aI1
aI0
ag8
ag37
((lp3117
g10
ag11
atRp3118
ag37
((lp3119
g10
ag16
ag9
ag11
ag12
atRp3120
aS'http://www.tripadvisor.com/Hotel_Review-g34345-d224530-Reviews-Southernmost_on_the_Beach-Key_West_Florida_Keys_Florida.html'
p3121
aS'2015-06-24 22:28:34.849137'
p3122
aa(lp3123
I1
aI447
aI00
ag50
aI5
aI1
aI5
aI16
aI1
aI0
ag8
ag37
((lp3124
g12
atRp3125
ag37
((lp3126
g10
ag16
ag9
ag11
ag12
atRp3127
aS'http://www.tripadvisor.com/ShowUserReviews-g150813-d591029-r264038278-Dreams_Tulum_Resort_Spa-Tulum_Yucatan_Peninsula.html'
p3128
aS'2015-06-24 22:28:36.196419'
p3129
aa(lp3130
I1
aI448
aI00
ag50
aI5
aI3
aI5
aI16
aI1
aI0
ag8
ag37
((lp3131
g16
ag11
ag12
atRp3132
ag37
((lp3133
g10
ag16
ag9
ag11
ag12
atRp3134
aS'http://www.tripadvisor.com/ShowUserReviews-g3176298-d1233228-r282477275-Iberostar_Grand_Hotel_Bavaro-Bavaro_Punta_Cana_La_Altagracia_Province_Dominican.html'
p3135
aS'2015-06-24 22:28:37.458410'
p3136
aa(lp3137
I1
aI449
aI00
ag50
aI5
aI3
aI5
aI17
aI1
aI0
ag8
ag37
((lp3138
g10
ag16
ag9
atRp3139
ag37
((lp3140
g10
ag16
ag9
ag11
ag12
atRp3141
aS'http://www.virtualtourist.com/travel/North_America/General_Tips-North_America-TG-C-1.html'
p3142
aS'2015-06-24 22:28:41.225948'
p3143
aa(lp3144
I1
aI450
aI00
ag50
aI5
aI2
aI5
aI14
aI1
aI0
ag8
ag37
((lp3145
g16
ag12
atRp3146
ag37
((lp3147
g10
ag16
ag9
ag11
ag12
atRp3148
aS'http://www.tripadvisor.com/Restaurant_Review-g1572445-d2293199-Reviews-La_Cale-Asnelles_Calvados_Basse_Normandie_Normandy.html'
p3149
aS'2015-06-24 22:28:45.171388'
p3150
aa(lp3151
I1
aI451
aI00
ag50
aI5
aI2
aI4
aI19
aI1
aI0
ag8
ag37
((lp3152
g9
ag12
atRp3153
ag37
((lp3154
g10
ag9
ag11
ag12
atRp3155
aS'http://www.tripadvisor.com/ShowUserReviews-g1215781-d1741460-r95466780-The_Westin_Siray_Bay_Resort_Spa_Phuket-Phuket_Town_Phuket.html'
p3156
aS'2015-06-24 22:28:46.538253'
p3157
aa(lp3158
I1
aI452
aI00
ag50
aI5
aI3
aI5
aI17
aI1
aI0
ag8
ag37
((lp3159
g16
ag11
ag12
atRp3160
ag37
((lp3161
g10
ag16
ag9
ag11
ag12
atRp3162
aS'http://www.tripadvisor.com/ShowUserReviews-g147275-d266611-r21016467-Melia_Las_Antillas-Varadero_Matanzas_Province_Cuba.html'
p3163
aS'2015-06-24 22:28:47.734953'
p3164
aa(lp3165
I1
aI453
aI00
ag50
aI5
aI1
aI5
aI20
aI1
aI0
ag8
ag37
((lp3166
g11
atRp3167
ag37
((lp3168
g10
ag16
ag9
ag11
ag12
atRp3169
aS'http://www.tripadvisor.com/ShowUserReviews-g1236967-d983375-r250711856-Hotel_Riu_Palace_St_Martin-Anse_Marcel_Saint_Martin_St_Maarten_St_Martin.html'
p3170
aS'2015-06-24 22:28:48.767818'
p3171
aa(lp3172
I1
aI454
aI00
ag50
aI5
aI1
aI5
aI19
aI1
aI0
ag8
ag37
((lp3173
g10
atRp3174
ag37
((lp3175
g10
ag16
ag9
ag11
ag12
atRp3176
aS'http://www.homeaway.com/vacation-rental/p453764'
p3177
aS'2015-06-24 22:28:50.484906'
p3178
aa(lp3179
I1
aI455
aI00
ag50
aI5
aI3
aI5
aI20
aI1
aI0
ag8
ag37
((lp3180
g16
ag9
ag11
atRp3181
ag37
((lp3182
g10
ag16
ag9
ag11
ag12
atRp3183
aS'http://www.homeaway.com/vacation-rental/p74573'
p3184
aS'2015-06-24 22:28:52.864874'
p3185
aa(lp3186
I1
aI456
aI00
ag50
aI5
aI1
aI5
aI19
aI1
aI0
ag8
ag37
((lp3187
g11
atRp3188
ag37
((lp3189
g10
ag16
ag9
ag11
ag12
atRp3190
aS'http://www.homeaway.com/vacation-rental/p644701a'
p3191
aS'2015-06-24 22:28:54.620914'
p3192
aa(lp3193
I1
aI457
aI00
ag50
aI5
aI2
aI5
aI17
aI1
aI0
ag8
ag37
((lp3194
g9
ag11
atRp3195
ag37
((lp3196
g10
ag16
ag9
ag11
ag12
atRp3197
aS'http://www.homeaway.com/vacation-rental/p639986a'
p3198
aS'2015-06-24 22:28:56.427593'
p3199
aa(lp3200
I1
aI458
aI00
ag50
aI5
aI1
aI5
aI14
aI1
aI0
ag8
ag37
((lp3201
g12
atRp3202
ag37
((lp3203
g10
ag16
ag9
ag11
ag12
atRp3204
aS'http://www.homeaway.com/vacation-rental/p614484a'
p3205
aS'2015-06-24 22:28:58.225819'
p3206
aa(lp3207
I1
aI459
aI00
ag50
aI5
aI1
aI5
aI14
aI1
aI0
ag8
ag37
((lp3208
g9
atRp3209
ag37
((lp3210
g10
ag16
ag9
ag11
ag12
atRp3211
aS'http://www.homeaway.com/vacation-rental/p680571a'
p3212
aS'2015-06-24 22:28:59.976138'
p3213
aa(lp3214
I1
aI460
aI00
ag50
aI5
aI3
aI5
aI19
aI1
aI0
ag8
ag37
((lp3215
g10
ag11
ag12
atRp3216
ag37
((lp3217
g10
ag16
ag9
ag11
ag12
atRp3218
aS'https://www.pinterest.com/alicia8fitz/fun-fun-fun/'
p3219
aS'2015-06-24 22:29:05.418158'
p3220
aa(lp3221
I1
aI461
aI00
ag50
aI5
aI2
aI4
aI16
aI1
aI0
ag8
ag37
((lp3222
g16
ag11
atRp3223
ag37
((lp3224
g10
ag16
ag11
ag12
atRp3225
aS'https://www.pinterest.com/maurof/home/'
p3226
aS'2015-06-24 22:29:08.869825'
p3227
aa(lp3228
I1
aI462
aI00
ag50
aI5
aI1
aI5
aI16
aI1
aI0
ag8
ag37
((lp3229
g11
atRp3230
ag37
((lp3231
g10
ag16
ag9
ag11
ag12
atRp3232
aS'http://www.homeaway.com/vacation-rental/p57938'
p3233
aS'2015-06-24 22:29:11.020238'
p3234
aa(lp3235
I1
aI463
aI00
ag50
aI5
aI1
aI5
aI17
aI1
aI0
ag8
ag37
((lp3236
g9
atRp3237
ag37
((lp3238
g10
ag16
ag9
ag11
ag12
atRp3239
aS'http://www.homeaway.com/vacation-rental/p7314'
p3240
aS'2015-06-24 22:29:13.547732'
p3241
aa(lp3242
I1
aI464
aI00
ag50
aI5
aI1
aI5
aI17
aI1
aI0
ag8
ag37
((lp3243
g11
atRp3244
ag37
((lp3245
g10
ag16
ag9
ag11
ag12
atRp3246
aS'http://www.homeaway.com/vacation-rental/p1444'
p3247
aS'2015-06-24 22:29:15.712392'
p3248
aa(lp3249
I1
aI465
aI00
ag50
aI5
aI3
aI5
aI20
aI1
aI0
ag8
ag37
((lp3250
g16
ag9
ag12
atRp3251
ag37
((lp3252
g10
ag16
ag9
ag11
ag12
atRp3253
aS'http://www.homeaway.com/vacation-rental/p188817'
p3254
aS'2015-06-24 22:29:17.733597'
p3255
aa(lp3256
I1
aI466
aI00
ag50
aI5
aI3
aI5
aI15
aI1
aI0
ag8
ag37
((lp3257
g16
ag9
ag11
atRp3258
ag37
((lp3259
g10
ag16
ag9
ag11
ag12
atRp3260
aS'http://www.homeaway.com/vacation-rental/p424820'
p3261
aS'2015-06-24 22:29:19.988526'
p3262
aa(lp3263
I1
aI467
aI00
ag50
aI5
aI1
aI5
aI19
aI1
aI0
ag8
ag37
((lp3264
g9
atRp3265
ag37
((lp3266
g10
ag16
ag9
ag11
ag12
atRp3267
aS'http://www.homeaway.com/vacation-rental/p502974'
p3268
aS'2015-06-24 22:29:22.112751'
p3269
aa(lp3270
I1
aI468
aI00
ag50
aI5
aI2
aI5
aI21
aI1
aI0
ag8
ag37
((lp3271
g10
ag16
atRp3272
ag37
((lp3273
g10
ag16
ag9
ag11
ag12
atRp3274
aS'http://www.tripadvisor.com/ShowUserReviews-g150809-d259238-r205455099-Occidental_Grand_Cozumel-Cozumel_Yucatan_Peninsula.html'
p3275
aS'2015-06-24 22:29:23.683004'
p3276
aa(lp3277
I1
aI469
aI00
ag50
aI5
aI2
aI5
aI14
aI1
aI0
ag8
ag37
((lp3278
g16
ag12
atRp3279
ag37
((lp3280
g10
ag16
ag9
ag11
ag12
atRp3281
aS'http://www.tripadvisor.com/ShowUserReviews-g1535800-d2042402-r134178154-Glykeria_Rooms-Elafonissi_Chania_Prefecture_Crete.html'
p3282
aS'2015-06-24 22:29:24.776799'
p3283
aa(lp3284
I1
aI470
aI00
ag50
aI5
aI3
aI5
aI16
aI1
aI0
ag8
ag37
((lp3285
g16
ag9
ag11
atRp3286
ag37
((lp3287
g10
ag16
ag9
ag11
ag12
atRp3288
aS'http://www.homeaway.com/vacation-rental/p157515'
p3289
aS'2015-06-24 22:29:30.636852'
p3290
aa(lp3291
I1
aI471
aI00
ag50
aI5
aI3
aI5
aI14
aI1
aI0
ag8
ag37
((lp3292
g16
ag9
ag11
atRp3293
ag37
((lp3294
g10
ag16
ag9
ag11
ag12
atRp3295
aS'http://www.homeaway.com/vacation-rental/p6580601'
p3296
aS'2015-06-24 22:29:32.770486'
p3297
aa(lp3298
I1
aI472
aI00
ag50
aI5
aI2
aI5
aI16
aI1
aI0
ag8
ag37
((lp3299
g10
ag16
atRp3300
ag37
((lp3301
g10
ag16
ag9
ag11
ag12
atRp3302
aS'http://www.homeaway.com/vacation-rental/p73316'
p3303
aS'2015-06-24 22:29:34.805515'
p3304
aa(lp3305
I1
aI473
aI00
ag50
aI5
aI2
aI5
aI17
aI1
aI0
ag8
ag37
((lp3306
g10
ag16
atRp3307
ag37
((lp3308
g10
ag16
ag9
ag11
ag12
atRp3309
aS'http://www.homeaway.com/vacation-rental/p146839'
p3310
aS'2015-06-24 22:29:36.808892'
p3311
aa(lp3312
I1
aI474
aI00
ag50
aI5
aI2
aI5
aI14
aI1
aI0
ag8
ag37
((lp3313
g9
ag12
atRp3314
ag37
((lp3315
g10
ag16
ag9
ag11
ag12
atRp3316
aS'http://www.homeaway.com/vacation-rental/p690262a'
p3317
aS'2015-06-24 22:29:38.589198'
p3318
aa(lp3319
I1
aI475
aI00
ag50
aI5
aI2
aI5
aI20
aI1
aI0
ag8
ag37
((lp3320
g9
ag11
atRp3321
ag37
((lp3322
g10
ag16
ag9
ag11
ag12
atRp3323
aS'http://www.homeaway.com/vacation-rental/p65809'
p3324
aS'2015-06-24 22:29:40.505759'
p3325
aa(lp3326
I1
aI476
aI00
ag50
aI5
aI2
aI5
aI24
aI1
aI0
ag8
ag37
((lp3327
g9
ag11
atRp3328
ag37
((lp3329
g10
ag16
ag9
ag11
ag12
atRp3330
aS'http://paris-expat.com/news-food-events-paris-blog/a-flaneurs-diary/'
p3331
aS'2015-06-24 22:29:43.789526'
p3332
aa(lp3333
I1
aI477
aI00
ag50
aI5
aI2
aI5
aI14
aI1
aI0
ag8
ag37
((lp3334
g16
ag11
atRp3335
ag37
((lp3336
g10
ag16
ag9
ag11
ag12
atRp3337
aS'http://www.tripadvisor.com/ShowUserReviews-g776008-d505869-r281408207-Kalidon_Hotel-Kokkari_Samos_Northeast_Aegean_Islands.html'
p3338
aS'2015-06-24 22:29:45.087228'
p3339
aa(lp3340
I1
aI478
aI00
ag50
aI5
aI3
aI5
aI14
aI1
aI0
ag8
ag37
((lp3341
g10
ag11
ag12
atRp3342
ag37
((lp3343
g10
ag16
ag9
ag11
ag12
atRp3344
aS'https://www.pinterest.com/suekey5327/beautiful-decorations/'
p3345
aS'2015-06-24 22:29:48.876389'
p3346
aa(lp3347
I1
aI479
aI00
ag50
aI5
aI2
aI5
aI14
aI1
aI0
ag8
ag37
((lp3348
g10
ag9
atRp3349
ag37
((lp3350
g10
ag16
ag9
ag11
ag12
atRp3351
aS'http://mytravelstylist.com/tag/tahiti/'
p3352
aS'2015-06-24 22:29:51.284583'
p3353
aa(lp3354
I1
aI480
aI00
ag50
aI5
aI1
aI1
aI6
aI1
aI0
ag8
ag37
((lp3355
g9
atRp3356
ag37
((lp3357
g9
atRp3358
aS'http://www.expedia.com/Nicoya-Peninsula-Hotels-Hotel-Laguna-Mar.h6098360.Hotel-Information'
p3359
aS'2015-06-24 22:29:57.093901'
p3360
aa(lp3361
I1
aI481
aI00
ag50
aI5
aI3
aI3
aI13
aI1
aI0
ag8
ag37
((lp3362
g16
ag11
ag12
atRp3363
ag37
((lp3364
g16
ag11
ag12
atRp3365
aS'http://www.expedia.com/Punta-Cana-Hotels-Grand-Bahia-Principe-Punta-Cana-All-Inclusive.h1091208.Hotel-Information'
p3366
aS'2015-06-24 22:29:59.577401'
p3367
aa(lp3368
I1
aI482
aI00
ag50
aI5
aI2
aI5
aI12
aI1
aI0
ag8
ag37
((lp3369
g9
ag11
atRp3370
ag37
((lp3371
g10
ag16
ag9
ag11
ag12
atRp3372
aS'http://www.tenerifespaininfo.com/1/en/3/Information_Canary_Island_Canaries_Spain'
p3373
aS'2015-06-24 22:30:02.905585'
p3374
aa(lp3375
I1
aI483
aI00
ag50
aI5
aI0
aI5
aI20
aI1
aI0
ag8
ag37
((ltRp3376
ag37
((lp3377
g10
ag16
ag9
ag11
ag12
atRp3378
aS'http://www.homeaway.com/vacation-rental/p449877'
p3379
aS'2015-06-24 22:30:07.949035'
p3380
aa(lp3381
I1
aI484
aI00
ag50
aI5
aI0
aI0
aI1
aI1
aI0
ag8
ag37
((ltRp3382
ag37
((ltRp3383
aS'http://www.homeaway.com/vacation-rental/p6059833'
p3384
aS'2015-06-24 22:30:09.018601'
p3385
aa(lp3386
I1
aI485
aI00
ag50
aI5
aI1
aI5
aI18
aI1
aI0
ag8
ag37
((lp3387
g11
atRp3388
ag37
((lp3389
g10
ag16
ag9
ag11
ag12
atRp3390
aS'http://www.homeaway.com/vacation-rental/p863505'
p3391
aS'2015-06-24 22:30:10.687546'
p3392
aa(lp3393
I1
aI486
aI00
ag50
aI5
aI2
aI5
aI17
aI1
aI0
ag8
ag37
((lp3394
g16
ag12
atRp3395
ag37
((lp3396
g10
ag16
ag9
ag11
ag12
atRp3397
aS'http://www.homeaway.com/vacation-rental/p13816'
p3398
aS'2015-06-24 22:30:12.603042'
p3399
aa(lp3400
I1
aI487
aI00
ag50
aI5
aI1
aI5
aI16
aI1
aI0
ag8
ag37
((lp3401
g16
atRp3402
ag37
((lp3403
g10
ag16
ag9
ag11
ag12
atRp3404
aS'http://www.homeaway.com/vacation-rental/p8040221'
p3405
aS'2015-06-24 22:30:14.635548'
p3406
aa(lp3407
I1
aI488
aI00
ag50
aI5
aI2
aI5
aI17
aI1
aI0
ag8
ag37
((lp3408
g16
ag11
atRp3409
ag37
((lp3410
g10
ag16
ag9
ag11
ag12
atRp3411
aS'http://www.homeaway.com/vacation-rental/p64460'
p3412
aS'2015-06-24 22:30:16.574540'
p3413
aa(lp3414
I1
aI489
aI00
ag50
aI5
aI3
aI5
aI16
aI1
aI0
ag8
ag37
((lp3415
g10
ag9
ag11
atRp3416
ag37
((lp3417
g10
ag16
ag9
ag11
ag12
atRp3418
aS'http://www.homeaway.com/vacation-rental/p485765'
p3419
aS'2015-06-24 22:30:18.528357'
p3420
aa(lp3421
I1
aI490
aI00
ag50
aI5
aI2
aI5
aI13
aI1
aI0
ag8
ag37
((lp3422
g10
ag12
atRp3423
ag37
((lp3424
g10
ag16
ag9
ag11
ag12
atRp3425
aS'http://www.homeaway.com/vacation-rental/p1046125'
p3426
aS'2015-06-24 22:30:23.697988'
p3427
aa(lp3428
I1
aI491
aI00
ag50
aI5
aI2
aI5
aI14
aI1
aI0
ag8
ag37
((lp3429
g10
ag9
atRp3430
ag37
((lp3431
g10
ag16
ag9
ag11
ag12
atRp3432
aS'http://www.homeaway.com/vacation-rental/p6268307'
p3433
aS'2015-06-24 22:30:25.609132'
p3434
aa(lp3435
I1
aI492
aI00
ag50
aI5
aI2
aI5
aI15
aI1
aI0
ag8
ag37
((lp3436
g16
ag9
atRp3437
ag37
((lp3438
g10
ag16
ag9
ag11
ag12
atRp3439
aS'http://www.homeaway.com/vacation-rental/p880063a'
p3440
aS'2015-06-24 22:30:27.627829'
p3441
aa(lp3442
I1
aI493
aI00
ag50
aI5
aI1
aI5
aI21
aI1
aI0
ag8
ag37
((lp3443
g12
atRp3444
ag37
((lp3445
g10
ag16
ag9
ag11
ag12
atRp3446
aS'http://www.homeaway.com/vacation-rental/p84661'
p3447
aS'2015-06-24 22:30:29.510268'
p3448
aa(lp3449
I1
aI494
aI00
ag50
aI5
aI3
aI5
aI10
aI1
aI0
ag8
ag37
((lp3450
g10
ag11
ag12
atRp3451
ag37
((lp3452
g10
ag16
ag9
ag11
ag12
atRp3453
aS'http://trancoso-jungle-lodge.blogspot.com/'
p3454
aS'2015-06-24 22:30:31.782849'
p3455
aa(lp3456
I1
aI495
aI00
ag50
aI5
aI1
aI5
aI12
aI1
aI0
ag8
ag37
((lp3457
g12
atRp3458
ag37
((lp3459
g10
ag16
ag9
ag11
ag12
atRp3460
aS'https://www.pinterest.com/majosonica/home-deco/'
p3461
aS'2015-06-24 22:30:34.930995'
p3462
aa(lp3463
I1
aI496
aI00
ag50
aI5
aI2
aI5
aI16
aI1
aI0
ag8
ag37
((lp3464
g16
ag9
atRp3465
ag37
((lp3466
g10
ag16
ag9
ag11
ag12
atRp3467
aS'http://www.tripadvisor.com/Hotel_Review-g147243-d150657-Reviews-Grand_Pineapple_Beach_Antigua-St_John_s_Saint_John_Parish_Antigua_Antigua_and_Barbuda.html'
p3468
aS'2015-06-24 22:30:36.984565'
p3469
aa(lp3470
I1
aI497
aI00
ag50
aI5
aI0
aI5
aI24
aI1
aI0
ag8
ag37
((ltRp3471
ag37
((lp3472
g10
ag16
ag9
ag11
ag12
atRp3473
aS'http://www.tripadvisor.com/ShowUserReviews-g147293-d478252-r45603691-Grand_Bahia_Principe_Bavaro-Punta_Cana_La_Altagracia_Province_Dominican_Republic.html'
p3474
aS'2015-06-24 22:30:38.430301'
p3475
aa(lp3476
I1
aI498
aI00
ag50
aI5
aI3
aI5
aI19
aI1
aI0
ag8
ag37
((lp3477
g16
ag11
ag12
atRp3478
ag37
((lp3479
g10
ag16
ag9
ag11
ag12
atRp3480
aS'http://www.tripadvisor.com/ShowUserReviews-g34467-d85228-r104558847-The_Ritz_Carlton_Naples-Naples_Florida.html'
p3481
aS'2015-06-24 22:30:39.716720'
p3482
aa(lp3483
I1
aI499
aI00
ag50
aI5
aI1
aI5
aI16
aI1
aI0
ag8
ag37
((lp3484
g12
atRp3485
ag37
((lp3486
g10
ag16
ag9
ag11
ag12
atRp3487
aS'http://www.tripadvisor.com/ShowUserReviews-g147313-d209701-r92597872-Hotel_Riu_Palace_Tropical_Bay-Negril_Westmoreland_Parish_Jamaica.html'
p3488
aS'2015-06-24 22:30:40.886337'
p3489
aa(lp3490
I1
aI500
aI00
ag50
aI5
aI2
aI5
aI17
aI1
aI0
ag8
ag37
((lp3491
g9
ag11
atRp3492
ag37
((lp3493
g10
ag16
ag9
ag11
ag12
atRp3494
aS'http://www.homeaway.com/vacation-rental/p11710'
p3495
aS'2015-06-24 22:30:44.509295'
p3496
aa(lp3497
I1
aI501
aI00
ag50
aI5
aI2
aI5
aI17
aI1
aI0
ag8
ag37
((lp3498
g9
ag11
atRp3499
ag37
((lp3500
g10
ag16
ag9
ag11
ag12
atRp3501
aS'http://www.homeaway.com/vacation-rental/p3009558'
p3502
aS'2015-06-24 22:30:46.389440'
p3503
aa(lp3504
I1
aI502
aI00
ag50
aI5
aI2
aI5
aI19
aI1
aI0
ag8
ag37
((lp3505
g10
ag12
atRp3506
ag37
((lp3507
g10
ag16
ag9
ag11
ag12
atRp3508
aS'http://www.homeaway.com/vacation-rental/p877869a'
p3509
aS'2015-06-24 22:30:48.761232'
p3510
aa(lp3511
I1
aI503
aI00
ag50
aI5
aI2
aI5
aI15
aI1
aI0
ag8
ag37
((lp3512
g16
ag9
atRp3513
ag37
((lp3514
g10
ag16
ag9
ag11
ag12
atRp3515
aS'http://www.homeaway.com/vacation-rental/p448008'
p3516
aS'2015-06-24 22:30:50.546709'
p3517
aa(lp3518
I1
aI504
aI00
ag50
aI5
aI1
aI5
aI18
aI1
aI0
ag8
ag37
((lp3519
g9
atRp3520
ag37
((lp3521
g10
ag16
ag9
ag11
ag12
atRp3522
aS'http://www.homeaway.com/vacation-rental/p6592703'
p3523
aS'2015-06-24 22:30:54.714219'
p3524
aa(lp3525
I1
aI505
aI00
ag50
aI5
aI2
aI5
aI17
aI1
aI0
ag8
ag37
((lp3526
g10
ag11
atRp3527
ag37
((lp3528
g10
ag16
ag9
ag11
ag12
atRp3529
aS'http://www.homeaway.com/vacation-rental/p580299a'
p3530
aS'2015-06-24 22:30:56.512012'
p3531
aa(lp3532
I1
aI506
aI00
ag50
aI5
aI3
aI5
aI18
aI1
aI0
ag8
ag37
((lp3533
g16
ag11
ag12
atRp3534
ag37
((lp3535
g10
ag16
ag9
ag11
ag12
atRp3536
aS'http://www.homeaway.com/vacation-rental/p91965'
p3537
aS'2015-06-24 22:30:58.403175'
p3538
aa(lp3539
I1
aI507
aI00
ag50
aI5
aI3
aI5
aI18
aI1
aI0
ag8
ag37
((lp3540
g10
ag16
ag11
atRp3541
ag37
((lp3542
g10
ag16
ag9
ag11
ag12
atRp3543
aS'http://www.tripadvisor.com/ShowUserReviews-g580110-d1371926-r122958520-Noren_Resort-Ko_Chang_Trat_Province.html'
p3544
aS'2015-06-24 22:30:59.818270'
p3545
aa(lp3546
I1
aI508
aI00
ag50
aI5
aI3
aI5
aI11
aI1
aI0
ag8
ag37
((lp3547
g16
ag9
ag11
atRp3548
ag37
((lp3549
g10
ag16
ag9
ag11
ag12
atRp3550
aS'https://www.pinterest.com/saskiastewart/tra-la-la-la/'
p3551
aS'2015-06-24 22:31:03.497308'
p3552
aa(lp3553
I1
aI509
aI00
ag50
aI5
aI3
aI5
aI16
aI1
aI0
ag8
ag37
((lp3554
g10
ag16
ag9
atRp3555
ag37
((lp3556
g10
ag16
ag9
ag11
ag12
atRp3557
aS'http://www.travimp.com/hotel.php?msg=cunsrs'
p3558
aS'2015-06-24 22:31:04.716896'
p3559
aa(lp3560
I1
aI510
aI00
ag50
aI5
aI2
aI5
aI18
aI1
aI0
ag8
ag37
((lp3561
g16
ag9
atRp3562
ag37
((lp3563
g10
ag16
ag9
ag11
ag12
atRp3564
aS'https://www.flipkey.com/mons-farmhouse-rentals/p251638/'
p3565
aS'2015-06-24 22:31:08.897166'
p3566
aa(lp3567
I1
aI511
aI00
ag50
aI5
aI0
aI5
aI21
aI1
aI0
ag8
ag37
((ltRp3568
ag37
((lp3569
g10
ag16
ag9
ag11
ag12
atRp3570
aS'http://www.tripadvisor.com/ShowUserReviews-g642244-d599930-r152206816-Iberostar_Ensenachos-Cayo_Ensenachos_Cuba.html'
p3571
aS'2015-06-24 22:31:10.265007'
p3572
aa(lp3573
I1
aI512
aI00
ag50
aI5
aI2
aI5
aI15
aI1
aI0
ag8
ag37
((lp3574
g9
ag11
atRp3575
ag37
((lp3576
g10
ag16
ag9
ag11
ag12
atRp3577
aS'http://www.tripadvisor.com/ShowUserReviews-g259440-d630562-r282349474-La_Dolce_Vita_Residence-Las_Terrenas_Samana_Province_Dominican_Republic.html'
p3578
aS'2015-06-24 22:31:11.402222'
p3579
aa(lp3580
I1
aI513
aI00
ag50
aI5
aI2
aI5
aI17
aI1
aI0
ag8
ag37
((lp3581
g10
ag11
atRp3582
ag37
((lp3583
g10
ag16
ag9
ag11
ag12
atRp3584
aS'http://www.tripadvisor.com/ShowUserReviews-g312636-d969661-r71373379-Parkers_Cottages_St_Lucia-Saint_Lucia_KwaZulu_Natal.html'
p3585
aS'2015-06-24 22:31:12.464940'
p3586
aa(lp3587
I1
aI514
aI00
ag50
aI5
aI2
aI5
aI21
aI1
aI0
ag8
ag37
((lp3588
g16
ag11
atRp3589
ag37
((lp3590
g10
ag16
ag9
ag11
ag12
atRp3591
aS'http://www.homeaway.com/vacation-rental/p941362a'
p3592
aS'2015-06-24 22:31:13.987071'
p3593
aa(lp3594
I1
aI515
aI00
ag50
aI5
aI2
aI5
aI18
aI1
aI0
ag8
ag37
((lp3595
g16
ag11
atRp3596
ag37
((lp3597
g10
ag16
ag9
ag11
ag12
atRp3598
aS'http://www.homeaway.com/vacation-rental/p893973a'
p3599
aS'2015-06-24 22:31:16.347993'
p3600
aa(lp3601
I1
aI516
aI00
ag50
aI5
aI2
aI5
aI17
aI1
aI0
ag8
ag37
((lp3602
g10
ag9
atRp3603
ag37
((lp3604
g10
ag16
ag9
ag11
ag12
atRp3605
aS'http://www.homeaway.com/vacation-rental/p881944'
p3606
aS'2015-06-24 22:31:18.142440'
p3607
aa(lp3608
I1
aI517
aI00
ag50
aI5
aI1
aI5
aI17
aI1
aI0
ag8
ag37
((lp3609
g10
atRp3610
ag37
((lp3611
g10
ag16
ag9
ag11
ag12
atRp3612
aS'http://www.homeaway.com/vacation-rental/p3708613'
p3613
aS'2015-06-24 22:31:19.827661'
p3614
aa(lp3615
I1
aI518
aI00
ag50
aI5
aI2
aI5
aI13
aI1
aI0
ag8
ag37
((lp3616
g10
ag9
atRp3617
ag37
((lp3618
g10
ag16
ag9
ag11
ag12
atRp3619
aS'http://www.homeaway.com/vacation-rental/p211945'
p3620
aS'2015-06-24 22:31:21.724395'
p3621
aa(lp3622
I1
aI519
aI00
ag50
aI5
aI1
aI5
aI18
aI1
aI0
ag8
ag37
((lp3623
g11
atRp3624
ag37
((lp3625
g10
ag16
ag9
ag11
ag12
atRp3626
aS'http://www.homeaway.com/vacation-rental/p924832a'
p3627
aS'2015-06-24 22:31:23.487566'
p3628
aa(lp3629
I1
aI520
aI00
ag50
aI5
aI3
aI5
aI15
aI1
aI0
ag8
ag37
((lp3630
g10
ag16
ag12
atRp3631
ag37
((lp3632
g10
ag16
ag9
ag11
ag12
atRp3633
aS'http://www.tripadvisor.com/ShowUserReviews-g187525-d264380-r282542071-Hotel_RH_Corona_del_Mar-Benidorm_Costa_Blanca_Alicante_Province_Valencian_Country.html'
p3634
aS'2015-06-24 22:31:27.500772'
p3635
aa(lp3636
I1
aI521
aI00
ag50
aI5
aI1
aI5
aI22
aI1
aI0
ag8
ag37
((lp3637
g16
atRp3638
ag37
((lp3639
g10
ag16
ag9
ag11
ag12
atRp3640
aS'http://www.tripadvisor.com/ShowUserReviews-g663484-d1163459-r120798505-Dreams_La_Romana-Bayahibe_La_Altagracia_Province_Dominican_Republic.html'
p3641
aS'2015-06-24 22:31:28.733205'
p3642
aa(lp3643
I1
aI522
aI00
ag50
aI5
aI3
aI5
aI22
aI1
aI0
ag8
ag37
((lp3644
g16
ag9
ag11
atRp3645
ag37
((lp3646
g10
ag16
ag9
ag11
ag12
atRp3647
aS'http://www.tripadvisor.com/ShowUserReviews-g737152-d263973-r60409011-Sol_Cayo_Largo-Cayo_Largo_Cuba.html'
p3648
aS'2015-06-24 22:31:29.887344'
p3649
aa(lp3650
I1
aI523
aI00
ag50
aI5
aI2
aI5
aI16
aI1
aI0
ag8
ag37
((lp3651
g10
ag12
atRp3652
ag37
((lp3653
g10
ag16
ag9
ag11
ag12
atRp3654
aS'http://www.tripadvisor.com/ShowUserReviews-g663501-d569579-r282240749-The_Grand_Mayan_Riviera_Maya-Playa_Paraiso_Playa_del_Carmen_Yucatan_Peninsula.html'
p3655
aS'2015-06-24 22:31:31.009689'
p3656
aa(lp3657
I1
aI524
aI00
ag50
aI5
aI0
aI5
aI19
aI1
aI0
ag8
ag37
((ltRp3658
ag37
((lp3659
g10
ag16
ag9
ag11
ag12
atRp3660
aS'http://www.tripadvisor.com/ShowUserReviews-g240327-d248849-r252960685-Now_Sapphire_Riviera_Cancun-Puerto_Morelos_Yucatan_Peninsula.html'
p3661
aS'2015-06-24 22:31:32.317777'
p3662
aa(lp3663
I1
aI525
aI00
ag50
aI5
aI2
aI5
aI21
aI1
aI0
ag8
ag37
((lp3664
g10
ag16
atRp3665
ag37
((lp3666
g10
ag16
ag9
ag11
ag12
atRp3667
aS'http://lionsandbirdiestours.com/tours.html'
p3668
aS'2015-06-24 22:31:33.051993'
p3669
aa(lp3670
I1
aI526
aI00
ag50
aI5
aI4
aI5
aI18
aI1
aI0
ag8
ag37
((lp3671
g10
ag16
ag9
ag12
atRp3672
ag37
((lp3673
g10
ag16
ag9
ag11
ag12
atRp3674
aS'http://www.homeaway.com/vacation-rental/p3589529'
p3675
aS'2015-06-24 22:31:35.028568'
p3676
aa(lp3677
I1
aI527
aI00
ag50
aI5
aI2
aI5
aI18
aI1
aI0
ag8
ag37
((lp3678
g16
ag11
atRp3679
ag37
((lp3680
g10
ag16
ag9
ag11
ag12
atRp3681
aS'http://www.homeaway.com/vacation-rental/p1091730'
p3682
aS'2015-06-24 22:31:36.959119'
p3683
aa(lp3684
I1
aI528
aI00
ag50
aI5
aI2
aI5
aI17
aI1
aI0
ag8
ag37
((lp3685
g11
ag12
atRp3686
ag37
((lp3687
g10
ag16
ag9
ag11
ag12
atRp3688
aS'http://www.homeaway.com/vacation-rental/p647769a'
p3689
aS'2015-06-24 22:31:38.664406'
p3690
aa(lp3691
I1
aI529
aI00
ag50
aI5
aI1
aI5
aI19
aI1
aI0
ag8
ag37
((lp3692
g12
atRp3693
ag37
((lp3694
g10
ag16
ag9
ag11
ag12
atRp3695
aS'http://bookit.com/dominican-republic/punta-cana/hotels/dreams-punta-cana-resort-and-spa-unlimited-luxury/'
p3696
aS'2015-06-24 22:31:39.856385'
p3697
aa(lp3698
I1
aI530
aI00
ag50
aI5
aI2
aI5
aI20
aI1
aI0
ag8
ag37
((lp3699
g10
ag11
atRp3700
ag37
((lp3701
g10
ag16
ag9
ag11
ag12
atRp3702
aS'http://www.tripadvisor.com/ShowUserReviews-g147249-d151277-r63068532-Hotel_Riu_Palace_Aruba-Palm_Eagle_Beach_Aruba.html'
p3703
aS'2015-06-24 22:31:43.581138'
p3704
aa(lp3705
I1
aI531
aI00
ag50
aI5
aI1
aI5
aI21
aI1
aI0
ag8
ag37
((lp3706
g10
atRp3707
ag37
((lp3708
g10
ag16
ag9
ag11
ag12
atRp3709
aS'http://www.tripadvisor.com/ShowUserReviews-g147275-d270082-r262511513-Royalton_Hicacos_Varadero_Resort_Spa-Varadero_Matanzas_Province_Cuba.html'
p3710
aS'2015-06-24 22:31:44.780800'
p3711
aa(lp3712
I1
aI532
aI00
ag50
aI5
aI2
aI5
aI15
aI1
aI0
ag8
ag37
((lp3713
g9
ag12
atRp3714
ag37
((lp3715
g10
ag16
ag9
ag11
ag12
atRp3716
aS'http://www.tripadvisor.com/ShowUserReviews-g298342-d316743-r120906071-LUX_Belle_Mare-Belle_Mare.html'
p3717
aS'2015-06-24 22:31:45.973334'
p3718
aa(lp3719
I1
aI533
aI00
ag50
aI5
aI1
aI4
aI13
aI1
aI0
ag8
ag37
((lp3720
g9
atRp3721
ag37
((lp3722
g10
ag16
ag9
ag12
atRp3723
aS'http://www.tripadvisor.com/Hotel_Review-g34731-d120532-Reviews-Courtyard_West_Palm_Beach-West_Palm_Beach_Florida.html'
p3724
aS'2015-06-24 22:31:47.617474'
p3725
aa(lp3726
I1
aI534
aI00
ag50
aI5
aI1
aI5
aI17
aI1
aI0
ag8
ag37
((lp3727
g12
atRp3728
ag37
((lp3729
g10
ag16
ag9
ag11
ag12
atRp3730
aS'http://www.homeaway.com/vacation-rental/p1170991'
p3731
aS'2015-06-24 22:31:49.333228'
p3732
aa(lp3733
I1
aI535
aI00
ag50
aI5
aI4
aI5
aI16
aI1
aI0
ag8
ag37
((lp3734
g10
ag16
ag9
ag12
atRp3735
ag37
((lp3736
g10
ag16
ag9
ag11
ag12
atRp3737
aS'http://www.homeaway.com/vacation-rental/p805513'
p3738
aS'2015-06-24 22:31:51.167663'
p3739
aa(lp3740
I1
aI536
aI00
ag50
aI5
aI2
aI5
aI16
aI1
aI0
ag8
ag37
((lp3741
g9
ag11
atRp3742
ag37
((lp3743
g10
ag16
ag9
ag11
ag12
atRp3744
aS'http://www.homeaway.com/vacation-rental/p905381'
p3745
aS'2015-06-24 22:31:52.778844'
p3746
aa(lp3747
I1
aI537
aI00
ag50
aI5
aI3
aI5
aI17
aI1
aI0
ag8
ag37
((lp3748
g16
ag9
ag11
atRp3749
ag37
((lp3750
g10
ag16
ag9
ag11
ag12
atRp3751
aS'http://www.homeaway.com/vacation-rental/p383180'
p3752
aS'2015-06-24 22:31:54.528782'
p3753
aa(lp3754
I1
aI538
aI00
ag50
aI5
aI3
aI5
aI19
aI1
aI0
ag8
ag37
((lp3755
g10
ag16
ag12
atRp3756
ag37
((lp3757
g10
ag16
ag9
ag11
ag12
atRp3758
aS'http://www.filminflorida.com/ifi/dd_hotel.asp'
p3759
aS'2015-06-24 22:31:55.295069'
p3760
aa(lp3761
I1
aI539
aI00
ag50
aI5
aI0
aI5
aI24
aI1
aI0
ag8
ag37
((ltRp3762
ag37
((lp3763
g10
ag16
ag9
ag11
ag12
atRp3764
aS'http://www.sellstatepriority.com/communities-bonita-springs'
p3765
aS'2015-06-24 22:31:55.773678'
p3766
aa(lp3767
I1
aI540
aI00
ag50
aI5
aI0
aI1
aI7
aI1
aI0
ag8
ag37
((ltRp3768
ag37
((lp3769
g9
atRp3770
aS'http://www.expedia.com/Lisbon-Hotels-Albatroz-Hotel.h804613.Hotel-Information'
p3771
aS'2015-06-24 22:31:59.738271'
p3772
aa(lp3773
I1
aI541
aI00
ag50
aI5
aI4
aI5
aI13
aI1
aI0
ag8
ag37
((lp3774
g16
ag9
ag11
ag12
atRp3775
ag37
((lp3776
g10
ag16
ag9
ag11
ag12
atRp3777
aS'http://berlincheesecake.blogspot.com/2009_07_01_archive.html'
p3778
aS'2015-06-24 22:32:01.950643'
p3779
aa(lp3780
I1
aI542
aI00
ag50
aI5
aI1
aI5
aI15
aI1
aI0
ag8
ag37
((lp3781
g11
atRp3782
ag37
((lp3783
g10
ag16
ag9
ag11
ag12
atRp3784
aS'http://www.homeaway.com/vacation-rental/p1022679'
p3785
aS'2015-06-24 22:32:03.228607'
p3786
aa(lp3787
I1
aI543
aI00
ag50
aI5
aI2
aI5
aI15
aI1
aI0
ag8
ag37
((lp3788
g16
ag12
atRp3789
ag37
((lp3790
g10
ag16
ag9
ag11
ag12
atRp3791
aS'http://www.homeaway.com/vacation-rental/p54887'
p3792
aS'2015-06-24 22:32:05.075506'
p3793
aa(lp3794
I1
aI544
aI00
ag50
aI5
aI2
aI5
aI21
aI1
aI0
ag8
ag37
((lp3795
g10
ag12
atRp3796
ag37
((lp3797
g10
ag16
ag9
ag11
ag12
atRp3798
aS'http://www.homeaway.com/vacation-rental/p878281'
p3799
aS'2015-06-24 22:32:10.263851'
p3800
aa(lp3801
I1
aI545
aI00
ag50
aI5
aI1
aI5
aI20
aI1
aI0
ag8
ag37
((lp3802
g16
atRp3803
ag37
((lp3804
g10
ag16
ag9
ag11
ag12
atRp3805
aS'http://www.homeaway.com/vacation-rental/p1635329'
p3806
aS'2015-06-24 22:32:13.011699'
p3807
aa(lp3808
I1
aI546
aI00
ag50
aI5
aI0
aI5
aI22
aI1
aI0
ag8
ag37
((ltRp3809
ag37
((lp3810
g10
ag16
ag9
ag11
ag12
atRp3811
aS'http://www.homeaway.com/vacation-rental/p293395'
p3812
aS'2015-06-24 22:32:15.013606'
p3813
aa(lp3814
I1
aI547
aI00
ag50
aI5
aI3
aI5
aI15
aI1
aI0
ag8
ag37
((lp3815
g16
ag9
ag11
atRp3816
ag37
((lp3817
g10
ag16
ag9
ag11
ag12
atRp3818
aS'http://www.tripadvisor.com/ShowUserReviews-g660724-d1200370-r149562805-Hilton_Rose_Hall_Resort_Spa-Rose_Hall_Montego_Bay_Saint_James_Parish_Jamaica.html'
p3819
aS'2015-06-24 22:32:16.688986'
p3820
aa(lp3821
I1
aI548
aI00
ag50
aI5
aI1
aI4
aI17
aI1
aI0
ag8
ag37
((lp3822
g10
atRp3823
ag37
((lp3824
g10
ag9
ag11
ag12
atRp3825
aS'http://www.tripadvisor.com/ShowUserReviews-g294261-d320851-r142830285-Alegre_Beach_Resort-Cebu_Island_Visayas.html'
p3826
aS'2015-06-24 22:32:18.126218'
p3827
aa(lp3828
I1
aI549
aI00
ag50
aI5
aI3
aI5
aI15
aI1
aI0
ag8
ag37
((lp3829
g16
ag9
ag12
atRp3830
ag37
((lp3831
g10
ag16
ag9
ag11
ag12
atRp3832
aS'http://castawaystravel.com/lasource/lasource-main.htm'
p3833
aS'2015-06-24 22:32:18.437082'
p3834
aa(lp3835
I1
aI550
aI00
ag50
aI5
aI0
aI0
aI1
aI1
aI0
ag8
ag37
((ltRp3836
ag37
((ltRp3837
aS'http://www.homeaway.com/vacation-rental/p64754'
p3838
aS'2015-06-24 22:32:21.169512'
p3839
aa(lp3840
I1
aI551
aI00
ag50
aI5
aI2
aI5
aI17
aI1
aI0
ag8
ag37
((lp3841
g10
ag12
atRp3842
ag37
((lp3843
g10
ag16
ag9
ag11
ag12
atRp3844
aS'http://www.homeaway.com/vacation-rental/p3728840'
p3845
aS'2015-06-24 22:32:23.067530'
p3846
aa(lp3847
I1
aI552
aI00
ag50
aI5
aI2
aI5
aI17
aI1
aI0
ag8
ag37
((lp3848
g9
ag12
atRp3849
ag37
((lp3850
g10
ag16
ag9
ag11
ag12
atRp3851
aS'http://www.homeaway.com/vacation-rental/p13278'
p3852
aS'2015-06-24 22:32:25.187645'
p3853
aa(lp3854
I1
aI553
aI00
ag50
aI5
aI1
aI5
aI16
aI1
aI0
ag8
ag37
((lp3855
g16
atRp3856
ag37
((lp3857
g10
ag16
ag9
ag11
ag12
atRp3858
aS'http://www.homeaway.com/vacation-rental/p147114'
p3859
aS'2015-06-24 22:32:27.041564'
p3860
aa(lp3861
I1
aI554
aI00
ag50
aI5
aI2
aI5
aI16
aI1
aI0
ag8
ag37
((lp3862
g16
ag11
atRp3863
ag37
((lp3864
g10
ag16
ag9
ag11
ag12
atRp3865
aS'http://www.tripadvisor.com/ShowUserReviews-g1210687-d540134-r5432279-Katathani_Phuket_Beach_Resort-Kata_Beach_Phuket.html'
p3866
aS'2015-06-24 22:32:28.444117'
p3867
aa(lp3868
I1
aI555
aI00
ag50
aI5
aI1
aI5
aI22
aI1
aI0
ag8
ag37
((lp3869
g9
atRp3870
ag37
((lp3871
g10
ag16
ag9
ag11
ag12
atRp3872
aS'http://www.tripadvisor.com/ShowUserReviews-g147313-d148625-r23469107-Couples_Negril-Negril_Westmoreland_Parish_Jamaica.html'
p3873
aS'2015-06-24 22:32:29.743901'
p3874
aa(lp3875
I1
aI556
aI00
ag50
aI5
aI2
aI5
aI17
aI1
aI0
ag8
ag37
((lp3876
g10
ag9
atRp3877
ag37
((lp3878
g10
ag16
ag9
ag11
ag12
atRp3879
aS'http://www.tripadvisor.com/ShowUserReviews-g659630-d288788-r271952542-SENTIDO_Carda_Beach-Kardamena_Kos_Dodecanese.html'
p3880
aS'2015-06-24 22:32:32.198029'
p3881
aa(lp3882
I1
aI557
aI00
ag50
aI5
aI2
aI5
aI13
aI1
aI0
ag8
ag37
((lp3883
g11
ag12
atRp3884
ag37
((lp3885
g10
ag16
ag9
ag11
ag12
atRp3886
aS'http://www.tripadvisor.com/ShowUserReviews-g1904143-d230950-r282015417-SENTIDO_Sandy_Beach-Pyla_Larnaka_City_Larnaka_District.html'
p3887
aS'2015-06-24 22:32:32.666123'
p3888
aa(lp3889
I1
aI558
aI00
ag50
aI5
aI2
aI5
aI14
aI1
aI0
ag8
ag37
((lp3890
g16
ag9
atRp3891
ag37
((lp3892
g10
ag16
ag9
ag11
ag12
atRp3893
aS'https://www.pinterest.com/giselleott/living-rooms/'
p3894
aS'2015-06-24 22:32:35.961801'
p3895
aa(lp3896
I1
aI559
aI00
ag50
aI5
aI2
aI5
aI11
aI1
aI0
ag8
ag37
((lp3897
g16
ag12
atRp3898
ag37
((lp3899
g10
ag16
ag9
ag11
ag12
atRp3900
aS'http://steamcommunity.com/app/263440/guides/?l=german&browsesort=mostrecent&browsefilter=mostrecent&p=1'
p3901
aS'2015-06-24 22:32:38.466382'
p3902
aa(lp3903
I1
aI560
aI00
ag50
aI5
aI2
aI5
aI11
aI1
aI0
ag8
ag37
((lp3904
g10
ag11
atRp3905
ag37
((lp3906
g10
ag16
ag9
ag11
ag12
atRp3907
aS'http://steamcommunity.com/app/263440/guides/?l=italian&browsesort=mostrecent&browsefilter=mostrecent&p=1'
p3908
aS'2015-06-24 22:32:42.045004'
p3909
aa(lp3910
I1
aI561
aI00
ag50
aI5
aI3
aI5
aI19
aI1
aI0
ag8
ag37
((lp3911
g10
ag16
ag9
atRp3912
ag37
((lp3913
g10
ag16
ag9
ag11
ag12
atRp3914
aS'http://www.tripadvisor.com/ShowUserReviews-g147290-d265694-r21486157-ClubHotel_Riu_Bachata-Puerto_Plata_Puerto_Plata_Province_Dominican_Republic.html'
p3915
aS'2015-06-24 22:32:43.445971'
p3916
aa(lp3917
I1
aI562
aI00
ag50
aI5
aI2
aI5
aI16
aI1
aI0
ag8
ag37
((lp3918
g9
ag11
atRp3919
ag37
((lp3920
g10
ag16
ag9
ag11
ag12
atRp3921
aS'http://www.tripadvisor.com/ShowUserReviews-g34515-d85983-r280654639-Disney_s_Caribbean_Beach_Resort-Orlando_Florida.html'
p3922
aS'2015-06-24 22:32:44.720623'
p3923
aa(lp3924
I1
aI563
aI00
ag50
aI5
aI2
aI5
aI16
aI1
aI0
ag8
ag37
((lp3925
g16
ag9
atRp3926
ag37
((lp3927
g10
ag16
ag9
ag11
ag12
atRp3928
aS'http://www.tripadvisor.com/ShowUserReviews-g150813-d591029-r264210300-Dreams_Tulum_Resort_Spa-Tulum_Yucatan_Peninsula.html'
p3929
aS'2015-06-24 22:32:45.897485'
p3930
aa(lp3931
I1
aI564
aI00
ag50
aI5
aI2
aI5
aI20
aI1
aI0
ag8
ag37
((lp3932
g16
ag12
atRp3933
ag37
((lp3934
g10
ag16
ag9
ag11
ag12
atRp3935
aS'http://www.tripadvisor.com/ShowUserReviews-g1087527-d307509-r165649561-Cidade_de_Goa-Dona_Paula_Goa.html'
p3936
aS'2015-06-24 22:32:47.002230'
p3937
aa(lp3938
I1
aI565
aI00
ag50
aI5
aI1
aI5
aI18
aI1
aI0
ag8
ag37
((lp3939
g12
atRp3940
ag37
((lp3941
g10
ag16
ag9
ag11
ag12
atRp3942
aS'http://www.homeaway.com/vacation-rental/p1364276'
p3943
aS'2015-06-24 22:32:48.151378'
p3944
aa(lp3945
I1
aI566
aI00
ag50
aI5
aI1
aI5
aI14
aI1
aI0
ag8
ag37
((lp3946
g16
atRp3947
ag37
((lp3948
g10
ag16
ag9
ag11
ag12
atRp3949
aS'http://www.homeaway.com/vacation-rental/p64548'
p3950
aS'2015-06-24 22:32:50.020534'
p3951
aa(lp3952
I1
aI567
aI00
ag50
aI5
aI3
aI5
aI18
aI1
aI0
ag8
ag37
((lp3953
g10
ag16
ag9
atRp3954
ag37
((lp3955
g10
ag16
ag9
ag11
ag12
atRp3956
aS'http://www.homeaway.com/vacation-rental/p52941'
p3957
aS'2015-06-24 22:32:52.123727'
p3958
aa(lp3959
I1
aI568
aI00
ag50
aI5
aI2
aI5
aI16
aI1
aI0
ag8
ag37
((lp3960
g16
ag12
atRp3961
ag37
((lp3962
g10
ag16
ag9
ag11
ag12
atRp3963
aS'http://www.homeaway.com/vacation-rental/p470620'
p3964
aS'2015-06-24 22:32:54.122785'
p3965
aa(lp3966
I1
aI569
aI00
ag50
aI5
aI0
aI5
aI17
aI1
aI0
ag8
ag37
((ltRp3967
ag37
((lp3968
g10
ag16
ag9
ag11
ag12
atRp3969
aS'http://www.homeaway.com/vacation-rental/p842846'
p3970
aS'2015-06-24 22:32:56.093079'
p3971
aa(lp3972
I1
aI570
aI00
ag50
aI5
aI3
aI3
aI13
aI1
aI0
ag8
ag37
((lp3973
g16
ag9
ag11
atRp3974
ag37
((lp3975
g16
ag9
ag11
atRp3976
aS'https://www.pinterest.com/hellolucky/color-palettes/'
p3977
aS'2015-06-24 22:33:01.134060'
p3978
aa(lp3979
I1
aI571
aI00
ag50
aI5
aI2
aI5
aI17
aI1
aI0
ag8
ag37
((lp3980
g11
ag12
atRp3981
ag37
((lp3982
g10
ag16
ag9
ag11
ag12
atRp3983
aS'http://www.homeaway.com/vacation-rental/p123779'
p3984
aS'2015-06-24 22:33:03.959933'
p3985
aa(lp3986
I1
aI572
aI00
ag50
aI5
aI0
aI5
aI21
aI1
aI0
ag8
ag37
((ltRp3987
ag37
((lp3988
g10
ag16
ag9
ag11
ag12
atRp3989
aS'http://www.homeaway.com/vacation-rental/p140109'
p3990
aS'2015-06-24 22:33:05.812484'
p3991
aa(lp3992
I1
aI573
aI00
ag50
aI5
aI1
aI5
aI19
aI1
aI0
ag8
ag37
((lp3993
g9
atRp3994
ag37
((lp3995
g10
ag16
ag9
ag11
ag12
atRp3996
aS'http://www.homeaway.com/vacation-rental/p46997'
p3997
aS'2015-06-24 22:33:08.001503'
p3998
aa(lp3999
I1
aI574
aI00
ag50
aI5
aI2
aI5
aI18
aI1
aI0
ag8
ag37
((lp4000
g10
ag9
atRp4001
ag37
((lp4002
g10
ag16
ag9
ag11
ag12
atRp4003
aS'http://www.homeaway.com/vacation-rental/p6097'
p4004
aS'2015-06-24 22:33:10.073835'
p4005
aa(lp4006
I1
aI575
aI00
ag50
aI5
aI2
aI5
aI19
aI1
aI0
ag8
ag37
((lp4007
g10
ag12
atRp4008
ag37
((lp4009
g10
ag16
ag9
ag11
ag12
atRp4010
aS'http://www.homeaway.com/vacation-rental/p96796'
p4011
aS'2015-06-24 22:33:12.358077'
p4012
aa(lp4013
I1
aI576
aI00
ag50
aI5
aI1
aI5
aI20
aI1
aI0
ag8
ag37
((lp4014
g9
atRp4015
ag37
((lp4016
g10
ag16
ag9
ag11
ag12
atRp4017
aS'http://www.tripadvisor.com/ShowUserReviews-g644052-d300969-r24188193-Tango_Mar_Beachfront_Boutique_Hotel_Villas-Tambor_Province_of_Puntarenas.html'
p4018
aS'2015-06-24 22:33:13.987266'
p4019
aa(lp4020
I1
aI577
aI00
ag50
aI5
aI1
aI5
aI28
aI1
aI0
ag8
ag37
((lp4021
g9
atRp4022
ag37
((lp4023
g10
ag16
ag9
ag11
ag12
atRp4024
aS'http://www.tripadvisor.com/ShowUserReviews-g150812-d2299038-r253584301-Paradisus_Playa_Del_Carmen_La_Esmeralda-Playa_del_Carmen_Yucatan_Peninsula.html'
p4025
aS'2015-06-24 22:33:15.338210'
p4026
aa(lp4027
I1
aI578
aI00
ag50
aI5
aI2
aI5
aI17
aI1
aI0
ag8
ag37
((lp4028
g16
ag11
atRp4029
ag37
((lp4030
g10
ag16
ag9
ag11
ag12
atRp4031
aS'http://www.tripadvisor.com/ShowUserReviews-g488102-d477273-r143749276-Beachcomber_Shandrani_Resort_Spa-Blue_Bay.html'
p4032
aS'2015-06-24 22:33:16.522075'
p4033
aa(lp4034
I1
aI579
aI00
ag50
aI5
aI3
aI5
aI13
aI1
aI0
ag8
ag37
((lp4035
g10
ag9
ag12
atRp4036
ag37
((lp4037
g10
ag16
ag9
ag11
ag12
atRp4038
aS'http://steamcommunity.com/app/346110/discussions/0/615085406675699567/'
p4039
aS'2015-06-24 22:33:17.582515'
p4040
aa(lp4041
I1
aI580
aI00
ag50
aI5
aI2
aI5
aI17
aI1
aI0
ag8
ag37
((lp4042
g10
ag16
atRp4043
ag37
((lp4044
g10
ag16
ag9
ag11
ag12
atRp4045
aS'http://www.homeaway.com/vacation-rental/p490366'
p4046
aS'2015-06-24 22:33:22.069148'
p4047
aa(lp4048
I1
aI581
aI00
ag50
aI5
aI3
aI5
aI16
aI1
aI0
ag8
ag37
((lp4049
g9
ag11
ag12
atRp4050
ag37
((lp4051
g10
ag16
ag9
ag11
ag12
atRp4052
aS'http://www.homeaway.com/vacation-rental/p292267'
p4053
aS'2015-06-24 22:33:23.911056'
p4054
aa(lp4055
I1
aI582
aI00
ag50
aI5
aI0
aI0
aI1
aI1
aI0
ag8
ag37
((ltRp4056
ag37
((ltRp4057
aS'http://www.homeaway.com/vacation-rental/p412659'
p4058
aS'2015-06-24 22:33:24.689327'
p4059
aa(lp4060
I1
aI583
aI00
ag50
aI5
aI2
aI5
aI14
aI1
aI0
ag8
ag37
((lp4061
g16
ag9
atRp4062
ag37
((lp4063
g10
ag16
ag9
ag11
ag12
atRp4064
aS'http://www.homeaway.com/vacation-rental/p816635'
p4065
aS'2015-06-24 22:33:26.449732'
p4066
aa(lp4067
I1
aI584
aI00
ag50
aI5
aI3
aI5
aI17
aI1
aI0
ag8
ag37
((lp4068
g16
ag11
ag12
atRp4069
ag37
((lp4070
g10
ag16
ag9
ag11
ag12
atRp4071
aS'http://www.homeaway.com/vacation-rental/p859721'
p4072
aS'2015-06-24 22:33:28.493579'
p4073
aa(lp4074
I1
aI585
aI00
ag50
aI5
aI2
aI5
aI17
aI1
aI0
ag8
ag37
((lp4075
g10
ag12
atRp4076
ag37
((lp4077
g10
ag16
ag9
ag11
ag12
atRp4078
aS'http://www.homeaway.com/vacation-rental/p941524a'
p4079
aS'2015-06-24 22:33:30.548872'
p4080
aa(lp4081
I1
aI586
aI00
ag50
aI5
aI3
aI5
aI15
aI1
aI0
ag8
ag37
((lp4082
g9
ag11
ag12
atRp4083
ag37
((lp4084
g10
ag16
ag9
ag11
ag12
atRp4085
aS'https://www.pinterest.com/mcaffeemerc/cottage-white/'
p4086
aS'2015-06-24 22:33:33.574772'
p4087
aa(lp4088
I1
aI587
aI00
ag50
aI5
aI1
aI5
aI18
aI1
aI0
ag8
ag37
((lp4089
g10
atRp4090
ag37
((lp4091
g10
ag16
ag9
ag11
ag12
atRp4092
aS'http://www.tripadvisor.com/ShowUserReviews-g297550-d607595-r128402568-The_Makadi_Palace_Hotel-Makadi_Bay_Red_Sea_and_Sinai.html'
p4093
aS'2015-06-24 22:33:35.659866'
p4094
aa(lp4095
I1
aI588
aI00
ag50
aI5
aI3
aI5
aI18
aI1
aI0
ag8
ag37
((lp4096
g9
ag11
ag12
atRp4097
ag37
((lp4098
g10
ag16
ag9
ag11
ag12
atRp4099
aS'http://www.tripadvisor.com/ShowUserReviews-g60654-d268660-r247419894-Ihilani_Resort_Spa_at_Ko_Olina-Kapolei_Oahu_Hawaii.html'
p4100
aS'2015-06-24 22:33:36.902875'
p4101
aa(lp4102
I1
aI589
aI00
ag50
aI5
aI3
aI5
aI13
aI1
aI0
ag8
ag37
((lp4103
g10
ag16
ag9
atRp4104
ag37
((lp4105
g10
ag16
ag9
ag11
ag12
atRp4106
aS'http://www.tripadvisor.com/Hotels-g196484-Porto_Vecchio_Corse_du_Sud_Corsica-Hotels.html'
p4107
aS'2015-06-24 22:33:38.780154'
p4108
aa(lp4109
I1
aI590
aI00
ag50
aI5
aI1
aI5
aI16
aI1
aI0
ag8
ag37
((lp4110
g11
atRp4111
ag37
((lp4112
g10
ag16
ag9
ag11
ag12
atRp4113
aS'http://www.homeaway.com/vacation-rental/p108012'
p4114
aS'2015-06-24 22:33:42.745109'
p4115
aa(lp4116
I1
aI591
aI00
ag50
aI5
aI1
aI5
aI19
aI1
aI0
ag8
ag37
((lp4117
g12
atRp4118
ag37
((lp4119
g10
ag16
ag9
ag11
ag12
atRp4120
aS'http://www.homeaway.com/vacation-rental/p496861'
p4121
aS'2015-06-24 22:33:45.149469'
p4122
aa(lp4123
I1
aI592
aI00
ag50
aI5
aI2
aI5
aI17
aI1
aI0
ag8
ag37
((lp4124
g10
ag12
atRp4125
ag37
((lp4126
g10
ag16
ag9
ag11
ag12
atRp4127
aS'http://www.homeaway.com/vacation-rental/p1229658'
p4128
aS'2015-06-24 22:33:46.900055'
p4129
aa(lp4130
I1
aI593
aI00
ag50
aI5
aI3
aI5
aI19
aI1
aI0
ag8
ag37
((lp4131
g16
ag9
ag12
atRp4132
ag37
((lp4133
g10
ag16
ag9
ag11
ag12
atRp4134
aS'http://www.homeaway.com/vacation-rental/p773317'
p4135
aS'2015-06-24 22:33:48.889120'
p4136
aa(lp4137
I1
aI594
aI00
ag50
aI5
aI2
aI5
aI15
aI1
aI0
ag8
ag37
((lp4138
g16
ag11
atRp4139
ag37
((lp4140
g10
ag16
ag9
ag11
ag12
atRp4141
aS'http://www.homeaway.com/vacation-rental/p3668145'
p4142
aS'2015-06-24 22:33:50.609571'
p4143
aa(lp4144
I1
aI595
aI00
ag50
aI5
aI3
aI5
aI14
aI1
aI0
ag8
ag37
((lp4145
g16
ag9
ag11
atRp4146
ag37
((lp4147
g10
ag16
ag9
ag11
ag12
atRp4148
aS'http://www.homeaway.com/vacation-rental/p423607'
p4149
aS'2015-06-24 22:33:52.672160'
p4150
aa(lp4151
I1
aI596
aI00
ag50
aI5
aI2
aI5
aI13
aI1
aI0
ag8
ag37
((lp4152
g10
ag9
atRp4153
ag37
((lp4154
g10
ag16
ag9
ag11
ag12
atRp4155
aS'http://www.homeaway.com/vacation-rental/p566227a'
p4156
aS'2015-06-24 22:33:54.744035'
p4157
aa(lp4158
I1
aI597
aI00
ag50
aI5
aI1
aI5
aI20
aI1
aI0
ag8
ag37
((lp4159
g10
atRp4160
ag37
((lp4161
g10
ag16
ag9
ag11
ag12
atRp4162
aS'http://www.homeaway.com/vacation-rental/p88023'
p4163
aS'2015-06-24 22:33:56.567844'
p4164
aa(lp4165
I1
aI598
aI00
ag50
aI5
aI2
aI5
aI18
aI1
aI0
ag8
ag37
((lp4166
g16
ag9
atRp4167
ag37
((lp4168
g10
ag16
ag9
ag11
ag12
atRp4169
aS'http://www.homeaway.com/vacation-rental/p177069'
p4170
aS'2015-06-24 22:33:58.441959'
p4171
aa(lp4172
I1
aI599
aI00
ag50
aI5
aI3
aI5
aI16
aI1
aI0
ag8
ag37
((lp4173
g10
ag11
ag12
atRp4174
ag37
((lp4175
g10
ag16
ag9
ag11
ag12
atRp4176
aS'http://www.tripadvisor.com/ShowUserReviews-g150807-d154897-r281955334-Omni_Cancun_Hotel_Villas-Cancun_Yucatan_Peninsula.html'
p4177
aS'2015-06-24 22:34:00.046751'
p4178
aa(lp4179
I1
aI600
aI00
ag50
aI5
aI1
aI5
aI19
aI1
aI0
ag8
ag37
((lp4180
g11
atRp4181
ag37
((lp4182
g10
ag16
ag9
ag11
ag12
atRp4183
aS'http://www.tripadvisor.com/ShowUserReviews-g147248-d147644-r24092651-Renaissance_Aruba_Resort_Casino-Oranjestad_Aruba.html'
p4184
aS'2015-06-24 22:34:03.797852'
p4185
aa(lp4186
I1
aI1
aI00
ag36
aI4
aI1
aI4
aI14
aI0
aI1
ag8
ag37
((lp4187
g10
atRp4188
ag37
((lp4189
g10
ag9
ag11
ag12
atRp4190
aS'https://www.pinterest.com/gatesbecky1/swedish-style-house-interior/'
p4191
aS'2015-06-24 22:34:19.727055'
p4192
aa(lp4193
I1
aI2
aI00
ag36
aI4
aI2
aI4
aI13
aI0
aI1
ag8
ag37
((lp4194
g10
ag9
atRp4195
ag37
((lp4196
g10
ag9
ag11
ag12
atRp4197
aS'https://www.pinterest.com/explore/swedish-cottage/'
p4198
aS'2015-06-24 22:34:24.277271'
p4199
aa(lp4200
I1
aI3
aI00
ag36
aI4
aI1
aI4
aI18
aI0
aI1
ag8
ag37
((lp4201
g10
atRp4202
ag37
((lp4203
g10
ag9
ag11
ag12
atRp4204
aS'http://www.tripadvisor.com/ShowUserReviews-g147399-d254897-r73875916-Beaches_Turks_and_Caicos_Resort_Villages_and_Spa-Providenciales_Turks_and_Caicos.html'
p4205
aS'2015-06-24 22:34:26.029785'
p4206
aa(lp4207
I1
aI4
aI00
ag36
aI4
aI2
aI4
aI12
aI0
aI1
ag8
ag37
((lp4208
g10
ag9
atRp4209
ag37
((lp4210
g10
ag9
ag11
ag12
atRp4211
aS'http://www.tripadvisor.com/ShowUserReviews-g187886-d195169-r189382947-Zingaro_Nature_Reserve-Sicily.html'
p4212
aS'2015-06-24 22:34:27.580335'
p4213
aa(lp4214
I1
aI5
aI00
ag36
aI4
aI0
aI4
aI16
aI0
aI1
ag8
ag37
((ltRp4215
ag37
((lp4216
g10
ag9
ag11
ag12
atRp4217
aS'http://www.tripadvisor.com/ShowUserReviews-g425080-d486613-r261607133-Le_Chateau_de_Sully-Sully_Calvados_Basse_Normandie_Normandy.html'
p4218
aS'2015-06-24 22:34:28.739058'
p4219
aa(lp4220
I1
aI6
aI00
ag36
aI4
aI0
aI4
aI12
aI0
aI1
ag8
ag37
((ltRp4221
ag37
((lp4222
g10
ag9
ag11
ag12
atRp4223
aS'http://www.homeaway.com/vacation-rental/p453007'
p4224
aS'2015-06-24 22:34:30.416077'
p4225
aa(lp4226
I1
aI7
aI00
ag36
aI4
aI0
aI0
aI1
aI0
aI1
ag8
ag37
((ltRp4227
ag37
((ltRp4228
aS'http://www.homeaway.com/vacation-rental/p1504312'
p4229
aS'2015-06-24 22:34:31.558525'
p4230
aa(lp4231
I1
aI8
aI00
ag36
aI4
aI1
aI4
aI13
aI0
aI1
ag8
ag37
((lp4232
g9
atRp4233
ag37
((lp4234
g10
ag9
ag11
ag12
atRp4235
aS'http://www.homeaway.com/vacation-rental/p425605'
p4236
aS'2015-06-24 22:34:33.578365'
p4237
aa(lp4238
I1
aI9
aI00
ag36
aI4
aI2
aI4
aI16
aI0
aI1
ag8
ag37
((lp4239
g11
ag12
atRp4240
ag37
((lp4241
g10
ag9
ag11
ag12
atRp4242
aS'http://www.homeaway.com/vacation-rental/p273865'
p4243
aS'2015-06-24 22:34:35.460681'
p4244
aa(lp4245
I1
aI10
aI00
ag36
aI4
aI2
aI4
aI16
aI0
aI1
ag8
ag37
((lp4246
g9
ag11
atRp4247
ag37
((lp4248
g10
ag9
ag11
ag12
atRp4249
aS'http://www.homeaway.com/vacation-rental/p179634'
p4250
aS'2015-06-24 22:34:37.313484'
p4251
aa(lp4252
I1
aI11
aI00
ag36
aI4
aI2
aI4
aI21
aI0
aI1
ag8
ag37
((lp4253
g9
ag11
atRp4254
ag37
((lp4255
g10
ag9
ag11
ag12
atRp4256
aS'http://wikitravel.org/en/Saint-Barth%C3%A9lemy'
p4257
aS'2015-06-24 22:34:42.066514'
p4258
aa(lp4259
I1
aI12
aI00
ag36
aI4
aI3
aI4
aI10
aI0
aI1
ag8
ag37
((lp4260
g9
ag11
ag12
atRp4261
ag37
((lp4262
g10
ag9
ag11
ag12
atRp4263
aS'http://www.dey1.com/lee/Lee/Lee/barts.html'
p4264
aS'2015-06-24 22:34:42.326102'
p4265
aa(lp4266
I1
aI13
aI00
ag36
aI4
aI2
aI4
aI16
aI0
aI1
ag8
ag37
((lp4267
g9
ag12
atRp4268
ag37
((lp4269
g10
ag9
ag11
ag12
atRp4270
aS'http://www.frenchtoday.com/learn-french-in-france/traveling-teacher-belle-isle-immersion'
p4271
aS'2015-06-24 22:34:46.778690'
p4272
aa(lp4273
I1
aI14
aI00
ag36
aI4
aI2
aI4
aI13
aI0
aI1
ag8
ag37
((lp4274
g10
ag12
atRp4275
ag37
((lp4276
g10
ag9
ag11
ag12
atRp4277
aS'http://nomadisbeautiful.com/travel-blogs/15-wonderful-things-to-do-koh-lanta/'
p4278
aS'2015-06-24 22:34:48.770421'
p4279
aa(lp4280
I1
aI15
aI00
ag36
aI4
aI2
aI4
aI10
aI0
aI1
ag8
ag37
((lp4281
g10
ag12
atRp4282
ag37
((lp4283
g10
ag9
ag11
ag12
atRp4284
aS'http://www.homeforexchange.com/USA/Florida/51865-Wonderful-Florida-villa-near-beaches.html'
p4285
aS'2015-06-24 22:34:49.457980'
p4286
aa(lp4287
I1
aI16
aI00
ag36
aI4
aI3
aI4
aI9
aI0
aI1
ag8
ag37
((lp4288
g10
ag11
ag12
atRp4289
ag37
((lp4290
g10
ag9
ag11
ag12
atRp4291
aS'http://www.bedandbreakfast.com/ny-sag-harbor-harborwoods-guesthouse-reviews.html'
p4292
aS'2015-06-24 22:34:50.294212'
p4293
aa(lp4294
I1
aI17
aI00
ag36
aI4
aI2
aI4
aI20
aI0
aI1
ag8
ag37
((lp4295
g10
ag11
atRp4296
ag37
((lp4297
g10
ag9
ag11
ag12
atRp4298
aS'http://swedishbeaches.blogspot.com/'
p4299
aS'2015-06-24 22:34:51.355987'
p4300
aa(lp4301
I1
aI18
aI00
ag36
aI4
aI1
aI4
aI14
aI0
aI1
ag8
ag37
((lp4302
g11
atRp4303
ag37
((lp4304
g10
ag9
ag11
ag12
atRp4305
aS'http://www.getyourguide.com/normandy-l160/memorial-de-caen-day-pass-d-day-landing-beaches-museum-t31145/'
p4306
aS'2015-06-24 22:34:54.298248'
p4307
aa(lp4308
I1
aI19
aI00
ag36
aI4
aI2
aI4
aI8
aI0
aI1
ag8
ag37
((lp4309
g9
ag11
atRp4310
ag37
((lp4311
g10
ag9
ag11
ag12
atRp4312
aS'http://www.sevenseastravel.com/caribbean/stbarts.html'
p4313
aS'2015-06-24 22:34:54.905838'
p4314
aa(lp4315
I1
aI20
aI01
ag36
aI4
aI4
aI4
aI10
aI0
aI1
ag8
ag37
((lp4316
g10
ag9
ag11
ag12
atRp4317
ag37
((lp4318
g10
ag9
ag11
ag12
atRp4319
ag21
aS'2015-06-24 22:34:57.817410'
p4320
aa(lp4321
I2
aI1
aI00
ag50
aI5
aI2
aI5
aI16
aI1
aI1
ag15
ag37
((lp4322
g20
ag18
atRp4323
ag37
((lp4324
g19
ag16
ag17
ag20
ag18
atRp4325
aS'http://pierre-marteau.com/novels/1726.html'
p4326
aS'2015-06-24 22:35:07.852669'
p4327
aa(lp4328
I2
aI2
aI00
ag50
aI5
aI4
aI5
aI11
aI1
aI1
ag15
ag37
((lp4329
g16
ag17
ag20
ag18
atRp4330
ag37
((lp4331
g19
ag16
ag17
ag20
ag18
atRp4332
aS'https://mubi.com/topics/why-have-philip-roth-novels-been-so-terribly-adapted?page=2'
p4333
aS'2015-06-24 22:35:08.889484'
p4334
aa(lp4335
I2
aI3
aI00
ag50
aI5
aI4
aI5
aI11
aI1
aI1
ag15
ag37
((lp4336
g19
ag20
ag17
ag18
atRp4337
ag37
((lp4338
g19
ag16
ag17
ag20
ag18
atRp4339
aS'http://www.pastemagazine.com/blogs/lists/2014/01/10-authors-who-wrote-for-the-silver-screen.html'
p4340
aS'2015-06-24 22:35:11.594250'
p4341
aa(lp4342
I2
aI4
aI00
ag50
aI5
aI1
aI5
aI33
aI1
aI1
ag15
ag37
((lp4343
g18
atRp4344
ag37
((lp4345
g19
ag16
ag17
ag20
ag18
atRp4346
aS'https://en.wikipedia.org/wiki/List_of_apocalyptic_and_post-apocalyptic_fiction'
p4347
aS'2015-06-24 22:35:13.149947'
p4348
aa(lp4349
I2
aI5
aI00
ag50
aI5
aI1
aI5
aI19
aI1
aI1
ag15
ag37
((lp4350
g17
atRp4351
ag37
((lp4352
g19
ag16
ag17
ag20
ag18
atRp4353
aS'http://www.sf-encyclopedia.com/entry/paranoia'
p4354
aS'2015-06-24 22:35:15.880218'
p4355
aa(lp4356
I2
aI6
aI00
ag50
aI5
aI1
aI5
aI15
aI1
aI1
ag15
ag37
((lp4357
g18
atRp4358
ag37
((lp4359
g19
ag16
ag17
ag20
ag18
atRp4360
aS'http://www.sf-encyclopedia.com/entry/california'
p4361
aS'2015-06-24 22:35:17.108597'
p4362
aa(lp4363
I2
aI7
aI00
ag50
aI5
aI2
aI5
aI17
aI1
aI1
ag15
ag37
((lp4364
g16
ag20
atRp4365
ag37
((lp4366
g19
ag16
ag17
ag20
ag18
atRp4367
aS'http://www.epicdash.com/25-greatest-sci-fi-books-ever-written/'
p4368
aS'2015-06-24 22:35:20.294309'
p4369
aa(lp4370
I2
aI8
aI00
ag50
aI5
aI3
aI5
aI9
aI1
aI1
ag15
ag37
((lp4371
g19
ag16
ag20
atRp4372
ag37
((lp4373
g19
ag16
ag17
ag20
ag18
atRp4374
aS'http://muccc.org/events/?p=5618'
p4375
aS'2015-06-24 22:35:21.185624'
p4376
aa(lp4377
I2
aI9
aI00
ag50
aI5
aI2
aI5
aI17
aI1
aI1
ag15
ag37
((lp4378
g20
ag18
atRp4379
ag37
((lp4380
g19
ag16
ag17
ag20
ag18
atRp4381
aS'http://h-france.net/fffh/classics/2697/'
p4382
aS'2015-06-24 22:35:23.136080'
p4383
aa(lp4384
I2
aI10
aI00
ag50
aI5
aI1
aI5
aI15
aI1
aI1
ag15
ag37
((lp4385
g17
atRp4386
ag37
((lp4387
g19
ag16
ag17
ag20
ag18
atRp4388
aS'https://www.kirkusreviews.com/features/andre-nortons-young-adult-novels/'
p4389
aS'2015-06-24 22:35:25.671364'
p4390
aa(lp4391
I2
aI11
aI00
ag50
aI5
aI0
aI0
aI0
aI1
aI1
ag15
ag37
((ltRp4392
ag37
((ltRp4393
aS'http://publishing.cdlib.org/ucpressebooks/view?docId=kt2f59q2dp&chunk.id=ss1.23&toc.id=ss1.23&brand=ucpress'
p4394
aS'2015-06-24 22:35:28.393970'
p4395
aa(lp4396
I2
aI12
aI00
ag50
aI5
aI0
aI0
aI0
aI1
aI1
ag15
ag37
((ltRp4397
ag37
((ltRp4398
aS'http://publishing.cdlib.org/ucpressebooks/view?docId=kt2f59q2dp&chunk.id=ss1.23&toc.id=&brand=ucpress'
p4399
aS'2015-06-24 22:35:28.735692'
p4400
aa(lp4401
I2
aI13
aI00
ag50
aI5
aI4
aI5
aI10
aI1
aI1
ag15
ag37
((lp4402
g19
ag16
ag20
ag18
atRp4403
ag37
((lp4404
g19
ag16
ag17
ag20
ag18
atRp4405
aS'http://www.grasslimb.com/sallis/GlobeColumns/globe.11.sheckley.html'
p4406
aS'2015-06-24 22:35:29.202441'
p4407
aa(lp4408
I2
aI14
aI00
ag50
aI5
aI1
aI1
aI2
aI1
aI1
ag15
ag37
((lp4409
Vphilip
p4410
atRp4411
ag37
((lp4412
g4410
atRp4413
aS'http://articles.latimes.com/1996-01-15/entertainment/ca-24722_1_kan-gotanda'
p4414
aS'2015-06-24 22:35:30.124663'
p4415
aa(lp4416
I2
aI15
aI00
ag50
aI5
aI0
aI0
aI1
aI1
aI1
ag15
ag37
((ltRp4417
ag37
((ltRp4418
aS'http://articles.latimes.com/1989-04-20/news/mn-2257_1_modern-english-literature-miss-du-maurier-birds'
p4419
aS'2015-06-24 22:35:31.047145'
p4420
aa(lp4421
I2
aI16
aI00
ag50
aI5
aI2
aI5
aI15
aI1
aI1
ag15
ag37
((lp4422
g16
ag20
atRp4423
ag37
((lp4424
g19
ag16
ag17
ag20
ag18
atRp4425
aS'http://www.brooklynrail.org/2003/12/books/sherman-alexie-in-conversation-with-williams-cole'
p4426
aS'2015-06-24 22:35:33.842240'
p4427
aa(lp4428
I2
aI17
aI00
ag50
aI5
aI0
aI0
aI1
aI1
aI1
ag15
ag37
((ltRp4429
ag37
((ltRp4430
aS'http://www.imdb.com/title/tt0120202/reviews'
p4431
aS'2015-06-24 22:35:34.647404'
p4432
aa(lp4433
I2
aI18
aI00
ag50
aI5
aI1
aI5
aI38
aI1
aI1
ag15
ag37
((lp4434
g16
atRp4435
ag37
((lp4436
g19
ag16
ag17
ag20
ag18
atRp4437
aS'https://silverambrosia.wordpress.com/'
p4438
aS'2015-06-24 22:35:39.308184'
p4439
aa(lp4440
I2
aI19
aI00
ag50
aI5
aI1
aI1
aI1
aI1
aI1
ag15
ag37
((lp4441
Vphilip
p4442
atRp4443
ag37
((lp4444
g4442
atRp4445
aS'http://www.wkow.com/story/24613202/2014/02/02/academy-award-winning-actor'
p4446
aS'2015-06-24 22:35:40.211746'
p4447
aa(lp4448
I2
aI20
aI00
ag50
aI5
aI1
aI1
aI4
aI1
aI1
ag15
ag37
((lp4449
Vphilip
p4450
atRp4451
ag37
((lp4452
g4450
atRp4453
aS'http://www.jstor.org/stable/1224941'
p4454
aS'2015-06-24 22:35:42.036987'
p4455
aa(lp4456
I2
aI21
aI00
ag50
aI5
aI1
aI1
aI2
aI1
aI1
ag15
ag37
((lp4457
Vphilip
p4458
atRp4459
ag37
((lp4460
g4458
atRp4461
aS'http://pluto.revolvy.com/index.php?s=The%20Best%20of%20Philip%20K.%20Dick'
p4462
aS'2015-06-24 22:35:45.273945'
p4463
aa(lp4464
I2
aI22
aI00
ag50
aI5
aI2
aI5
aI15
aI1
aI1
ag15
ag37
((lp4465
g20
ag18
atRp4466
ag37
((lp4467
g19
ag16
ag17
ag20
ag18
atRp4468
aS'http://www.quietearth.us/articles/2011/03/01/Every-Philip-K-Dick-movie-ranked-and-rated'
p4469
aS'2015-06-24 22:35:47.800194'
p4470
aa(lp4471
I2
aI23
aI00
ag50
aI5
aI0
aI0
aI0
aI1
aI1
ag15
ag37
((ltRp4472
ag37
((ltRp4473
aS'http://api.hb2504.txstate.edu/py/getvita.py?plid=521834'
p4474
aS'2015-06-24 22:35:48.042278'
p4475
aa(lp4476
I2
aI24
aI00
ag50
aI5
aI0
aI3
aI15
aI1
aI1
ag15
ag37
((ltRp4477
ag37
((lp4478
g16
ag20
ag18
atRp4479
aS'https://www.pinterest.com/IBSit/scrittori/'
p4480
aS'2015-06-24 22:35:51.108215'
p4481
aa(lp4482
I2
aI25
aI00
ag50
aI5
aI3
aI5
aI19
aI1
aI1
ag15
ag37
((lp4483
g16
ag17
ag18
atRp4484
ag37
((lp4485
g19
ag16
ag17
ag20
ag18
atRp4486
aS'https://www.pinterest.com/arroyalty/regarding-ms-du-maurier/'
p4487
aS'2015-06-24 22:35:54.009148'
p4488
aa(lp4489
I2
aI26
aI00
ag50
aI5
aI1
aI3
aI17
aI1
aI1
ag15
ag37
((lp4490
g20
atRp4491
ag37
((lp4492
g16
ag20
ag18
atRp4493
aS'https://www.pinterest.com/sammy68/books-worth-reading/'
p4494
aS'2015-06-24 22:35:57.175632'
p4495
aa(lp4496
I2
aI27
aI00
ag50
aI5
aI1
aI5
aI22
aI1
aI1
ag15
ag37
((lp4497
g20
atRp4498
ag37
((lp4499
g19
ag16
ag17
ag20
ag18
atRp4500
aS'http://publishing.cdlib.org/ucpressebooks/view?docId=kt2f59q2dp;chunk.id=ss1.23;doc.view=print'
p4501
aS'2015-06-24 22:35:57.758815'
p4502
aa(lp4503
I2
aI28
aI00
ag50
aI5
aI1
aI5
aI21
aI1
aI1
ag15
ag37
((lp4504
g20
atRp4505
ag37
((lp4506
g19
ag16
ag17
ag20
ag18
atRp4507
aS'https://silverambrosia.wordpress.com/category/miscellaneous/'
p4508
aS'2015-06-24 22:35:59.839796'
p4509
aa(lp4510
I2
aI29
aI00
ag50
aI5
aI0
aI5
aI38
aI1
aI1
ag15
ag37
((ltRp4511
ag37
((lp4512
g19
ag16
ag17
ag20
ag18
atRp4513
aS'https://silverambrosia.wordpress.com/author/silverambrosia/'
p4514
aS'2015-06-24 22:36:04.140503'
p4515
aa(lp4516
I2
aI30
aI00
ag50
aI5
aI1
aI5
aI46
aI1
aI1
ag15
ag37
((lp4517
g18
atRp4518
ag37
((lp4519
g19
ag16
ag17
ag20
ag18
atRp4520
aS'http://mobiusmagazine.com/contributors.html'
p4521
aS'2015-06-24 22:36:04.737779'
p4522
aa(lp4523
I2
aI31
aI00
ag50
aI5
aI1
aI1
aI1
aI1
aI1
ag15
ag37
((lp4524
Vphilip
p4525
atRp4526
ag37
((lp4527
g4525
atRp4528
aS'http://www.waow.com/story/24613202/2014/02/02/academy-award-winning-actor'
p4529
aS'2015-06-24 22:36:07.731022'
p4530
aa(lp4531
I2
aI32
aI00
ag50
aI5
aI4
aI5
aI9
aI1
aI1
ag15
ag37
((lp4532
g19
ag16
ag17
ag20
atRp4533
ag37
((lp4534
g19
ag16
ag17
ag20
ag18
atRp4535
aS'http://www.andre-norton-books.com/index.php/about-andre/biography/666-andre-norton-s-young-adult-novels'
p4536
aS'2015-06-24 22:36:09.115141'
p4537
aa(lp4538
I2
aI33
aI00
ag50
aI5
aI3
aI5
aI16
aI1
aI1
ag15
ag37
((lp4539
g19
ag17
ag18
atRp4540
ag37
((lp4541
g19
ag16
ag17
ag20
ag18
atRp4542
aS'http://www.wnrf.org/cms/hgwells.shtml'
p4543
aS'2015-06-24 22:36:09.739044'
p4544
aa(lp4545
I2
aI34
aI00
ag50
aI5
aI1
aI1
aI1
aI1
aI1
ag15
ag37
((lp4546
Vpar
p4547
atRp4548
ag37
((lp4549
g4547
atRp4550
aS'http://sadozai.com/blogs/opoeeaau.php?achat-cialis-par-internet'
p4551
aS'2015-06-24 22:36:10.238505'
p4552
aa(lp4553
I2
aI35
aI00
ag50
aI5
aI0
aI0
aI1
aI1
aI1
ag15
ag37
((ltRp4554
ag37
((ltRp4555
aS'http://www.patheos.com/blogs/filmchat/2014/12/interview-the-red-tent-director-roger-young-on-bringing-humanity-to-bible-stories-the-four-kinds-of-love-in-his-new-miniseries-and-getting-ben-kingsley-to-play-a-teenager.html'
p4556
aS'2015-06-24 22:36:12.137471'
p4557
aa(lp4558
I2
aI36
aI00
ag50
aI5
aI1
aI5
aI26
aI1
aI1
ag15
ag37
((lp4559
g18
atRp4560
ag37
((lp4561
g19
ag16
ag17
ag20
ag18
atRp4562
aS'http://bestsciencefictionbooks.com/top-25-best-science-fiction-books.php'
p4563
aS'2015-06-24 22:36:14.411652'
p4564
aa(lp4565
I2
aI37
aI00
ag50
aI5
aI0
aI0
aI0
aI1
aI1
ag15
ag37
((ltRp4566
ag37
((ltRp4567
aS'http://publishing.cdlib.org/ucpressebooks/view?docId=kt2f59q2dp&chunk.id=ss1.23&toc.id=&brand=escho'
p4568
aS'2015-06-24 22:36:18.703471'
p4569
aa(lp4570
I2
aI38
aI00
ag50
aI5
aI0
aI5
aI21
aI1
aI1
ag15
ag37
((ltRp4571
ag37
((lp4572
g19
ag16
ag17
ag20
ag18
atRp4573
aS'http://www.premier-benefits.com/logos/armada.asp?us=oakley-si-splinter-replacement-lenses'
p4574
aS'2015-06-24 22:36:20.053876'
p4575
aa(lp4576
I2
aI39
aI00
ag50
aI5
aI1
aI5
aI16
aI1
aI1
ag15
ag37
((lp4577
g16
atRp4578
ag37
((lp4579
g19
ag16
ag17
ag20
ag18
atRp4580
aS'http://www.catholicity.com/mccloskey/winning-the-world.html'
p4581
aS'2015-06-24 22:36:21.242846'
p4582
aa(lp4583
I2
aI40
aI00
ag50
aI5
aI1
aI5
aI15
aI1
aI1
ag15
ag37
((lp4584
g19
atRp4585
ag37
((lp4586
g19
ag16
ag17
ag20
ag18
atRp4587
aS'http://www.crwflags.com/fotw/flags/fr-74-tb.html'
p4588
aS'2015-06-24 22:36:21.575628'
p4589
aa(lp4590
I2
aI41
aI00
ag50
aI5
aI1
aI5
aI27
aI1
aI1
ag15
ag37
((lp4591
g20
atRp4592
ag37
((lp4593
g19
ag16
ag17
ag20
ag18
atRp4594
aS'http://jim-murdoch.blogspot.com/2008_05_01_archive.html'
p4595
aS'2015-06-24 22:36:26.170003'
p4596
aa(lp4597
I2
aI42
aI00
ag50
aI5
aI2
aI5
aI23
aI1
aI1
ag15
ag37
((lp4598
g19
ag18
atRp4599
ag37
((lp4600
g19
ag16
ag17
ag20
ag18
atRp4601
aS'http://www.crimeculture.com/Contents/Articles-Summer05/JemAziz1.html'
p4602
aS'2015-06-24 22:36:26.670740'
p4603
aa(lp4604
I2
aI43
aI00
ag50
aI5
aI1
aI1
aI1
aI1
aI1
ag15
ag37
((lp4605
Vphilip
p4606
atRp4607
ag37
((lp4608
g4606
atRp4609
aS'http://www.goodreads.com/book/show/16044992-the-longest-road'
p4610
aS'2015-06-24 22:36:28.220347'
p4611
aa(lp4612
I2
aI44
aI00
ag50
aI5
aI0
aI5
aI21
aI1
aI1
ag15
ag37
((ltRp4613
ag37
((lp4614
g19
ag16
ag17
ag20
ag18
atRp4615
aS'http://www.salon.com/2011/11/21/the_other_kennedy_conspiracy/'
p4616
aS'2015-06-24 22:36:36.731802'
p4617
aa(lp4618
I2
aI45
aI00
ag50
aI5
aI2
aI5
aI28
aI1
aI1
ag15
ag37
((lp4619
g16
ag18
atRp4620
ag37
((lp4621
g19
ag16
ag17
ag20
ag18
atRp4622
aS'https://alexanderdunst.wordpress.com/'
p4623
aS'2015-06-24 22:36:39.828264'
p4624
aa(lp4625
I2
aI46
aI00
ag50
aI5
aI2
aI5
aI24
aI1
aI1
ag15
ag37
((lp4626
g20
ag18
atRp4627
ag37
((lp4628
g19
ag16
ag17
ag20
ag18
atRp4629
aS'https://talesfromthebookcave.wordpress.com/'
p4630
aS'2015-06-24 22:36:41.441326'
p4631
aa(lp4632
I2
aI47
aI00
ag50
aI5
aI3
aI5
aI19
aI1
aI1
ag15
ag37
((lp4633
g19
ag16
ag20
atRp4634
ag37
((lp4635
g19
ag16
ag17
ag20
ag18
atRp4636
aS'http://japaneselit.net/tag/philip-gabriel/'
p4637
aS'2015-06-24 22:36:43.013536'
p4638
aa(lp4639
I2
aI48
aI00
ag50
aI5
aI1
aI1
aI1
aI1
aI1
ag15
ag37
((lp4640
Vphilip
p4641
atRp4642
ag37
((lp4643
g4641
atRp4644
aS'http://www.kttc.com/story/24613202/2014/02/02/academy-award-winning-actor'
p4645
aS'2015-06-24 22:36:44.163276'
p4646
aa(lp4647
I2
aI49
aI00
ag50
aI5
aI1
aI5
aI37
aI1
aI1
ag15
ag37
((lp4648
g19
atRp4649
ag37
((lp4650
g19
ag16
ag17
ag20
ag18
atRp4651
aS'http://thepassingtramp.blogspot.com/2015_02_01_archive.html'
p4652
aS'2015-06-24 22:36:47.088993'
p4653
aa(lp4654
I2
aI50
aI00
ag50
aI5
aI0
aI5
aI21
aI1
aI1
ag15
ag37
((ltRp4655
ag37
((lp4656
g19
ag16
ag17
ag20
ag18
atRp4657
aS'http://jfv-australiana.blogspot.com/2010_05_01_archive.html'
p4658
aS'2015-06-24 22:36:48.447595'
p4659
aa(lp4660
I2
aI51
aI00
ag50
aI5
aI1
aI1
aI1
aI1
aI1
ag15
ag37
((lp4661
Vphilip
p4662
atRp4663
ag37
((lp4664
g4662
atRp4665
aS'http://www.wrex.com/story/24613202/2014/02/02/academy-award-winning-actor'
p4666
aS'2015-06-24 22:36:52.925648'
p4667
aa(lp4668
I2
aI52
aI00
ag50
aI5
aI1
aI5
aI14
aI1
aI1
ag15
ag37
((lp4669
g18
atRp4670
ag37
((lp4671
g19
ag16
ag17
ag20
ag18
atRp4672
aS'http://connection.ebscohost.com/tag/ON%20Desire%20(Book)&offset=800'
p4673
aS'2015-06-24 22:36:54.491314'
p4674
aa(lp4675
I2
aI53
aI00
ag50
aI5
aI2
aI5
aI14
aI1
aI1
ag15
ag37
((lp4676
g19
ag18
atRp4677
ag37
((lp4678
g19
ag16
ag17
ag20
ag18
atRp4679
aS'http://connection.ebscohost.com/tag/DESIRED%20(Book)&offset=800'
p4680
aS'2015-06-24 22:36:54.961982'
p4681
aa(lp4682
I2
aI54
aI01
ag50
aI5
aI5
aI5
aI14
aI1
aI1
ag15
ag37
((lp4683
g19
ag16
ag17
ag20
ag18
atRp4684
ag37
((lp4685
g19
ag16
ag17
ag20
ag18
atRp4686
ag29
aS'2015-06-24 22:36:55.447798'
p4687
aa(lp4688
I3
aI1
aI00
ag50
aI5
aI0
aI0
aI0
aI2
aI1
ag23
ag37
((ltRp4689
ag37
((ltRp4690
aS'http://article.wn.com/view/2015/05/22/Why_Britain_is_bad_at_Eurovision_Its_not_about_gimmicks_its_/'
p4691
aS'2015-06-24 22:37:08.344454'
p4692
aa(lp4693
I3
aI2
aI00
ag50
aI5
aI0
aI0
aI11
aI2
aI1
ag23
ag37
((ltRp4694
ag37
((ltRp4695
aS'http://article.wn.com/view/2014/07/04/Argentina_coach_Who_wouldnt_depend_on_Messi/'
p4696
aS'2015-06-24 22:37:14.504092'
p4697
aa(lp4698
I3
aI3
aI00
ag50
aI5
aI2
aI4
aI15
aI2
aI1
ag23
ag37
((lp4699
g27
ag25
atRp4700
ag37
((lp4701
g26
ag27
ag25
ag28
atRp4702
aS'http://article.wn.com/view/2012/12/30/Player_Ratings_QPR_03_Liverpool/?section=RegionSAmerica&template=worldnews%2Findex.txt'
p4703
aS'2015-06-24 22:37:17.813009'
p4704
aa(lp4705
I3
aI4
aI00
ag50
aI5
aI0
aI0
aI0
aI2
aI1
ag23
ag37
((ltRp4706
ag37
((ltRp4707
aS'http://www.newswest9.com/category/266350/arts-entertainment-pop-culture'
p4708
aS'2015-06-24 22:37:18.723432'
p4709
aa(lp4710
I3
aI5
aI00
ag50
aI5
aI0
aI0
aI2
aI2
aI1
ag23
ag37
((ltRp4711
ag37
((ltRp4712
aS'http://www.hollywood.com/celebrities/7777922/jimmy-lee-carter?page=4'
p4713
aS'2015-06-24 22:37:19.631180'
p4714
aa(lp4715
I3
aI6
aI00
ag50
aI5
aI0
aI0
aI5
aI2
aI1
ag23
ag37
((ltRp4716
ag37
((ltRp4717
aS'http://www.hollywood.com/celebrities/55411476/rick-williams?page=7'
p4718
aS'2015-06-24 22:37:21.107927'
p4719
aa(lp4720
I3
aI7
aI00
ag50
aI5
aI0
aI0
aI5
aI2
aI1
ag23
ag37
((ltRp4721
ag37
((ltRp4722
aS'http://www.hollywood.com/celebrities/1536732/hilton-smith?page=6'
p4723
aS'2015-06-24 22:37:23.416052'
p4724
aa(lp4725
I3
aI8
aI00
ag50
aI5
aI0
aI5
aI40
aI2
aI1
ag23
ag37
((ltRp4726
ag37
((lp4727
g24
ag27
ag25
ag28
ag26
atRp4728
aS'http://consequenceofsound.net/author/sam-willett/feed/'
p4729
aS'2015-06-24 22:37:26.475566'
p4730
aa(lp4731
I3
aI9
aI00
ag50
aI5
aI1
aI1
aI11
aI2
aI1
ag23
ag37
((lp4732
g26
atRp4733
ag37
((lp4734
g26
atRp4735
aS'http://nonvicarious2.rssing.com/chan-1111489/all_p249.html'
p4736
aS'2015-06-24 22:37:29.058639'
p4737
aa(lp4738
I3
aI10
aI00
ag50
aI5
aI0
aI1
aI29
aI2
aI1
ag23
ag37
((ltRp4739
ag37
((lp4740
g26
atRp4741
aS'https://www.elance.com/d/w/fiction-writing/91'
p4742
aS'2015-06-24 22:37:36.177542'
p4743
aa(lp4744
I3
aI11
aI00
ag50
aI5
aI0
aI1
aI30
aI2
aI1
ag23
ag37
((ltRp4745
ag37
((lp4746
g25
atRp4747
aS'http://www.streamica.com/ayuntamiento%20hackeada'
p4748
aS'2015-06-24 22:37:40.641029'
p4749
aa(lp4750
I3
aI12
aI00
ag50
aI5
aI1
aI1
aI30
aI2
aI1
ag23
ag37
((lp4751
g25
atRp4752
ag37
((lp4753
g25
atRp4754
aS'http://www.streamica.com/tari%20maktal'
p4755
aS'2015-06-24 22:37:42.139948'
p4756
aa(lp4757
I3
aI13
aI00
ag50
aI5
aI0
aI1
aI15
aI2
aI1
ag23
ag37
((ltRp4758
ag37
((lp4759
g28
atRp4760
aS'http://article.wn.com/view/2014/02/26/Mackenzie_Crowne_s_sweet_contemporary_Song_for_Sophie/'
p4761
aS'2015-06-24 22:37:46.521501'
p4762
aa(lp4763
I3
aI14
aI00
ag50
aI5
aI0
aI0
aI12
aI2
aI1
ag23
ag37
((ltRp4764
ag37
((ltRp4765
aS'http://article.wn.com/view/2015/02/20/Juventus_beats_Atalanta_21_extends_lead_to_10_points_3/'
p4766
aS'2015-06-24 22:37:50.813580'
p4767
aa(lp4768
I3
aI15
aI00
ag50
aI5
aI1
aI5
aI38
aI2
aI1
ag23
ag37
((lp4769
g26
atRp4770
ag37
((lp4771
g24
ag27
ag25
ag28
ag26
atRp4772
aS'http://losangeles.cbslocal.com/tag/cooking/feed/'
p4773
aS'2015-06-24 22:37:54.081320'
p4774
aa(lp4775
I3
aI16
aI00
ag50
aI5
aI0
aI5
aI47
aI2
aI1
ag23
ag37
((ltRp4776
ag37
((lp4777
g24
ag27
ag25
ag28
ag26
atRp4778
aS'http://www.imdb.com/search/text?field=bio&q=Apparel&realm=name&start=1'
p4779
aS'2015-06-24 22:37:55.050621'
p4780
aa(lp4781
I3
aI17
aI00
ag50
aI5
aI0
aI5
aI51
aI2
aI1
ag23
ag37
((ltRp4782
ag37
((lp4783
g24
ag27
ag25
ag28
ag26
atRp4784
aS'http://www.imdb.com/search/text?field=bio&q=kimber&realm=name&start=51'
p4785
aS'2015-06-24 22:37:56.514676'
p4786
aa(lp4787
I3
aI18
aI00
ag50
aI5
aI0
aI5
aI76
aI2
aI1
ag23
ag37
((ltRp4788
ag37
((lp4789
g24
ag27
ag25
ag28
ag26
atRp4790
aS'http://classes.dma.ucla.edu/Winter05/161B/resources/PHP/mysql/cnn_dump.sql'
p4791
aS'2015-06-24 22:37:59.094491'
p4792
aa(lp4793
I3
aI19
aI00
ag50
aI5
aI0
aI0
aI2
aI2
aI1
ag23
ag37
((ltRp4794
ag37
((ltRp4795
aS'http://www.hollywood.com/celebrities/55520225/jean-richard?page=8'
p4796
aS'2015-06-24 22:38:00.073929'
p4797
aa(lp4798
I3
aI20
aI00
ag50
aI5
aI0
aI0
aI0
aI2
aI1
ag23
ag37
((ltRp4799
ag37
((ltRp4800
aS'http://www.bookbase.com/search-result?search=%2Cauthor=c+s+i+r+o%2CuploadedStart=0%2CuploadedEnd=9223372036854775807%2Clength=50&page=27'
p4801
aS'2015-06-24 22:38:07.146280'
p4802
aa(lp4803
I3
aI21
aI00
ag50
aI5
aI0
aI0
aI10
aI2
aI1
ag23
ag37
((ltRp4804
ag37
((ltRp4805
aS'http://article.wn.com/view/2012/10/23/Standard_Of_Music_Is_Falling_Stop_Singing_In_Solo_Stop_Dirty/'
p4806
aS'2015-06-24 22:38:16.692401'
p4807
aa(lp4808
I3
aI22
aI00
ag50
aI5
aI1
aI4
aI15
aI2
aI1
ag23
ag37
((lp4809
g25
atRp4810
ag37
((lp4811
g24
ag27
ag25
ag28
atRp4812
aS'http://xn--80aafyba0h.airliners.net/aviation-forums/general_aviation/search.main?search=Severe+Turbulence+Trashes+A300+VIDEO&search_table=general_aviation&search_field=topic&search_type=any&next=154&submit=1&starter=1&search_active=1'
p4813
aS'2015-06-24 22:38:21.373283'
p4814
aa(lp4815
I3
aI23
aI00
ag50
aI5
aI0
aI0
aI2
aI2
aI1
ag23
ag37
((ltRp4816
ag37
((ltRp4817
aS'http://www.hollywood.com/celebrities/3436510/chad-fisher'
p4818
aS'2015-06-24 22:38:23.893707'
p4819
aa(lp4820
I3
aI24
aI00
ag50
aI5
aI0
aI0
aI5
aI2
aI1
ag23
ag37
((ltRp4821
ag37
((ltRp4822
aS'http://www.hollywood.com/celebrities/56319718/barry-manilow?page=6'
p4823
aS'2015-06-24 22:38:26.107845'
p4824
aa(lp4825
I3
aI25
aI00
ag50
aI5
aI2
aI5
aI17
aI2
aI1
ag23
ag37
((lp4826
g24
ag26
atRp4827
ag37
((lp4828
g24
ag27
ag25
ag28
ag26
atRp4829
aS'http://www.epinions.com/review/musc_mu-81582/2001989987/61626093188'
p4830
aS'2015-06-24 22:38:27.286111'
p4831
aa(lp4832
I3
aI26
aI00
ag50
aI5
aI1
aI5
aI39
aI2
aI1
ag23
ag37
((lp4833
g27
atRp4834
ag37
((lp4835
g24
ag27
ag25
ag28
ag26
atRp4836
aS'http://www.led-zeppelin.org/archived-news/2007-news'
p4837
aS'2015-06-24 22:38:35.883432'
p4838
aa(lp4839
I3
aI27
aI00
ag50
aI5
aI0
aI5
aI56
aI2
aI1
ag23
ag37
((ltRp4840
ag37
((lp4841
g24
ag27
ag25
ag28
ag26
atRp4842
aS'http://www.cobraside.com/catalog/SecretCdn/SecretCdn.html'
p4843
aS'2015-06-24 22:38:39.227978'
p4844
aa(lp4845
I3
aI28
aI00
ag50
aI5
aI1
aI5
aI50
aI2
aI1
ag23
ag37
((lp4846
g25
atRp4847
ag37
((lp4848
g24
ag27
ag25
ag28
ag26
atRp4849
aS'http://www.imdb.com/search/text?field=bio&q=KIMBERLY&realm=name&start=51'
p4850
aS'2015-06-24 22:38:40.057933'
p4851
aa(lp4852
I3
aI29
aI00
ag50
aI5
aI0
aI0
aI8
aI2
aI1
ag23
ag37
((ltRp4853
ag37
((ltRp4854
aS'http://huffington1338.rssing.com/chan-24507240/all_p13.html'
p4855
aS'2015-06-24 22:38:46.175525'
p4856
aa(lp4857
I3
aI30
aI00
ag50
aI5
aI0
aI4
aI47
aI2
aI1
ag23
ag37
((ltRp4858
ag37
((lp4859
g24
ag25
ag28
ag26
atRp4860
aS'http://www.slideshare.net/frederickaamfoduah/a-time-to-kill-by-john-grisham'
p4861
aS'2015-06-24 22:38:48.171465'
p4862
aa(lp4863
I3
aI31
aI00
ag50
aI5
aI2
aI3
aI11
aI2
aI1
ag23
ag37
((lp4864
g24
ag27
atRp4865
ag37
((lp4866
g24
ag27
ag28
atRp4867
aS'http://xn--80aafyba0h.airliners.net/aviation-forums/non_aviation/search.main?search=Windows+Media+Player+9+Help&search_table=non_aviation&search_field=topic&search_type=any&next=205&submit=1&starter=1&search_active=1'
p4868
aS'2015-06-24 22:38:51.129010'
p4869
aa(lp4870
I3
aI32
aI00
ag50
aI5
aI1
aI5
aI61
aI2
aI1
ag23
ag37
((lp4871
g27
atRp4872
ag37
((lp4873
g24
ag27
ag25
ag28
ag26
atRp4874
aS'http://www.hvqagency.com/sitemap.php'
p4875
aS'2015-06-24 22:38:52.540756'
p4876
aa(lp4877
I3
aI33
aI00
ag50
aI5
aI0
aI0
aI4
aI2
aI1
ag23
ag37
((ltRp4878
ag37
((ltRp4879
aS'http://www.hollywood.com/celebrities/6327465/george-duke?page=7'
p4880
aS'2015-06-24 22:38:53.809527'
p4881
aa(lp4882
I3
aI34
aI00
ag50
aI5
aI0
aI0
aI7
aI2
aI1
ag23
ag37
((ltRp4883
ag37
((ltRp4884
aS'http://www.hollywood.com/celebrities/3485235/alison-young?page=7'
p4885
aS'2015-06-24 22:38:56.271761'
p4886
aa(lp4887
I3
aI35
aI00
ag50
aI5
aI0
aI4
aI42
aI2
aI1
ag23
ag37
((ltRp4888
ag37
((lp4889
g26
ag27
ag25
ag28
atRp4890
aS'http://www.imdb.com/search/text?realm=name&field=bio&q=bowy'
p4891
aS'2015-06-24 22:38:57.196662'
p4892
aa(lp4893
I3
aI36
aI00
ag50
aI5
aI0
aI0
aI0
aI2
aI1
ag23
ag37
((ltRp4894
ag37
((ltRp4895
aS'http://www.jacketflap.com/megablog/index.asp?tagid=19334&tag=Beads'
p4896
aS'2015-06-24 22:39:01.997798'
p4897
aa(lp4898
I3
aI37
aI00
ag50
aI5
aI0
aI4
aI31
aI2
aI1
ag23
ag37
((ltRp4899
ag37
((lp4900
g24
ag27
ag28
ag26
atRp4901
aS'https://www.dustygroove.com/search.php?s=John+Thomas'
p4902
aS'2015-06-24 22:39:04.039264'
p4903
aa(lp4904
I3
aI38
aI00
ag50
aI5
aI2
aI2
aI18
aI2
aI1
ag23
ag37
((lp4905
g27
ag25
atRp4906
ag37
((lp4907
g27
ag25
atRp4908
aS'http://article.wn.com/view/2013/05/02/Guardiola_My_time_at_Barcelona_is_over/?section=RegionSAmerica&template=worldnews%2Findex.txt'
p4909
aS'2015-06-24 22:39:08.289151'
p4910
aa(lp4911
I3
aI39
aI00
ag50
aI5
aI0
aI0
aI0
aI2
aI1
ag23
ag37
((ltRp4912
ag37
((ltRp4913
aS'http://www.dietingsense.com/garcinia-cambogia-pregnant-blake-lively-gets-a-cooking-lesson-from-a-top-chef-winner-see-the-pic'
p4914
aS'2015-06-24 22:39:09.104595'
p4915
aa(lp4916
I3
aI40
aI00
ag50
aI5
aI1
aI4
aI68
aI2
aI1
ag23
ag37
((lp4917
g27
atRp4918
ag37
((lp4919
g24
ag27
ag28
ag26
atRp4920
aS'http://www.yaf.org/Obama_admin_birth_control_HS.aspx'
p4921
aS'2015-06-24 22:39:11.963292'
p4922
aa(lp4923
I3
aI41
aI00
ag50
aI5
aI0
aI0
aI0
aI2
aI1
ag23
ag37
((ltRp4924
ag37
((ltRp4925
aS'http://www.dietingsense.com/garcinia-cambogia-emmy-awards'
p4926
aS'2015-06-24 22:39:14.457601'
p4927
aa(lp4928
I3
aI42
aI00
ag50
aI5
aI0
aI0
aI10
aI2
aI1
ag23
ag37
((ltRp4929
ag37
((ltRp4930
aS'http://article.wn.com/view/2012/01/24/Earnings_schedule_for_selected_entertainment_cos_h/'
p4931
aS'2015-06-24 22:39:22.011905'
p4932
aa(lp4933
I3
aI43
aI00
ag50
aI5
aI0
aI4
aI39
aI2
aI1
ag23
ag37
((ltRp4934
ag37
((lp4935
g24
ag25
ag28
ag26
atRp4936
aS'http://www.imdb.com/search/text?field=bio&q=Sean%20Will&realm=name&start=1'
p4937
aS'2015-06-24 22:39:22.908650'
p4938
aa(lp4939
I3
aI44
aI00
ag50
aI5
aI1
aI5
aI65
aI2
aI1
ag23
ag37
((lp4940
g25
atRp4941
ag37
((lp4942
g24
ag27
ag25
ag28
ag26
atRp4943
aS'http://www.theappalachianonline.com/old/archives'
p4944
aS'2015-06-24 22:39:28.527311'
p4945
aa(lp4946
I3
aI45
aI00
ag50
aI5
aI1
aI3
aI50
aI2
aI1
ag23
ag37
((lp4947
g24
atRp4948
ag37
((lp4949
g24
ag25
ag28
atRp4950
aS'http://www.surfermag.com/wp-content/blogs.dir/1/files/2010/12/new-wordpress.2010-07-01.2010-09-01.xml_.txt'
p4951
aS'2015-06-24 22:39:37.038970'
p4952
aa(lp4953
I3
aI46
aI00
ag50
aI5
aI0
aI0
aI2
aI2
aI1
ag23
ag37
((ltRp4954
ag37
((ltRp4955
aS'http://www.hollywood.com/celebrities/3586650/justin-maguire?page=2'
p4956
aS'2015-06-24 22:39:37.807686'
p4957
aa(lp4958
I3
aI47
aI00
ag50
aI5
aI0
aI0
aI5
aI2
aI1
ag23
ag37
((ltRp4959
ag37
((ltRp4960
aS'http://www.hollywood.com/celebrities/56115699/jim-cash?page=6'
p4961
aS'2015-06-24 22:39:41.505972'
p4962
aa(lp4963
I3
aI48
aI00
ag50
aI5
aI2
aI5
aI31
aI2
aI1
ag23
ag37
((lp4964
g24
ag27
atRp4965
ag37
((lp4966
g24
ag27
ag25
ag28
ag26
atRp4967
aS'http://slumberpoppy.deviantart.com/journal/?catpath=/&offset=5'
p4968
aS'2015-06-24 22:39:47.900338'
p4969
aa(lp4970
I3
aI49
aI00
ag50
aI5
aI1
aI5
aI65
aI2
aI1
ag23
ag37
((lp4971
g25
atRp4972
ag37
((lp4973
g24
ag27
ag25
ag28
ag26
atRp4974
aS'http://spotlight.planningcenteronline.com/equippinginsights'
p4975
aS'2015-06-24 22:39:52.561188'
p4976
aa(lp4977
I3
aI50
aI00
ag50
aI5
aI0
aI0
aI3
aI2
aI1
ag23
ag37
((ltRp4978
ag37
((ltRp4979
aS'http://www.gutenberg.org/files/18304/18304-h/18304-h.htm'
p4980
aS'2015-06-24 22:39:56.223783'
p4981
aa(lp4982
I3
aI51
aI00
ag50
aI5
aI1
aI5
aI31
aI2
aI1
ag23
ag37
((lp4983
g26
atRp4984
ag37
((lp4985
g24
ag27
ag25
ag28
ag26
atRp4986
aS'http://slumberpoppy.deviantart.com/journal/?offset=5'
p4987
aS'2015-06-24 22:40:02.589373'
p4988
aa(lp4989
I3
aI52
aI00
ag50
aI5
aI1
aI2
aI18
aI2
aI1
ag23
ag37
((lp4990
g25
atRp4991
ag37
((lp4992
g24
ag25
atRp4993
aS'http://www.imdb.com/search/text?field=bio&q=Mimi&realm=name&start=1'
p4994
aS'2015-06-24 22:40:03.557121'
p4995
aa(lp4996
I3
aI53
aI00
ag50
aI5
aI1
aI5
aI22
aI2
aI1
ag23
ag37
((lp4997
g28
atRp4998
ag37
((lp4999
g24
ag27
ag25
ag28
ag26
atRp5000
aS'https://smalltimetraveller.wordpress.com/page/4/'
p5001
aS'2015-06-24 22:40:06.440303'
p5002
aa(lp5003
I3
aI54
aI00
ag50
aI5
aI0
aI5
aI40
aI2
aI1
ag23
ag37
((ltRp5004
ag37
((lp5005
g24
ag27
ag25
ag28
ag26
atRp5006
aS'https://consequenceofsound.net/author/sam-willett/feed/'
p5007
aS'2015-06-24 22:40:09.124661'
p5008
aa(lp5009
I3
aI55
aI00
ag50
aI5
aI0
aI0
aI0
aI2
aI1
ag23
ag37
((ltRp5010
ag37
((ltRp5011
aS'http://www.bookbase.com/search?author=wes+m+a&method=POST&length=50'
p5012
aS'2015-06-24 22:40:10.830727'
p5013
aa(lp5014
I3
aI56
aI00
ag50
aI5
aI0
aI0
aI5
aI2
aI1
ag23
ag37
((ltRp5015
ag37
((ltRp5016
aS'http://www.hollywood.com/celebrities/3586008/alison-love?page=15'
p5017
aS'2015-06-24 22:40:12.367876'
p5018
aa(lp5019
I3
aI57
aI00
ag50
aI5
aI0
aI0
aI5
aI2
aI1
ag23
ag37
((ltRp5020
ag37
((ltRp5021
aS'http://www.hollywood.com/celebrities/5928555/beverly-jackson?page=11'
p5022
aS'2015-06-24 22:40:14.956906'
p5023
aa(lp5024
I3
aI58
aI00
ag50
aI5
aI0
aI0
aI13
aI2
aI1
ag23
ag37
((ltRp5025
ag37
((ltRp5026
aS'http://article.wn.com/view/2015/06/16/x2018how_i_met_your_mother_x2019_duo_carter_bays_x26_craig_t/'
p5027
aS'2015-06-24 22:40:17.158250'
p5028
aa(lp5029
I3
aI59
aI00
ag50
aI5
aI1
aI4
aI62
aI2
aI1
ag23
ag37
((lp5030
g28
atRp5031
ag37
((lp5032
g24
ag25
ag28
ag26
atRp5033
aS'http://www.bearingnews.org/category/multimedia/feed/'
p5034
aS'2015-06-24 22:40:21.693624'
p5035
aa(lp5036
I3
aI60
aI00
ag50
aI5
aI2
aI5
aI29
aI2
aI1
ag23
ag37
((lp5037
g26
ag27
atRp5038
ag37
((lp5039
g24
ag27
ag25
ag28
ag26
atRp5040
aS'http://www.highbeam.com/publications/design-week-p409135/november-2003'
p5041
aS'2015-06-24 22:40:30.297822'
p5042
aa(lp5043
I3
aI61
aI00
ag50
aI5
aI0
aI0
aI0
aI2
aI1
ag23
ag37
((ltRp5044
ag37
((ltRp5045
aS'http://www.bookbase.com/search-result?search=%2Cauthor%3Dwes%2Bm%2Ba%2CuploadedStart%3D0%2CuploadedEnd%3D9223372036854775807%2Clength%3D50&lang=en'
p5046
aS'2015-06-24 22:40:38.158235'
p5047
aa(lp5048
I3
aI62
aI00
ag50
aI5
aI0
aI0
aI2
aI2
aI1
ag23
ag37
((ltRp5049
ag37
((ltRp5050
aS'http://www.hollywood.com/celebrities/59408974/stanley-jones?page=6'
p5051
aS'2015-06-24 22:40:39.335731'
p5052
aa(lp5053
I3
aI63
aI00
ag50
aI5
aI0
aI0
aI6
aI2
aI1
ag23
ag37
((ltRp5054
ag37
((ltRp5055
aS'http://www.hollywood.com/celebrities/1557824/lee-taylor?page=160'
p5056
aS'2015-06-24 22:40:41.981641'
p5057
aa(lp5058
I3
aI64
aI00
ag50
aI5
aI0
aI0
aI6
aI2
aI1
ag23
ag37
((ltRp5059
ag37
((ltRp5060
aS'http://www.hollywood.com/celebrities/56242931/jim-arnold?page=4'
p5061
aS'2015-06-24 22:40:47.701669'
p5062
aa(lp5063
I3
aI65
aI00
ag50
aI5
aI0
aI0
aI6
aI2
aI1
ag23
ag37
((ltRp5064
ag37
((ltRp5065
aS'http://www.hollywood.com/celebrities/56528328/stephen-boss?page=8'
p5066
aS'2015-06-24 22:40:48.941134'
p5067
aa(lp5068
I3
aI66
aI00
ag50
aI5
aI1
aI5
aI31
aI2
aI1
ag23
ag37
((lp5069
g26
atRp5070
ag37
((lp5071
g24
ag27
ag25
ag28
ag26
atRp5072
aS'http://www.motorcyclemonster.com/news/archives-January-2014.html'
p5073
aS'2015-06-24 22:40:51.206238'
p5074
aasS'config'
p5075
(ihunter.dictionary.dictionaries
Config
p5076
(dp5077
S'd'
I1
sS'f'
I2
sS'l'
I2
sS'shuffle_keywords_seed'
p5078
I10
sS'essence_len'
p5079
I6
sS'shuffle_stop'
p5080
I200
sS'w'
I5
sS'x'
I89
sbsS'filename'
p5081
S'stats_1_2_2_89_10_tweet_CO_09.txt_2015-06-24 22:02:48.216222.pkl'
p5082
sb.