(istats.words_stats
WordsStats
p1
(dp2
S'collected_words'
p3
(lp4
((lp5
S'carl'
p6
ag6
ag6
ag6
ag6
aS''
tp7
a((lp8
S'director'
p9
aS'estate'
p10
aS'advisory'
p11
aS'executive'
p12
aS'committee'
p13
aS'http://carlcraig.net/'
p14
tp15
a((lp16
S'council'
p17
aS'candidates'
p18
aS'problems'
p19
aS'nature'
p20
aS'monsters'
p21
aS'http://www.tckansas.com/contactus/profiles/linsner.html'
p22
tp23
a((lp24
S'parker'
p25
aS'raised'
p26
aS'zealand'
p27
aS'dear'
p28
aS'timothy'
p29
aS'http://connection.ebscohost.com/c/editorials/1095512/green-eyed-monsters'
p30
tp31
a((lp32
S'within'
p33
aS'funds'
p34
ag21
aS'advisory'
p35
aS'passion'
p36
aS'http://www.legacy.com/obituaries/lowellsun/obituary.aspx?pid=169553376'
p37
tp38
a((lp39
g25
ag21
aS'isle'
p40
aS'weird'
p41
aS'putting'
p42
aS'http://news.efinancialcareers.com/us-en/171714/investment-banker-future-compliant-entrepreneurial-cost-effective/'
p43
tp44
asS'tweet_file'
p45
S'tweet_CO_03.txt'
p46
sS'encoding_flow'
p47
(lp48
(lp49
I0
aI1
aI00
aS'sidestep'
p50
aI1
aI0
aI1
aI22
aI0
aI0
ag5
ac__builtin__
set
p51
((ltRp52
ag51
((lp53
g6
atRp54
aS'http://walkingdead.wikia.com/wiki/Carl_Grimes_(TV_Series)'
p55
aS'2015-06-19 20:06:22.795840'
p56
aa(lp57
I0
aI2
aI01
ag50
aI1
aI1
aI1
aI2
aI0
aI0
ag5
ag51
((lp58
g6
atRp59
ag51
((lp60
g6
atRp61
ag14
aS'2015-06-19 20:06:26.341743'
p62
aa(lp63
I1
aI1
aI00
aS'forward'
p64
aI5
aI2
aI5
aI17
aI1
aI0
ag8
ag51
((lp65
g11
ag10
atRp66
ag51
((lp67
g9
ag11
ag12
ag10
ag13
atRp68
aS'https://www.eugene-or.gov/index.aspx?NID=1064'
p69
aS'2015-06-19 20:07:44.448278'
p70
aa(lp71
I1
aI2
aI01
ag64
aI5
aI5
aI5
aI7
aI1
aI0
ag8
ag51
((lp72
g9
ag11
ag12
ag10
ag13
atRp73
ag51
((lp74
g9
ag11
ag12
ag10
ag13
atRp75
ag22
aS'2015-06-19 20:07:44.739309'
p76
aa(lp77
I2
aI1
aI00
ag64
aI5
aI4
aI5
aI9
aI2
aI0
ag16
ag51
((lp78
g19
ag21
ag17
ag20
atRp79
ag51
((lp80
g18
ag19
ag21
ag17
ag20
atRp81
aS'https://godvillegame.com/announcements/post/84'
p82
aS'2015-06-19 20:07:53.718267'
p83
aa(lp84
I2
aI2
aI00
ag64
aI5
aI0
aI5
aI31
aI2
aI0
ag16
ag51
((ltRp85
ag51
((lp86
g18
ag19
ag21
ag17
ag20
atRp87
aS'http://www.praytellblog.com/index.php/2015/01/26/pastoral-difficulties-with-recently-ordained-priests/'
p88
aS'2015-06-19 20:07:56.928409'
p89
aa(lp90
I2
aI3
aI00
ag64
aI5
aI1
aI1
aI1
aI2
aI0
ag16
ag51
((lp91
Vmonsters
p92
atRp93
ag51
((lp94
g92
atRp95
aS'http://www.sandiegoreader.com/news/2014/sep/19/stringers-these-are-monsters-mayor-cox/'
p96
aS'2015-06-19 20:07:59.597088'
p97
aa(lp98
I2
aI4
aI00
ag64
aI5
aI2
aI5
aI13
aI2
aI0
ag16
ag51
((lp99
g18
ag21
atRp100
ag51
((lp101
g18
ag19
ag21
ag17
ag20
atRp102
aS'http://www.cleveland.com/chagrin-valley/index.ssf/2013/10/pinecrest_development_most_tal.html'
p103
aS'2015-06-19 20:08:01.535629'
p104
aa(lp105
I2
aI5
aI01
ag64
aI5
aI5
aI5
aI8
aI2
aI0
ag16
ag51
((lp106
g18
ag19
ag21
ag17
ag20
atRp107
ag51
((lp108
g18
ag19
ag21
ag17
ag20
atRp109
ag30
aS'2015-06-19 20:08:02.551237'
p110
aa(lp111
I3
aI1
aI00
ag64
aI5
aI1
aI5
aI42
aI3
aI0
ag24
ag51
((lp112
g29
atRp113
ag51
((lp114
g27
ag28
ag26
ag25
ag29
atRp115
aS'http://facesofsuicide.com/'
p116
aS'2015-06-19 20:08:10.431597'
p117
aa(lp118
I3
aI2
aI00
ag64
aI5
aI2
aI5
aI27
aI3
aI0
ag24
ag51
((lp119
g26
ag25
atRp120
ag51
((lp121
g27
ag28
ag26
ag25
ag29
atRp122
aS'http://www.crosswordfiend.com/blog/2015/01/08/friday-january-9-2015/'
p123
aS'2015-06-19 20:08:11.851100'
p124
aa(lp125
I3
aI3
aI00
ag64
aI5
aI0
aI0
aI0
aI3
aI0
ag24
ag51
((ltRp126
ag51
((ltRp127
aS'http://www.babynamegenie.com/mailbag.php'
p128
aS'2015-06-19 20:08:12.250064'
p129
aa(lp130
I3
aI4
aI00
ag64
aI5
aI2
aI4
aI12
aI3
aI0
ag24
ag51
((lp131
g29
ag26
atRp132
ag51
((lp133
g27
ag29
ag26
ag25
atRp134
aS'https://ourbravest.org/'
p135
aS'2015-06-19 20:08:14.232180'
p136
aa(lp137
I3
aI5
aI00
ag64
aI5
aI3
aI4
aI12
aI3
aI0
ag24
ag51
((lp138
g29
ag26
ag25
atRp139
ag51
((lp140
g27
ag29
ag26
ag25
atRp141
aS'https://ourbravest.org/hero/veteran/timothy-brown'
p142
aS'2015-06-19 20:08:21.192438'
p143
aa(lp144
I3
aI6
aI00
ag64
aI5
aI3
aI5
aI9
aI3
aI0
ag24
ag51
((lp145
g27
ag28
ag25
atRp146
ag51
((lp147
g27
ag28
ag26
ag25
ag29
atRp148
aS'https://www.crowdrise.com/trinityboston2015/fundraiser/hartleybingham'
p149
aS'2015-06-19 20:08:24.563056'
p150
aa(lp151
I3
aI7
aI00
ag64
aI5
aI2
aI5
aI17
aI3
aI0
ag24
ag51
((lp152
g26
ag25
atRp153
ag51
((lp154
g27
ag28
ag26
ag25
ag29
atRp155
aS'http://www.mtfca.com/discus/messages/29/42351.html?1198316866'
p156
aS'2015-06-19 20:08:25.049049'
p157
aa(lp158
I3
aI8
aI01
ag64
aI5
aI5
aI5
aI5
aI3
aI0
ag24
ag51
((lp159
Vdear
p160
aVzealand
p161
aVraised
p162
aVparker
p163
aVtimothy
p164
atRp165
ag51
((lp166
g160
ag161
ag162
ag163
ag164
atRp167
ag37
aS'2015-06-19 20:08:28.532945'
p168
aa(lp169
I4
aI1
aI01
ag64
aI5
aI5
aI5
aI6
aI4
aI0
ag32
ag51
((lp170
g34
ag33
ag36
ag21
ag35
atRp171
ag51
((lp172
g34
ag33
ag36
ag21
ag35
atRp173
ag43
aS'2015-06-19 20:08:37.184713'
p174
aa(lp175
I5
aI1
aI00
ag64
aI5
aI2
aI2
aI2
aI5
aI0
ag39
ag51
((lp176
Visle
p177
aVmonsters
p178
atRp179
ag51
((lp180
g177
ag178
atRp181
aS'http://grantland.com/hollywood-prospectus/november-book-recommendations-monsters-the-isle-of-youth-anything-that-moves/'
p182
aS'2015-06-19 20:08:45.068335'
p183
aa(lp184
I5
aI2
aI00
ag64
aI5
aI0
aI5
aI36
aI5
aI0
ag39
ag51
((ltRp185
ag51
((lp186
g41
ag25
ag42
ag21
ag40
atRp187
aS'http://www.therianthropes.com/were_fiction_timeline.htm'
p188
aS'2015-06-19 20:08:45.937565'
p189
aa(lp190
I5
aI3
aI00
ag64
aI5
aI1
aI1
aI1
aI5
aI0
ag39
ag51
((lp191
Visle
p192
atRp193
ag51
((lp194
g192
atRp195
aS'http://www.fangoria.com/new/women-in-horror-13-tammi-sutton-on-a-career-in-horror-and-isle-of-dogs/'
p196
aS'2015-06-19 20:08:46.633129'
p197
aa(lp198
I5
aI4
aI00
ag64
aI5
aI1
aI5
aI28
aI5
aI0
ag39
ag51
((lp199
g25
atRp200
ag51
((lp201
g41
ag25
ag42
ag21
ag40
atRp202
aS'http://cinema.com/articles/2016/spider-production-notes.phtml'
p203
aS'2015-06-19 20:08:48.918642'
p204
aa(lp205
I5
aI5
aI00
ag64
aI5
aI3
aI5
aI15
aI5
aI0
ag39
ag51
((lp206
g25
ag42
ag21
atRp207
ag51
((lp208
g41
ag25
ag42
ag21
ag40
atRp209
aS'https://urolz12.wordpress.com/'
p210
aS'2015-06-19 20:08:50.407537'
p211
aa(lp212
I5
aI6
aI00
ag64
aI5
aI0
aI5
aI15
aI5
aI0
ag39
ag51
((ltRp213
ag51
((lp214
g41
ag25
ag42
ag21
ag40
atRp215
aS'https://urolz12.wordpress.com/category/uncategorized/'
p216
aS'2015-06-19 20:08:51.299707'
p217
aa(lp218
I5
aI7
aI00
ag64
aI5
aI1
aI5
aI29
aI5
aI0
ag39
ag51
((lp219
g42
atRp220
ag51
((lp221
g41
ag25
ag42
ag21
ag40
atRp222
aS'http://www.sacred-texts.com/earth/mm/mm12.htm'
p223
aS'2015-06-19 20:08:51.920130'
p224
aa(lp225
I5
aI8
aI00
ag64
aI5
aI2
aI5
aI14
aI5
aI0
ag39
ag51
((lp226
g41
ag21
atRp227
ag51
((lp228
g41
ag25
ag42
ag21
ag40
atRp229
aS'https://www.pinterest.com/kelseymccann27/historicalinterestingadventure/'
p230
aS'2015-06-19 20:08:55.082670'
p231
aa(lp232
I5
aI9
aI00
ag64
aI5
aI3
aI5
aI13
aI5
aI0
ag39
ag51
((lp233
g25
ag42
ag40
atRp234
ag51
((lp235
g41
ag25
ag42
ag21
ag40
atRp236
aS'https://www.pinterest.com/calineil/our-amazing-universe/'
p237
aS'2015-06-19 20:08:57.563689'
p238
aa(lp239
I5
aI10
aI00
ag64
aI5
aI0
aI1
aI12
aI5
aI0
ag39
ag51
((ltRp240
ag51
((lp241
g21
atRp242
aS'https://www.tumblr.com/tagged/spooky-mix'
p243
aS'2015-06-19 20:09:01.631321'
p244
aa(lp245
I5
aI11
aI00
ag64
aI5
aI2
aI5
aI15
aI5
aI0
ag39
ag51
((lp246
g42
ag40
atRp247
ag51
((lp248
g41
ag25
ag42
ag21
ag40
atRp249
aS'https://ridiculouslyawesome.wordpress.com/2012/11/'
p250
aS'2015-06-19 20:09:05.940413'
p251
aa(lp252
I5
aI12
aI00
ag64
aI5
aI0
aI5
aI23
aI5
aI0
ag39
ag51
((ltRp253
ag51
((lp254
g41
ag25
ag42
ag21
ag40
atRp255
aS'https://boardsandbees.wordpress.com/tag/board-game/'
p256
aS'2015-06-19 20:09:08.666101'
p257
aa(lp258
I5
aI13
aI00
ag64
aI5
aI1
aI5
aI13
aI5
aI0
ag39
ag51
((lp259
g21
atRp260
ag51
((lp261
g41
ag25
ag42
ag21
ag40
atRp262
aS'http://www.tikiroom.com/tikicentral/bb/viewtopic.php?topic=21212&forum=18&start=3510'
p263
aS'2015-06-19 20:09:09.862558'
p264
aa(lp265
I5
aI14
aI00
ag64
aI5
aI1
aI5
aI17
aI5
aI0
ag39
ag51
((lp266
g41
atRp267
ag51
((lp268
g41
ag25
ag42
ag21
ag40
atRp269
aS'https://www.fanfiction.net/s/7909656/86/Red-the-Kid-of-Adventure'
p270
aS'2015-06-19 20:09:10.864726'
p271
aa(lp272
I5
aI15
aI00
ag64
aI5
aI1
aI5
aI19
aI5
aI0
ag39
ag51
((lp273
g25
atRp274
ag51
((lp275
g41
ag25
ag42
ag21
ag40
atRp276
aS'http://somecamerunning.typepad.com/some_came_running/literary_interludes/'
p277
aS'2015-06-19 20:09:12.685961'
p278
aa(lp279
I5
aI16
aI00
ag64
aI5
aI2
aI4
aI18
aI5
aI0
ag39
ag51
((lp280
g25
ag42
atRp281
ag51
((lp282
g41
ag25
ag42
ag40
atRp283
aS'https://www.tumblr.com/tagged/active-katie'
p284
aS'2015-06-19 20:09:15.610410'
p285
aa(lp286
I5
aI17
aI00
ag64
aI5
aI1
aI2
aI7
aI5
aI0
ag39
ag51
((lp287
g40
atRp288
ag51
((lp289
g21
ag40
atRp290
aS'http://www.tv.com/movies/category/fantasy/decade/1960s/page2/'
p291
aS'2015-06-19 20:09:17.015879'
p292
aa(lp293
I5
aI18
aI00
ag64
aI5
aI1
aI5
aI25
aI5
aI0
ag39
ag51
((lp294
g25
atRp295
ag51
((lp296
g41
ag25
ag42
ag21
ag40
atRp297
aS'https://faeawarenessmonth.wordpress.com/category/reviews/page/4/'
p298
aS'2015-06-19 20:09:18.942152'
p299
aa(lp300
I5
aI19
aI00
ag64
aI5
aI1
aI5
aI29
aI5
aI0
ag39
ag51
((lp301
g40
atRp302
ag51
((lp303
g41
ag25
ag42
ag21
ag40
atRp304
aS'http://thelastdrivein.com/category/top-classic-horror-films/the-maze-1953/'
p305
aS'2015-06-19 20:09:22.585658'
p306
aa(lp307
I5
aI20
aI00
ag64
aI5
aI1
aI5
aI20
aI5
aI0
ag39
ag51
((lp308
g41
atRp309
ag51
((lp310
g41
ag25
ag42
ag21
ag40
atRp311
aS'http://dorkshelf.com/2012/10/16/this-week-in-dvd-101612/'
p312
aS'2015-06-19 20:09:24.837426'
p313
aa(lp314
I5
aI21
aI00
ag64
aI5
aI1
aI3
aI16
aI5
aI0
ag39
ag51
((lp315
g21
atRp316
ag51
((lp317
g41
ag42
ag21
atRp318
aS'http://www.tumblr.com/tagged/my-heart-is-ripped-in-half'
p319
aS'2015-06-19 20:09:32.297759'
p320
aa(lp321
I5
aI22
aI00
ag64
aI5
aI0
aI5
aI25
aI5
aI0
ag39
ag51
((ltRp322
ag51
((lp323
g41
ag25
ag42
ag21
ag40
atRp324
aS'http://invasionofthebmovies.blogspot.com/2010_11_01_archive.html'
p325
aS'2015-06-19 20:09:34.245794'
p326
aa(lp327
I5
aI23
aI00
ag64
aI5
aI0
aI0
aI0
aI5
aI0
ag39
ag51
((ltRp328
ag51
((ltRp329
aS'http://www.theverge.com/2015/2/18/8061939/solarcity-research-building-solyndra-solar-power'
p330
aS'2015-06-19 20:09:35.125663'
p331
aa(lp332
I5
aI24
aI00
ag64
aI5
aI1
aI5
aI24
aI5
aI0
ag39
ag51
((lp333
g41
atRp334
ag51
((lp335
g41
ag25
ag42
ag21
ag40
atRp336
aS'https://englishumf.wordpress.com/page/4/?app-download=ios'
p337
aS'2015-06-19 20:09:37.603368'
p338
aa(lp339
I5
aI25
aI00
ag64
aI5
aI1
aI5
aI34
aI5
aI0
ag39
ag51
((lp340
g42
atRp341
ag51
((lp342
g41
ag25
ag42
ag21
ag40
atRp343
aS'https://www.fanfiction.net/u/4536568/Austin-and-Ally-Go-1-Direction'
p344
aS'2015-06-19 20:09:39.999385'
p345
aa(lp346
I5
aI26
aI00
ag64
aI5
aI0
aI0
aI1
aI5
aI0
ag39
ag51
((ltRp347
ag51
((ltRp348
aS'https://www.facebook.com/nitha.kamran'
p349
aS'2015-06-19 20:09:40.441791'
p350
aa(lp351
I5
aI27
aI00
ag64
aI5
aI0
aI0
aI1
aI5
aI0
ag39
ag51
((ltRp352
ag51
((ltRp353
aS'https://www.facebook.com/sean.beszant'
p354
aS'2015-06-19 20:09:40.971038'
p355
aa(lp356
I5
aI28
aI00
ag64
aI5
aI0
aI0
aI2
aI5
aI0
ag39
ag51
((ltRp357
ag51
((ltRp358
aS'http://tvtropes.org/pmwiki/pmwiki.php/Main/CreatorThumbprint'
p359
aS'2015-06-19 20:09:41.528327'
p360
aa(lp361
I5
aI29
aI00
ag64
aI5
aI0
aI5
aI22
aI5
aI0
ag39
ag51
((ltRp362
ag51
((lp363
g41
ag25
ag42
ag21
ag40
atRp364
aS'https://chasness.wordpress.com/tag/fantasy/'
p365
aS'2015-06-19 20:09:44.764605'
p366
aa(lp367
I5
aI30
aI00
ag64
aI5
aI2
aI2
aI4
aI5
aI0
ag39
ag51
((lp368
Vweird
p369
aVmonsters
p370
atRp371
ag51
((lp372
g369
ag370
atRp373
aS'http://comicfreeonline.blogspot.com/2009_03_01_archive.html'
p374
aS'2015-06-19 20:09:48.613576'
p375
aa(lp376
I5
aI31
aI00
ag64
aI5
aI0
aI5
aI32
aI5
aI0
ag39
ag51
((ltRp377
ag51
((lp378
g41
ag25
ag42
ag21
ag40
atRp379
aS'http://thelastdrivein.com/2011/02/27/the-face-of-marble-1946-an-odd-john-carradine-obscurity-with-an-identity-crisis/'
p380
aS'2015-06-19 20:09:51.601097'
p381
aa(lp382
I5
aI32
aI00
ag64
aI5
aI0
aI5
aI30
aI5
aI0
ag39
ag51
((ltRp383
ag51
((lp384
g41
ag25
ag42
ag21
ag40
atRp385
aS'http://thelastdrivein.com/2011/01/24/the-maze-1953-of-highlands-and-amphibians/'
p386
aS'2015-06-19 20:09:54.635449'
p387
aa(lp388
I5
aI33
aI00
ag64
aI5
aI2
aI5
aI20
aI5
aI0
ag39
ag51
((lp389
g41
ag40
atRp390
ag51
((lp391
g41
ag25
ag42
ag21
ag40
atRp392
aS'http://geekgirlcon.com/tag/geekgirlcon/page/3/'
p393
aS'2015-06-19 20:09:55.808926'
p394
aa(lp395
I5
aI34
aI00
ag64
aI5
aI1
aI1
aI5
aI5
aI0
ag39
ag51
((lp396
Vparker
p397
atRp398
ag51
((lp399
g397
atRp400
aS'http://www.tthfanfic.org/CategoryStories-1-8/Television.htm'
p401
aS'2015-06-19 20:09:56.679944'
p402
aa(lp403
I5
aI35
aI00
ag64
aI5
aI3
aI5
aI16
aI5
aI0
ag39
ag51
((lp404
g41
ag42
ag40
atRp405
ag51
((lp406
g41
ag25
ag42
ag21
ag40
atRp407
aS'https://divertingjourneys.wordpress.com/tag/halloween/'
p408
aS'2015-06-19 20:09:59.044674'
p409
aa(lp410
I5
aI36
aI00
ag64
aI5
aI2
aI5
aI14
aI5
aI0
ag39
ag51
((lp411
g21
ag40
atRp412
ag51
((lp413
g41
ag25
ag42
ag21
ag40
atRp414
aS'http://www.comicbookresources.com/?page=article&id=23075'
p415
aS'2015-06-19 20:10:05.805450'
p416
aa(lp417
I5
aI37
aI00
ag64
aI5
aI3
aI5
aI13
aI5
aI0
ag39
ag51
((lp418
g41
ag25
ag40
atRp419
ag51
((lp420
g41
ag25
ag42
ag21
ag40
atRp421
aS'http://www.tikiroom.com/tikicentral/bb/viewtopic.php?mode=viewtopic&topic=21212&forum=18&start=3510&hilite=Mai%20Kai'
p422
aS'2015-06-19 20:10:07.097076'
p423
aa(lp424
I5
aI38
aI00
ag64
aI5
aI1
aI5
aI32
aI5
aI0
ag39
ag51
((lp425
g40
atRp426
ag51
((lp427
g41
ag25
ag42
ag21
ag40
atRp428
aS'http://chlotrudis.org/awards/archives/tenth/index.html'
p429
aS'2015-06-19 20:10:08.450980'
p430
aa(lp431
I5
aI39
aI00
ag64
aI5
aI1
aI3
aI10
aI5
aI0
ag39
ag51
((lp432
g42
atRp433
ag51
((lp434
g42
ag21
ag40
atRp435
aS'http://www.jonathanmoya.net/2014/11/27/30740/'
p436
aS'2015-06-19 20:10:11.125709'
p437
aa(lp438
I5
aI40
aI00
ag64
aI5
aI0
aI0
aI1
aI5
aI0
ag39
ag51
((ltRp439
ag51
((ltRp440
aS'https://www.facebook.com/GraihHughes'
p441
aS'2015-06-19 20:10:14.131302'
p442
aa(lp443
I5
aI41
aI00
ag64
aI5
aI0
aI0
aI1
aI5
aI0
ag39
ag51
((ltRp444
ag51
((ltRp445
aS'https://www.facebook.com/brian.keyte.9'
p446
aS'2015-06-19 20:10:14.777161'
p447
aa(lp448
I5
aI42
aI00
ag64
aI5
aI3
aI5
aI14
aI5
aI0
ag39
ag51
((lp449
g41
ag42
ag40
atRp450
ag51
((lp451
g41
ag25
ag42
ag21
ag40
atRp452
aS'https://www.pinterest.com/kristihenning/wow/'
p453
aS'2015-06-19 20:10:18.044547'
p454
aa(lp455
I5
aI43
aI00
ag64
aI5
aI1
aI5
aI23
aI5
aI0
ag39
ag51
((lp456
g42
atRp457
ag51
((lp458
g41
ag25
ag42
ag21
ag40
atRp459
aS'http://thepreviewreviewing.weebly.com/my-preview-re-viewing-blog/category/2014-oscars'
p460
aS'2015-06-19 20:10:24.024517'
p461
aa(lp462
I5
aI44
aI00
ag64
aI5
aI2
aI5
aI13
aI5
aI0
ag39
ag51
((lp463
g41
ag40
atRp464
ag51
((lp465
g41
ag25
ag42
ag21
ag40
atRp466
aS'http://www.tikiroom.com/tikicentral/bb/viewtopic.php?mode=viewtopic&topic=21212&forum=18&start=3510'
p467
aS'2015-06-19 20:10:25.049100'
p468
aa(lp469
I5
aI45
aI00
ag64
aI5
aI1
aI5
aI31
aI5
aI0
ag39
ag51
((lp470
g42
atRp471
ag51
((lp472
g41
ag25
ag42
ag21
ag40
atRp473
aS'https://www.fanfiction.net/u/4122152/Alsc-Petrelli-Winchester-Stark'
p474
aS'2015-06-19 20:10:28.695306'
p475
aa(lp476
I5
aI46
aI00
ag64
aI5
aI0
aI5
aI27
aI5
aI0
ag39
ag51
((ltRp477
ag51
((lp478
g41
ag25
ag42
ag21
ag40
atRp479
aS'https://www.fanfiction.net/u/1785492/Cullens-The-Pack-And-Me-Love'
p480
aS'2015-06-19 20:10:29.216156'
p481
aa(lp482
I5
aI47
aI00
ag64
aI5
aI0
aI3
aI16
aI5
aI0
ag39
ag51
((ltRp483
ag51
((lp484
g41
ag42
ag21
atRp485
aS'https://www.tumblr.com/tagged/fandom-writings'
p486
aS'2015-06-19 20:10:33.672386'
p487
aa(lp488
I5
aI48
aI00
ag64
aI5
aI1
aI1
aI5
aI5
aI0
ag39
ag51
((lp489
Vweird
p490
atRp491
ag51
((lp492
g490
atRp493
aS'http://modernmouseradio.com/tag/films/'
p494
aS'2015-06-19 20:10:34.904288'
p495
aa(lp496
I5
aI49
aI00
ag64
aI5
aI3
aI5
aI29
aI5
aI0
ag39
ag51
((lp497
g41
ag21
ag40
atRp498
ag51
((lp499
g41
ag25
ag42
ag21
ag40
atRp500
aS'http://www.trovster.com/movies/genre/adventure'
p501
aS'2015-06-19 20:10:38.305996'
p502
aa(lp503
I5
aI50
aI00
ag64
aI5
aI1
aI5
aI30
aI5
aI0
ag39
ag51
((lp504
g41
atRp505
ag51
((lp506
g41
ag25
ag42
ag21
ag40
atRp507
aS'http://thelastdrivein.com/2011/02/09/the-man-who-turned-to-stone-1956are-those-stones-in-your-pocket-or-are-you-just-happy-to-see-me/'
p508
aS'2015-06-19 20:10:44.600121'
p509
aa(lp510
I5
aI51
aI00
ag64
aI5
aI2
aI5
aI32
aI5
aI0
ag39
ag51
((lp511
g25
ag40
atRp512
ag51
((lp513
g41
ag25
ag42
ag21
ag40
atRp514
aS'http://www.rehtwogunraconteur.com/page/2/?s=Agnes'
p515
aS'2015-06-19 20:10:47.325917'
p516
aa(lp517
I5
aI52
aI00
ag64
aI5
aI0
aI0
aI2
aI5
aI0
ag39
ag51
((ltRp518
ag51
((ltRp519
aS'http://www.dailykos.com/story/2010/06/06/873223/-Saturday-Evening-Geek-Out-Mystery-Novels'
p520
aS'2015-06-19 20:10:48.817189'
p521
aa(lp522
I5
aI53
aI00
ag64
aI5
aI0
aI5
aI29
aI5
aI0
ag39
ag51
((ltRp523
ag51
((lp524
g41
ag25
ag42
ag21
ag40
atRp525
aS'http://levigilant.com/Bulfinch_Mythology/bulfinch.englishatheist.org/monsters/mm12.htm'
p526
aS'2015-06-19 20:10:49.328757'
p527
aa(lp528
I5
aI54
aI00
ag64
aI5
aI2
aI4
aI16
aI5
aI0
ag39
ag51
((lp529
g25
ag21
atRp530
ag51
((lp531
g25
ag42
ag21
ag40
atRp532
aS'https://www.pinterest.com/ilovegibson/nature/'
p533
aS'2015-06-19 20:10:52.430222'
p534
aa(lp535
I5
aI55
aI00
ag64
aI5
aI1
aI5
aI26
aI5
aI0
ag39
ag51
((lp536
g41
atRp537
ag51
((lp538
g41
ag25
ag42
ag21
ag40
atRp539
aS'https://memoriousmag.wordpress.com/page/2/'
p540
aS'2015-06-19 20:10:54.265553'
p541
aa(lp542
I5
aI56
aI00
ag64
aI5
aI1
aI5
aI26
aI5
aI0
ag39
ag51
((lp543
g40
atRp544
ag51
((lp545
g41
ag25
ag42
ag21
ag40
atRp546
aS'http://free-ebookusa.blogspot.com/2013/02/number-1314-putting-artist-in-comic.html'
p547
aS'2015-06-19 20:10:57.609414'
p548
aa(lp549
I5
aI57
aI00
ag64
aI5
aI0
aI0
aI1
aI5
aI0
ag39
ag51
((ltRp550
ag51
((ltRp551
aS'https://www.facebook.com/jonjo.glover'
p552
aS'2015-06-19 20:10:58.084151'
p553
aa(lp554
I5
aI58
aI00
ag64
aI5
aI0
aI0
aI1
aI5
aI0
ag39
ag51
((ltRp555
ag51
((ltRp556
aS'https://www.facebook.com/molliemay.smith'
p557
aS'2015-06-19 20:10:58.622105'
p558
aa(lp559
I5
aI59
aI00
ag64
aI5
aI0
aI1
aI18
aI5
aI0
ag39
ag51
((ltRp560
ag51
((lp561
g42
atRp562
aS'https://www.tumblr.com/tagged/no-one-can-stop-me-from-putting-this-on-the-tags'
p563
aS'2015-06-19 20:11:01.619213'
p564
aa(lp565
I5
aI60
aI00
ag64
aI5
aI0
aI0
aI1
aI5
aI0
ag39
ag51
((ltRp566
ag51
((ltRp567
aS'https://www.facebook.com/rachael.mcdonald.9699'
p568
aS'2015-06-19 20:11:04.321488'
p569
aa(lp570
I5
aI61
aI00
ag64
aI5
aI0
aI0
aI1
aI5
aI0
ag39
ag51
((ltRp571
ag51
((ltRp572
aS'https://www.facebook.com/sonia.henry.52?hc_location=ufi'
p573
aS'2015-06-19 20:11:04.831922'
p574
aa(lp575
I5
aI62
aI00
ag64
aI5
aI1
aI1
aI2
aI5
aI0
ag39
ag51
((lp576
Vparker
p577
atRp578
ag51
((lp579
g577
atRp580
aS'https://www.facebook.com/frankie.parker.10'
p581
aS'2015-06-19 20:11:05.306863'
p582
aa(lp583
I5
aI63
aI00
ag64
aI5
aI1
aI5
aI34
aI5
aI0
ag39
ag51
((lp584
g40
atRp585
ag51
((lp586
g41
ag25
ag42
ag21
ag40
atRp587
aS'http://thelastdrivein.com/2010/12/07/women-in-peril-series-overview-a-part-of-film-historysub-genre/'
p588
aS'2015-06-19 20:11:08.894420'
p589
aa(lp590
I5
aI64
aI00
ag64
aI5
aI2
aI5
aI27
aI5
aI0
ag39
ag51
((lp591
g25
ag40
atRp592
ag51
((lp593
g41
ag25
ag42
ag21
ag40
atRp594
aS'http://thelastdrivein.com/2012/04/02/a-trailer-a-day-keeps-the-boogeyman-away-mr-sardonicus-1961/'
p595
aS'2015-06-19 20:11:11.930352'
p596
aa(lp597
I5
aI65
aI00
ag64
aI5
aI2
aI5
aI16
aI5
aI0
ag39
ag51
((lp598
g41
ag40
atRp599
ag51
((lp600
g41
ag25
ag42
ag21
ag40
atRp601
aS'http://www.trescomforum.org/viewtopic.php?f=39&t=4699'
p602
aS'2015-06-19 20:11:12.891037'
p603
aa(lp604
I5
aI66
aI00
ag64
aI5
aI0
aI0
aI5
aI5
aI0
ag39
ag51
((ltRp605
ag51
((ltRp606
aS'http://beefcake65.rssing.com/chan-13488556/all_p35.html'
p607
aS'2015-06-19 20:11:13.730153'
p608
aa(lp609
I5
aI67
aI00
ag64
aI5
aI1
aI5
aI24
aI5
aI0
ag39
ag51
((lp610
g21
atRp611
ag51
((lp612
g41
ag25
ag42
ag21
ag40
atRp613
aS'http://www.camhughes.com/category/doomcloud-com/page/2/'
p614
aS'2015-06-19 20:11:15.007232'
p615
aa(lp616
I5
aI68
aI00
ag64
aI5
aI0
aI5
aI43
aI5
aI0
ag39
ag51
((ltRp617
ag51
((lp618
g41
ag25
ag42
ag21
ag40
atRp619
aS'https://littlespyeye.wordpress.com/page/18/'
p620
aS'2015-06-19 20:11:18.852559'
p621
aa(lp622
I5
aI69
aI00
ag64
aI5
aI0
aI0
aI1
aI5
aI0
ag39
ag51
((ltRp623
ag51
((ltRp624
aS'http://io9.com/tons-of-wild-rumors-about-wonder-woman-spider-girl-and-1653168506'
p625
aS'2015-06-19 20:11:19.872696'
p626
aa(lp627
I5
aI70
aI00
ag64
aI5
aI2
aI5
aI30
aI5
aI0
ag39
ag51
((lp628
g41
ag42
atRp629
ag51
((lp630
g41
ag25
ag42
ag21
ag40
atRp631
aS'http://thelastdrivein.com/2014/01/24/from-the-vault-russ-meyers-the-seven-minutes-1971/'
p632
aS'2015-06-19 20:11:25.338096'
p633
aa(lp634
I5
aI71
aI00
ag64
aI5
aI1
aI5
aI32
aI5
aI0
ag39
ag51
((lp635
g40
atRp636
ag51
((lp637
g41
ag25
ag42
ag21
ag40
atRp638
aS'http://thelastdrivein.com/2011/03/13/obscure-scream-gems-the-monolith-monsters-1957-the-deserts-full-of-things-that-dont-belong/'
p639
aS'2015-06-19 20:11:28.174583'
p640
aa(lp641
I5
aI72
aI00
ag64
aI5
aI1
aI1
aI2
aI5
aI0
ag39
ag51
((lp642
Vparker
p643
atRp644
ag51
((lp645
g643
atRp646
aS'https://www.facebook.com/heather.parker.313?hc_location=ufi'
p647
aS'2015-06-19 20:11:28.628979'
p648
aa(lp649
I5
aI73
aI00
ag64
aI5
aI0
aI0
aI2
aI5
aI0
ag39
ag51
((ltRp650
ag51
((ltRp651
aS'https://www.facebook.com/shauni.blake93?hc_location=ufi'
p652
aS'2015-06-19 20:11:29.205590'
p653
aa(lp654
I5
aI74
aI00
ag64
aI5
aI0
aI0
aI1
aI5
aI0
ag39
ag51
((ltRp655
ag51
((ltRp656
aS'https://www.facebook.com/colin.maguire.900'
p657
aS'2015-06-19 20:11:29.600181'
p658
aa(lp659
I5
aI75
aI00
ag64
aI5
aI0
aI1
aI17
aI5
aI0
ag39
ag51
((ltRp660
ag51
((lp661
g42
atRp662
aS'https://www.tumblr.com/tagged/putting-on-the-charm'
p663
aS'2015-06-19 20:11:32.375044'
p664
aa(lp665
I5
aI76
aI00
ag64
aI5
aI2
aI5
aI18
aI5
aI0
ag39
ag51
((lp666
g41
ag21
atRp667
ag51
((lp668
g41
ag25
ag42
ag21
ag40
atRp669
aS'https://vinyldraft.wordpress.com/'
p670
aS'2015-06-19 20:11:34.330686'
p671
aa(lp672
I5
aI77
aI00
ag64
aI5
aI2
aI5
aI25
aI5
aI0
ag39
ag51
((lp673
g41
ag42
atRp674
ag51
((lp675
g41
ag25
ag42
ag21
ag40
atRp676
aS'http://horrorunlimited.blogspot.com/2014_02_01_archive.html'
p677
aS'2015-06-19 20:11:37.693759'
p678
aa(lp679
I5
aI78
aI00
ag64
aI5
aI3
aI5
aI19
aI5
aI0
ag39
ag51
((lp680
g41
ag25
ag40
atRp681
ag51
((lp682
g41
ag25
ag42
ag21
ag40
atRp683
aS'http://somecamerunning.typepad.com/some_came_running/2012/12/page/2/'
p684
aS'2015-06-19 20:11:39.394155'
p685
aa(lp686
I5
aI79
aI00
ag64
aI5
aI2
aI5
aI18
aI5
aI0
ag39
ag51
((lp687
g42
ag40
atRp688
ag51
((lp689
g41
ag25
ag42
ag21
ag40
atRp690
aS'http://feeds.hexagonstar.com/tag/dungeons/'
p691
aS'2015-06-19 20:11:46.573266'
p692
aa(lp693
I5
aI80
aI00
ag64
aI5
aI1
aI5
aI35
aI5
aI0
ag39
ag51
((lp694
g40
atRp695
ag51
((lp696
g41
ag25
ag42
ag21
ag40
atRp697
aS'http://www.buddyhead.com/tag/coachella/feed/'
p698
aS'2015-06-19 20:11:54.430784'
p699
aa(lp700
I5
aI81
aI00
ag64
aI5
aI0
aI0
aI0
aI5
aI0
ag39
ag51
((ltRp701
ag51
((ltRp702
aS'http://www.forbes.com/sites/patrickmoorhead/2012/07/10/kingsisle-already-leads-where-gaming-hopes-to-go/'
p703
aS'2015-06-19 20:11:57.978412'
p704
aa(lp705
I5
aI82
aI00
ag64
aI5
aI2
aI5
aI21
aI5
aI0
ag39
ag51
((lp706
g41
ag21
atRp707
ag51
((lp708
g41
ag25
ag42
ag21
ag40
atRp709
aS'http://www.pjfarmer.com/woldnewton/Chron10.htm'
p710
aS'2015-06-19 20:11:58.578325'
p711
aa(lp712
I5
aI83
aI00
ag64
aI5
aI1
aI5
aI19
aI5
aI0
ag39
ag51
((lp713
g42
atRp714
ag51
((lp715
g41
ag25
ag42
ag21
ag40
atRp716
aS'http://longboxgraveyard.com/tag/gene-colan/'
p717
aS'2015-06-19 20:12:01.864148'
p718
aa(lp719
I5
aI84
aI00
ag64
aI5
aI0
aI0
aI0
aI5
aI0
ag39
ag51
((ltRp720
ag51
((ltRp721
aS'http://www.comicbookmovie.com/fansites/THURSDAY17/news/?a=16906'
p722
aS'2015-06-19 20:12:02.979848'
p723
aa(lp724
I5
aI85
aI00
ag64
aI5
aI1
aI5
aI20
aI5
aI0
ag39
ag51
((lp725
g41
atRp726
ag51
((lp727
g41
ag25
ag42
ag21
ag40
atRp728
aS'http://www.bmoviegraveyard.com/reviews/H/HorrorsOfSpiderIsland/'
p729
aS'2015-06-19 20:12:03.426228'
p730
aa(lp731
I5
aI86
aI00
ag64
aI5
aI1
aI3
aI20
aI5
aI0
ag39
ag51
((lp732
g25
atRp733
ag51
((lp734
g41
ag25
ag40
atRp735
aS'http://www.mycomicshop.com/groups/spiderman-comic-books?mingr=0&IVGroupID=10130161&p=2'
p736
aS'2015-06-19 20:12:05.810768'
p737
aa(lp738
I5
aI87
aI00
ag64
aI5
aI2
aI5
aI26
aI5
aI0
ag39
ag51
((lp739
g41
ag21
atRp740
ag51
((lp741
g41
ag25
ag42
ag21
ag40
atRp742
aS'http://forums.soompi.com/en/discussion/114273/movie-2008-the-good-the-bad-the-weird-%EC%A2%8B%EC%9D%80-%EB%86%88-%EB%82%98%EC%81%9C-%EB%86%88-%EC%9D%B4%EC%83%81%ED%95%9C-%EB%86%88/p71'
p743
aS'2015-06-19 20:12:09.737656'
p744
aa(lp745
I5
aI88
aI00
ag64
aI5
aI1
aI5
aI25
aI5
aI0
ag39
ag51
((lp746
g40
atRp747
ag51
((lp748
g41
ag25
ag42
ag21
ag40
atRp749
aS'http://www.reddit.com/r/comicbooks/comments/1yivo1/marvel_fans_what_about_the_dc_comic_universe/?limit=500'
p750
aS'2015-06-19 20:12:15.284360'
p751
aa(lp752
I5
aI89
aI00
ag64
aI5
aI0
aI5
aI33
aI5
aI0
ag39
ag51
((ltRp753
ag51
((lp754
g41
ag25
ag42
ag21
ag40
atRp755
aS'http://avatarcomic.net/exalted-wiki/Exalts'
p756
aS'2015-06-19 20:12:20.763801'
p757
aa(lp758
I5
aI90
aI00
ag64
aI5
aI0
aI5
aI30
aI5
aI0
ag39
ag51
((ltRp759
ag51
((lp760
g41
ag25
ag42
ag21
ag40
atRp761
aS'http://efanzines.com/EK/eI33/'
p762
aS'2015-06-19 20:12:25.297072'
p763
aa(lp764
I5
aI91
aI00
ag64
aI5
aI1
aI1
aI2
aI5
aI0
ag39
ag51
((lp765
Vparker
p766
atRp767
ag51
((lp768
g766
atRp769
aS'https://www.facebook.com/sophie.parker.900/place_reviews_written'
p770
aS'2015-06-19 20:12:25.887114'
p771
aa(lp772
I5
aI92
aI00
ag64
aI5
aI0
aI5
aI26
aI5
aI0
ag39
ag51
((ltRp773
ag51
((lp774
g41
ag25
ag42
ag21
ag40
atRp775
aS'http://forums.bigfishgames.com/posts/list/232161.page'
p776
aS'2015-06-19 20:12:27.065792'
p777
aa(lp778
I5
aI93
aI00
ag64
aI5
aI1
aI4
aI19
aI5
aI0
ag39
ag51
((lp779
g21
atRp780
ag51
((lp781
g41
ag25
ag21
ag40
atRp782
aS'http://www.spokanelibrary.org/browse/fiction-kids/'
p783
aS'2015-06-19 20:12:29.017249'
p784
aa(lp785
I5
aI94
aI00
ag64
aI5
aI0
aI0
aI2
aI5
aI0
ag39
ag51
((ltRp786
ag51
((ltRp787
aS'http://tvtropes.org/pmwiki/pmwiki.php/Main/DirectorTrademark'
p788
aS'2015-06-19 20:12:29.709350'
p789
aa(lp790
I5
aI95
aI00
ag64
aI5
aI1
aI5
aI31
aI5
aI0
ag39
ag51
((lp791
g25
atRp792
ag51
((lp793
g41
ag25
ag42
ag21
ag40
atRp794
aS'http://davidszondy.com/ephemeral/archive07-04.htm'
p795
aS'2015-06-19 20:12:31.314339'
p796
aa(lp797
I5
aI96
aI00
ag64
aI5
aI0
aI5
aI33
aI5
aI0
ag39
ag51
((ltRp798
ag51
((lp799
g41
ag25
ag42
ag21
ag40
atRp800
aS'http://thelastdrivein.com/category/the-players/john-carradine/'
p801
aS'2015-06-19 20:12:34.895318'
p802
aa(lp803
I5
aI97
aI00
ag64
aI5
aI2
aI5
aI16
aI5
aI0
ag39
ag51
((lp804
g42
ag21
atRp805
ag51
((lp806
g41
ag25
ag42
ag21
ag40
atRp807
aS'http://www.newspapers.com/newspage/26441114/'
p808
aS'2015-06-19 20:12:35.635174'
p809
aa(lp810
I5
aI98
aI00
ag64
aI5
aI1
aI5
aI23
aI5
aI0
ag39
ag51
((lp811
g41
atRp812
ag51
((lp813
g41
ag25
ag42
ag21
ag40
atRp814
aS'http://thearmchaircritic.blogspot.com/2011_02_01_archive.html'
p815
aS'2015-06-19 20:12:39.517649'
p816
aa(lp817
I5
aI99
aI00
ag64
aI5
aI1
aI5
aI33
aI5
aI0
ag39
ag51
((lp818
g41
atRp819
ag51
((lp820
g41
ag25
ag42
ag21
ag40
atRp821
aS'https://www.fanfiction.net/u/2152907/Inquisitor-Lord-Parker'
p822
aS'2015-06-19 20:12:45.877141'
p823
aa(lp824
I5
aI100
aI00
ag64
aI5
aI1
aI1
aI2
aI5
aI0
ag39
ag51
((lp825
Vparker
p826
atRp827
ag51
((lp828
g826
atRp829
aS'https://www.facebook.com/leah.parker.397'
p830
aS'2015-06-19 20:12:46.320973'
p831
aa(lp832
I5
aI101
aI00
ag64
aI5
aI0
aI0
aI1
aI5
aI0
ag39
ag51
((ltRp833
ag51
((ltRp834
aS'https://www.facebook.com/sonia.henry.52'
p835
aS'2015-06-19 20:12:46.850251'
p836
aa(lp837
I5
aI102
aI00
ag64
aI5
aI0
aI0
aI1
aI5
aI0
ag39
ag51
((ltRp838
ag51
((ltRp839
aS'https://www.facebook.com/nikola.parkerkwil'
p840
aS'2015-06-19 20:12:47.219037'
p841
aa(lp842
I5
aI103
aI00
ag64
aI5
aI0
aI0
aI1
aI5
aI0
ag39
ag51
((ltRp843
ag51
((ltRp844
aS'https://www.facebook.com/lucyrebeccaparker'
p845
aS'2015-06-19 20:12:47.551611'
p846
aa(lp847
I5
aI104
aI00
ag64
aI5
aI1
aI5
aI22
aI5
aI0
ag39
ag51
((lp848
g42
atRp849
ag51
((lp850
g41
ag25
ag42
ag21
ag40
atRp851
aS'http://disneyandmore.blogspot.com/2010_04_18_archive.html'
p852
aS'2015-06-19 20:12:49.128611'
p853
aa(lp854
I5
aI105
aI00
ag64
aI5
aI1
aI5
aI16
aI5
aI0
ag39
ag51
((lp855
g42
atRp856
ag51
((lp857
g41
ag25
ag42
ag21
ag40
atRp858
aS'http://www.deviantart.com/morelikethis/artists/107778254/journals?view_mode=2'
p859
aS'2015-06-19 20:12:52.493508'
p860
aa(lp861
I5
aI106
aI00
ag64
aI5
aI1
aI5
aI31
aI5
aI0
ag39
ag51
((lp862
g41
atRp863
ag51
((lp864
g41
ag25
ag42
ag21
ag40
atRp865
aS'http://disney.wikia.com/wiki/New_York'
p866
aS'2015-06-19 20:12:54.245686'
p867
aa(lp868
I5
aI107
aI00
ag64
aI5
aI1
aI5
aI20
aI5
aI0
ag39
ag51
((lp869
g40
atRp870
ag51
((lp871
g41
ag25
ag42
ag21
ag40
atRp872
aS'http://www.unassaggio.com/category/friday-favorites/'
p873
aS'2015-06-19 20:12:59.262631'
p874
aa(lp875
I5
aI108
aI00
ag64
aI5
aI0
aI2
aI17
aI5
aI0
ag39
ag51
((ltRp876
ag51
((lp877
g41
ag40
atRp878
aS'https://www.pinterest.com/brittad2/oh-the-places-i-ll-go/'
p879
aS'2015-06-19 20:13:03.594528'
p880
aa(lp881
I5
aI109
aI00
ag64
aI5
aI0
aI0
aI1
aI5
aI0
ag39
ag51
((ltRp882
ag51
((ltRp883
aS'https://www.facebook.com/jocelyn.vance'
p884
aS'2015-06-19 20:13:06.540620'
p885
aa(lp886
I5
aI110
aI00
ag64
aI5
aI0
aI0
aI1
aI5
aI0
ag39
ag51
((ltRp887
ag51
((ltRp888
aS'https://www.facebook.com/sophie.cuthbert.5'
p889
aS'2015-06-19 20:13:07.004919'
p890
aa(lp891
I5
aI111
aI00
ag64
aI5
aI1
aI1
aI10
aI5
aI0
ag39
ag51
((lp892
g42
atRp893
ag51
((lp894
g42
atRp895
aS'http://www.dtgre.com/2013_01_01_archive.html'
p896
aS'2015-06-19 20:13:09.051102'
p897
aa(lp898
I5
aI112
aI00
ag64
aI5
aI3
aI3
aI13
aI5
aI0
ag39
ag51
((lp899
g41
ag25
ag40
atRp900
ag51
((lp901
g41
ag25
ag40
atRp902
aS'http://www.joshuablubuhs.com/blog/category/ben%20hecht'
p903
aS'2015-06-19 20:13:10.082937'
p904
aa(lp905
I5
aI113
aI00
ag64
aI5
aI0
aI5
aI29
aI5
aI0
ag39
ag51
((ltRp906
ag51
((lp907
g41
ag25
ag42
ag21
ag40
atRp908
aS'http://michaelsiegel.net/?tag=movies'
p909
aS'2015-06-19 20:13:16.523117'
p910
aa(lp911
I5
aI114
aI00
ag64
aI5
aI2
aI5
aI23
aI5
aI0
ag39
ag51
((lp912
g42
ag21
atRp913
ag51
((lp914
g41
ag25
ag42
ag21
ag40
atRp915
aS'http://www.edrants.com/2004/02/page/2/'
p916
aS'2015-06-19 20:13:19.159937'
p917
aa(lp918
I5
aI115
aI00
ag64
aI5
aI1
aI5
aI31
aI5
aI0
ag39
ag51
((lp919
g41
atRp920
ag51
((lp921
g41
ag25
ag42
ag21
ag40
atRp922
aS'http://thelastdrivein.com/tag/3d/'
p923
aS'2015-06-19 20:13:22.316280'
p924
aa(lp925
I5
aI116
aI00
ag64
aI5
aI1
aI5
aI28
aI5
aI0
ag39
ag51
((lp926
g40
atRp927
ag51
((lp928
g41
ag25
ag42
ag21
ag40
atRp929
aS'https://bowiesongs.wordpress.com/category/emi-years-1983-1990/'
p930
aS'2015-06-19 20:13:23.262523'
p931
aa(lp932
I5
aI117
aI00
ag64
aI5
aI0
aI5
aI19
aI5
aI0
ag39
ag51
((ltRp933
ag51
((lp934
g41
ag25
ag42
ag21
ag40
atRp935
aS'https://memoriousmag.wordpress.com/category/anticipated-books-of-2015/'
p936
aS'2015-06-19 20:13:25.252572'
p937
aa(lp938
I5
aI118
aI00
ag64
aI5
aI2
aI4
aI11
aI5
aI0
ag39
ag51
((lp939
g42
ag40
atRp940
ag51
((lp941
g25
ag42
ag21
ag40
atRp942
aS'http://www.esquire.com/sports/a661/golf-kingdom-0900/'
p943
aS'2015-06-19 20:13:27.245018'
p944
aa(lp945
I5
aI119
aI00
ag64
aI5
aI1
aI2
aI12
aI5
aI0
ag39
ag51
((lp946
g42
atRp947
ag51
((lp948
g41
ag42
atRp949
aS'http://www.deviantart.com/morelikethis/artists/34933933/journals?view_mode=2'
p950
aS'2015-06-19 20:13:32.359746'
p951
aa(lp952
I5
aI120
aI00
ag64
aI5
aI0
aI0
aI0
aI5
aI0
ag39
ag51
((ltRp953
ag51
((ltRp954
aS'http://dtmmr.com/tag/spider-man/'
p955
aS'2015-06-19 20:13:33.377828'
p956
aa(lp957
I5
aI121
aI00
ag64
aI5
aI1
aI5
aI26
aI5
aI0
ag39
ag51
((lp958
g41
atRp959
ag51
((lp960
g41
ag25
ag42
ag21
ag40
atRp961
aS'http://thepreviewreviewing.weebly.com/my-preview-re-viewing-blog/archives/12-2012'
p962
aS'2015-06-19 20:13:35.030602'
p963
aa(lp964
I5
aI122
aI00
ag64
aI5
aI2
aI5
aI27
aI5
aI0
ag39
ag51
((lp965
g25
ag42
atRp966
ag51
((lp967
g41
ag25
ag42
ag21
ag40
atRp968
aS'http://www.bmonster.com/oct2005.shtml'
p969
aS'2015-06-19 20:13:35.369795'
p970
aa(lp971
I5
aI123
aI00
ag64
aI5
aI0
aI5
aI18
aI5
aI0
ag39
ag51
((ltRp972
ag51
((lp973
g41
ag25
ag42
ag21
ag40
atRp974
aS'http://disneyandmore.blogspot.com/2015/06/disneyland-paris-reveal-all-about-dlp.html'
p975
aS'2015-06-19 20:13:37.121076'
p976
aa(lp977
I5
aI124
aI00
ag64
aI5
aI1
aI5
aI36
aI5
aI0
ag39
ag51
((lp978
g25
atRp979
ag51
((lp980
g41
ag25
ag42
ag21
ag40
atRp981
aS'http://ideas.wikia.com/wiki/Non-canon_Kingdom_Hearts'
p982
aS'2015-06-19 20:13:39.771920'
p983
aa(lp984
I5
aI125
aI00
ag64
aI5
aI0
aI0
aI1
aI5
aI0
ag39
ag51
((ltRp985
ag51
((ltRp986
aS'https://www.facebook.com/jessica.pendergrass.1'
p987
aS'2015-06-19 20:13:40.274400'
p988
aa(lp989
I5
aI126
aI00
ag64
aI5
aI1
aI5
aI20
aI5
aI0
ag39
ag51
((lp990
g40
atRp991
ag51
((lp992
g41
ag25
ag42
ag21
ag40
atRp993
aS'http://www.newspapers.com/newspage/52034933/'
p994
aS'2015-06-19 20:13:41.110475'
p995
aa(lp996
I5
aI127
aI00
ag64
aI5
aI0
aI0
aI0
aI5
aI0
ag39
ag51
((ltRp997
ag51
((ltRp998
aS'http://7d.blogs.com/blurt/2010/08/page/6/'
p999
aS'2015-06-19 20:13:42.863801'
p1000
aa(lp1001
I5
aI128
aI00
ag64
aI5
aI0
aI5
aI29
aI5
aI0
ag39
ag51
((ltRp1002
ag51
((lp1003
g41
ag25
ag42
ag21
ag40
atRp1004
aS'http://twistedtwinsproductions.blogspot.com/2014/02/we-live-film-talks-to-twisted-twins.html'
p1005
aS'2015-06-19 20:13:45.289602'
p1006
aa(lp1007
I5
aI129
aI00
ag64
aI5
aI0
aI0
aI1
aI5
aI0
ag39
ag51
((ltRp1008
ag51
((ltRp1009
aS'https://www.facebook.com/Dahoun11'
p1010
aS'2015-06-19 20:13:47.863749'
p1011
aa(lp1012
I5
aI130
aI00
ag64
aI5
aI0
aI0
aI1
aI5
aI0
ag39
ag51
((ltRp1013
ag51
((ltRp1014
aS'https://www.facebook.com/mickdoyle83'
p1015
aS'2015-06-19 20:13:48.331716'
p1016
aa(lp1017
I5
aI131
aI00
ag64
aI5
aI1
aI1
aI2
aI5
aI0
ag39
ag51
((lp1018
Vparker
p1019
atRp1020
ag51
((lp1021
g1019
atRp1022
aS'https://www.facebook.com/sophie.parker.900'
p1023
aS'2015-06-19 20:13:48.639485'
p1024
aa(lp1025
I5
aI132
aI00
ag64
aI5
aI3
aI5
aI28
aI5
aI0
ag39
ag51
((lp1026
g41
ag25
ag40
atRp1027
ag51
((lp1028
g41
ag25
ag42
ag21
ag40
atRp1029
aS'http://thelastdrivein.com/2012/03/02/a-trailer-a-day-keeps-the-boogeyman-away-dead-ringer-1964/'
p1030
aS'2015-06-19 20:13:51.996618'
p1031
aa(lp1032
I5
aI133
aI00
ag64
aI5
aI1
aI5
aI30
aI5
aI0
ag39
ag51
((lp1033
g25
atRp1034
ag51
((lp1035
g41
ag25
ag42
ag21
ag40
atRp1036
aS'http://thelastdrivein.com/2011/01/25/the-mask-1961-i-cant-stop-i-dont-want-to/'
p1037
aS'2015-06-19 20:13:54.776147'
p1038
aa(lp1039
I5
aI134
aI00
ag64
aI5
aI1
aI5
aI30
aI5
aI0
ag39
ag51
((lp1040
g25
atRp1041
ag51
((lp1042
g41
ag25
ag42
ag21
ag40
atRp1043
aS'http://thelastdrivein.com/category/the-players/denver-pyle/'
p1044
aS'2015-06-19 20:13:57.015837'
p1045
aa(lp1046
I5
aI135
aI00
ag64
aI5
aI1
aI5
aI24
aI5
aI0
ag39
ag51
((lp1047
g25
atRp1048
ag51
((lp1049
g41
ag25
ag42
ag21
ag40
atRp1050
aS'http://johnnybacardi.blogspot.com/2006_10_01_archive.html'
p1051
aS'2015-06-19 20:13:59.717121'
p1052
aa(lp1053
I5
aI136
aI00
ag64
aI5
aI2
aI2
aI16
aI5
aI0
ag39
ag51
((lp1054
g41
ag42
atRp1055
ag51
((lp1056
g41
ag42
atRp1057
aS'http://www.tumblr.com/tagged/so-this-was-all-i-came-up-with'
p1058
aS'2015-06-19 20:14:03.448427'
p1059
aa(lp1060
I5
aI137
aI00
ag64
aI5
aI1
aI3
aI9
aI5
aI0
ag39
ag51
((lp1061
g21
atRp1062
ag51
((lp1063
g25
ag21
ag40
atRp1064
aS'http://thepreviewreviewing.weebly.com/my-preview-re-viewing-blog/category/dangerous%20ishhq%20mini'
p1065
aS'2015-06-19 20:14:04.202010'
p1066
aa(lp1067
I5
aI138
aI00
ag64
aI5
aI4
aI5
aI22
aI5
aI0
ag39
ag51
((lp1068
g41
ag25
ag42
ag40
atRp1069
ag51
((lp1070
g41
ag25
ag42
ag21
ag40
atRp1071
aS'http://longboxgraveyard.com/tag/falcon/'
p1072
aS'2015-06-19 20:14:07.089788'
p1073
aa(lp1074
I5
aI139
aI00
ag64
aI5
aI1
aI5
aI25
aI5
aI0
ag39
ag51
((lp1075
g41
atRp1076
ag51
((lp1077
g41
ag25
ag42
ag21
ag40
atRp1078
aS'http://www.retrojunk.com/article/show/1387/trip-to-the-store-with-grandma'
p1079
aS'2015-06-19 20:14:11.707960'
p1080
aa(lp1081
I5
aI140
aI00
ag64
aI5
aI0
aI5
aI26
aI5
aI0
ag39
ag51
((ltRp1082
ag51
((lp1083
g41
ag25
ag42
ag21
ag40
atRp1084
aS'http://goforthandgame.com/2014/04/'
p1085
aS'2015-06-19 20:14:13.597251'
p1086
aa(lp1087
I5
aI141
aI00
ag64
aI5
aI0
aI0
aI1
aI5
aI0
ag39
ag51
((ltRp1088
ag51
((ltRp1089
aS'https://www.facebook.com/mickdoyle83?fref=nf'
p1090
aS'2015-06-19 20:14:15.065976'
p1091
aa(lp1092
I5
aI142
aI00
ag64
aI5
aI0
aI0
aI1
aI5
aI0
ag39
ag51
((ltRp1093
ag51
((ltRp1094
aS'https://www.facebook.com/bethan.parker1'
p1095
aS'2015-06-19 20:14:15.460401'
p1096
aa(lp1097
I5
aI143
aI00
ag64
aI5
aI0
aI0
aI1
aI5
aI0
ag39
ag51
((ltRp1098
ag51
((ltRp1099
aS'https://www.facebook.com/david.litresits'
p1100
aS'2015-06-19 20:14:15.827988'
p1101
aa(lp1102
I5
aI144
aI00
ag64
aI5
aI2
aI3
aI9
aI5
aI0
ag39
ag51
((lp1103
g21
ag40
atRp1104
ag51
((lp1105
g25
ag21
ag40
atRp1106
aS'http://thepreviewreviewing.weebly.com/my-preview-re-viewing-blog/category/where%20do%20we%20go%20now%20mini'
p1107
aS'2015-06-19 20:14:16.596838'
p1108
aa(lp1109
I5
aI145
aI00
ag64
aI5
aI2
aI3
aI20
aI5
aI0
ag39
ag51
((lp1110
g25
ag21
atRp1111
ag51
((lp1112
g25
ag42
ag21
atRp1113
aS'http://deadlykingdom.blogspot.com/2011_11_01_archive.html'
p1114
aS'2015-06-19 20:14:18.262797'
p1115
aa(lp1116
I5
aI146
aI00
ag64
aI5
aI2
aI2
aI11
aI5
aI0
ag39
ag51
((lp1117
g25
ag42
atRp1118
ag51
((lp1119
g25
ag42
atRp1120
aS'https://www.pinterest.com/travquin/twisters/'
p1121
aS'2015-06-19 20:14:21.574824'
p1122
aa(lp1123
I5
aI147
aI00
ag64
aI5
aI0
aI5
aI32
aI5
aI0
ag39
ag51
((ltRp1124
ag51
((lp1125
g41
ag25
ag42
ag21
ag40
atRp1126
aS'http://www.aintitcool.com/node/24050'
p1127
aS'2015-06-19 20:14:23.877912'
p1128
aa(lp1129
I5
aI148
aI00
ag64
aI5
aI2
aI5
aI28
aI5
aI0
ag39
ag51
((lp1130
g25
ag21
atRp1131
ag51
((lp1132
g41
ag25
ag42
ag21
ag40
atRp1133
aS'http://thelastdrivein.com/2013/01/12/postcards-from-shadowland-no-8/'
p1134
aS'2015-06-19 20:14:32.092231'
p1135
aa(lp1136
I5
aI149
aI00
ag64
aI5
aI0
aI0
aI1
aI5
aI0
ag39
ag51
((ltRp1137
ag51
((ltRp1138
aS'https://www.facebook.com/rachel.taylor.6'
p1139
aS'2015-06-19 20:14:34.926665'
p1140
aa(lp1141
I5
aI150
aI00
ag64
aI5
aI0
aI0
aI1
aI5
aI0
ag39
ag51
((ltRp1142
ag51
((ltRp1143
aS'https://www.facebook.com/garry.williams.165'
p1144
aS'2015-06-19 20:14:35.476250'
p1145
aa(lp1146
I5
aI151
aI00
ag64
aI5
aI2
aI5
aI33
aI5
aI0
ag39
ag51
((lp1147
g41
ag40
atRp1148
ag51
((lp1149
g41
ag25
ag42
ag21
ag40
atRp1150
aS'http://enderzero.net/wp-posts/category/festivals/page/2/'
p1151
aS'2015-06-19 20:14:38.323670'
p1152
aa(lp1153
I5
aI152
aI00
ag64
aI5
aI0
aI5
aI23
aI5
aI0
ag39
ag51
((ltRp1154
ag51
((lp1155
g41
ag25
ag42
ag21
ag40
atRp1156
aS'https://thefalconsnest.wordpress.com/tag/anna-calvi/'
p1157
aS'2015-06-19 20:14:43.395520'
p1158
aa(lp1159
I5
aI153
aI00
ag64
aI5
aI2
aI3
aI9
aI5
aI0
ag39
ag51
((lp1160
g25
ag40
atRp1161
ag51
((lp1162
g25
ag21
ag40
atRp1163
aS'http://thepreviewreviewing.weebly.com/my-preview-re-viewing-blog/category/hick%20mini'
p1164
aS'2015-06-19 20:14:44.564660'
p1165
aa(lp1166
I5
aI154
aI00
ag64
aI5
aI1
aI5
aI22
aI5
aI0
ag39
ag51
((lp1167
g42
atRp1168
ag51
((lp1169
g41
ag25
ag42
ag21
ag40
atRp1170
aS'http://store.steampowered.com/news/posts/?feed=kotaku&enddate=1355743799'
p1171
aS'2015-06-19 20:14:45.686032'
p1172
aa(lp1173
I5
aI155
aI00
ag64
aI5
aI0
aI5
aI34
aI5
aI0
ag39
ag51
((ltRp1174
ag51
((lp1175
g41
ag25
ag42
ag21
ag40
atRp1176
aS'http://thelastdrivein.com/category/the-players/audrey-dalton/'
p1177
aS'2015-06-19 20:14:48.825128'
p1178
aa(lp1179
I5
aI156
aI00
ag64
aI5
aI0
aI5
aI33
aI5
aI0
ag39
ag51
((ltRp1180
ag51
((lp1181
g41
ag25
ag42
ag21
ag40
atRp1182
aS'http://thelastdrivein.com/2012/07/page/2/'
p1183
aS'2015-06-19 20:14:51.430846'
p1184
aa(lp1185
I5
aI157
aI00
ag64
aI5
aI0
aI5
aI28
aI5
aI0
ag39
ag51
((ltRp1186
ag51
((lp1187
g41
ag25
ag42
ag21
ag40
atRp1188
aS'http://kissmyreview.blogspot.com/2012_02_01_archive.html'
p1189
aS'2015-06-19 20:14:55.030302'
p1190
aa(lp1191
I5
aI158
aI00
ag64
aI5
aI1
aI5
aI28
aI5
aI0
ag39
ag51
((lp1192
g42
atRp1193
ag51
((lp1194
g41
ag25
ag42
ag21
ag40
atRp1195
aS'https://leftinflyovercountry.wordpress.com/category/comics/page/6/'
p1196
aS'2015-06-19 20:14:57.749392'
p1197
aa(lp1198
I5
aI159
aI00
ag64
aI5
aI1
aI1
aI12
aI5
aI0
ag39
ag51
((lp1199
g25
atRp1200
ag51
((lp1201
g25
atRp1202
aS'https://www.tumblr.com/tagged/god-of-wood'
p1203
aS'2015-06-19 20:15:04.114789'
p1204
aa(lp1205
I5
aI160
aI00
ag64
aI5
aI1
aI5
aI16
aI5
aI0
ag39
ag51
((lp1206
g42
atRp1207
ag51
((lp1208
g41
ag25
ag42
ag21
ag40
atRp1209
aS'https://www.fanfiction.net/u/4515733/The-Xatu-Ghostshipper'
p1210
aS'2015-06-19 20:15:05.960106'
p1211
aa(lp1212
I5
aI161
aI00
ag64
aI5
aI2
aI5
aI31
aI5
aI0
ag39
ag51
((lp1213
g25
ag40
atRp1214
ag51
((lp1215
g41
ag25
ag42
ag21
ag40
atRp1216
aS'http://thelastdrivein.com/category/1970s/page/3/'
p1217
aS'2015-06-19 20:15:09.133560'
p1218
aa(lp1219
I5
aI162
aI00
ag64
aI5
aI1
aI5
aI33
aI5
aI0
ag39
ag51
((lp1220
g21
atRp1221
ag51
((lp1222
g41
ag25
ag42
ag21
ag40
atRp1223
aS'http://thelastdrivein.com/2013/04/09/brian-schuck-of-films-from-beyond-the-time-barrier-has-handed-monstergirl-the-liebster-award/'
p1224
aS'2015-06-19 20:15:11.501571'
p1225
aa(lp1226
I5
aI163
aI00
ag64
aI5
aI1
aI5
aI29
aI5
aI0
ag39
ag51
((lp1227
g25
atRp1228
ag51
((lp1229
g41
ag25
ag42
ag21
ag40
atRp1230
aS'http://thelastdrivein.com/two-men-thousands-of-faces-the-chaney-blogathon-nov-15th-18th/'
p1231
aS'2015-06-19 20:15:14.069456'
p1232
aa(lp1233
I5
aI164
aI00
ag64
aI5
aI2
aI5
aI20
aI5
aI0
ag39
ag51
((lp1234
g41
ag21
atRp1235
ag51
((lp1236
g41
ag25
ag42
ag21
ag40
atRp1237
aS'http://www.the-isb.com/?m=200803&paged=2'
p1238
aS'2015-06-19 20:15:15.540066'
p1239
aa(lp1240
I5
aI165
aI00
ag64
aI5
aI3
aI5
aI13
aI5
aI0
ag39
ag51
((lp1241
g41
ag25
ag40
atRp1242
ag51
((lp1243
g41
ag25
ag42
ag21
ag40
atRp1244
aS'http://www.comicbookherald.com/the-complete-marvel-reading-order-guide/secret-wars-reading-order/battleworld-warzone-last-days-checklists/'
p1245
aS'2015-06-19 20:15:19.327837'
p1246
aa(lp1247
I5
aI166
aI00
ag64
aI5
aI1
aI5
aI24
aI5
aI0
ag39
ag51
((lp1248
g25
atRp1249
ag51
((lp1250
g41
ag25
ag42
ag21
ag40
atRp1251
aS'https://thefalconsnest.wordpress.com/tag/britney-spears/'
p1252
aS'2015-06-19 20:15:22.100571'
p1253
aa(lp1254
I5
aI167
aI00
ag64
aI5
aI2
aI5
aI11
aI5
aI0
ag39
ag51
((lp1255
g21
ag40
atRp1256
ag51
((lp1257
g41
ag25
ag42
ag21
ag40
atRp1258
aS'https://www.pinterest.com/seahorse714/phenomenal-weather/'
p1259
aS'2015-06-19 20:15:25.546871'
p1260
aa(lp1261
I5
aI168
aI00
ag64
aI5
aI0
aI0
aI0
aI5
aI0
ag39
ag51
((ltRp1262
ag51
((ltRp1263
aS'http://captaincomics.ning.com/forum/topics/comics-guide-for-oct-8-2014'
p1264
aS'2015-06-19 20:15:27.810612'
p1265
aa(lp1266
I5
aI169
aI00
ag64
aI5
aI1
aI5
aI29
aI5
aI0
ag39
ag51
((lp1267
g25
atRp1268
ag51
((lp1269
g41
ag25
ag42
ag21
ag40
atRp1270
aS'http://inside.bard.edu/~halter/LSDarticle.htm'
p1271
aS'2015-06-19 20:15:30.395123'
p1272
aa(lp1273
I5
aI170
aI00
ag64
aI5
aI0
aI5
aI29
aI5
aI0
ag39
ag51
((ltRp1274
ag51
((lp1275
g41
ag25
ag42
ag21
ag40
atRp1276
aS'http://thelastdrivein.com/tag/richard-carlson/'
p1277
aS'2015-06-19 20:15:33.853010'
p1278
aa(lp1279
I5
aI171
aI00
ag64
aI5
aI0
aI5
aI34
aI5
aI0
ag39
ag51
((ltRp1280
ag51
((lp1281
g41
ag25
ag42
ag21
ag40
atRp1282
aS'http://thelastdrivein.com/category/directors-and-filmmakers/robert-altman/'
p1283
aS'2015-06-19 20:15:37.678914'
p1284
aa(lp1285
I5
aI172
aI00
ag64
aI5
aI2
aI5
aI29
aI5
aI0
ag39
ag51
((lp1286
g42
ag40
atRp1287
ag51
((lp1288
g41
ag25
ag42
ag21
ag40
atRp1289
aS'http://thelastdrivein.com/tag/veronica-hurst/'
p1290
aS'2015-06-19 20:15:40.318441'
p1291
aa(lp1292
I5
aI173
aI00
ag64
aI5
aI0
aI5
aI50
aI5
aI0
ag39
ag51
((ltRp1293
ag51
((lp1294
g41
ag25
ag42
ag21
ag40
atRp1295
aS'http://www.dennismillerradio.com/podcast?action=videoPodcast&auth=LTI0Nzk1NTUyNzAwMjU3MjU1OQ=='
p1296
aS'2015-06-19 20:15:45.239682'
p1297
aa(lp1298
I5
aI174
aI00
ag64
aI5
aI0
aI0
aI0
aI5
aI0
ag39
ag51
((ltRp1299
ag51
((ltRp1300
aS'https://sudipdasin.wordpress.com/2014/01/01/untitledthe-storr-including-old-man-of-storr-isle-of-skye-by-keving12/'
p1301
aS'2015-06-19 20:15:52.300277'
p1302
aa(lp1303
I5
aI175
aI00
ag64
aI5
aI1
aI5
aI26
aI5
aI0
ag39
ag51
((lp1304
g25
atRp1305
ag51
((lp1306
g41
ag25
ag42
ag21
ag40
atRp1307
aS'http://projecttorchwood.blogspot.com/2013_08_25_archive.html'
p1308
aS'2015-06-19 20:15:54.394213'
p1309
aa(lp1310
I5
aI176
aI00
ag64
aI5
aI0
aI0
aI1
aI5
aI0
ag39
ag51
((ltRp1311
ag51
((ltRp1312
aS'https://www.facebook.com/holly.ellmore'
p1313
aS'2015-06-19 20:15:55.083402'
p1314
aa(lp1315
I5
aI177
aI00
ag64
aI5
aI0
aI5
aI36
aI5
aI0
ag39
ag51
((ltRp1316
ag51
((lp1317
g41
ag25
ag42
ag21
ag40
atRp1318
aS'http://www.angelfire.com/pa2/leothelion/MartinFreemanArticlesDec2008Jul2007.html'
p1319
aS'2015-06-19 20:15:55.422201'
p1320
aa(lp1321
I5
aI178
aI00
ag64
aI5
aI1
aI5
aI23
aI5
aI0
ag39
ag51
((lp1322
g41
atRp1323
ag51
((lp1324
g41
ag25
ag42
ag21
ag40
atRp1325
aS'http://www.goldcomics.com/ubbthreads/ubbthreads.php?ubb=showflat&Number=21213'
p1326
aS'2015-06-19 20:15:56.166071'
p1327
aa(lp1328
I5
aI179
aI00
ag64
aI5
aI2
aI4
aI18
aI5
aI0
ag39
ag51
((lp1329
g42
ag40
atRp1330
ag51
((lp1331
g41
ag25
ag42
ag40
atRp1332
aS'http://charlottegerber.com/category/new-books/'
p1333
aS'2015-06-19 20:15:59.842969'
p1334
aa(lp1335
I5
aI180
aI00
ag64
aI5
aI1
aI5
aI27
aI5
aI0
ag39
ag51
((lp1336
g21
atRp1337
ag51
((lp1338
g41
ag25
ag42
ag21
ag40
atRp1339
aS'http://thelastdrivein.com/2013/12/10/farewell-to-eleanor-parker-the-lovely-actress-dies-at-91/'
p1340
aS'2015-06-19 20:16:02.793056'
p1341
aa(lp1342
I5
aI181
aI00
ag64
aI5
aI1
aI5
aI29
aI5
aI0
ag39
ag51
((lp1343
g42
atRp1344
ag51
((lp1345
g41
ag25
ag42
ag21
ag40
atRp1346
aS'http://thelastdrivein.com/2012/11/08/is-that-a-woman-doing-science/'
p1347
aS'2015-06-19 20:16:07.595609'
p1348
aa(lp1349
I5
aI182
aI00
ag64
aI5
aI1
aI5
aI31
aI5
aI0
ag39
ag51
((lp1350
g41
atRp1351
ag51
((lp1352
g41
ag25
ag42
ag21
ag40
atRp1353
aS'http://thelastdrivein.com/2008/08/07/the-hollow-watcher-essay-on-thriller-with-boris-karloff/'
p1354
aS'2015-06-19 20:16:10.276320'
p1355
aa(lp1356
I5
aI183
aI00
ag64
aI5
aI0
aI5
aI30
aI5
aI0
ag39
ag51
((ltRp1357
ag51
((lp1358
g41
ag25
ag42
ag21
ag40
atRp1359
aS'http://thelastdrivein.com/category/top-classic-horror-films/the-mask-1961/'
p1360
aS'2015-06-19 20:16:13.737672'
p1361
aa(lp1362
I5
aI184
aI00
ag64
aI5
aI1
aI1
aI2
aI5
aI0
ag39
ag51
((lp1363
Vparker
p1364
atRp1365
ag51
((lp1366
g1364
atRp1367
aS'http://www.goodreads.com/book/show/6931390-the-mammoth-book-of-wolf-men'
p1368
aS'2015-06-19 20:16:15.405393'
p1369
aa(lp1370
I5
aI185
aI00
ag64
aI5
aI3
aI5
aI18
aI5
aI0
ag39
ag51
((lp1371
g41
ag42
ag40
atRp1372
ag51
((lp1373
g41
ag25
ag42
ag21
ag40
atRp1374
aS'https://www.fanfiction.net/u/5420492/amazons4eveas'
p1375
aS'2015-06-19 20:16:16.822572'
p1376
aa(lp1377
I5
aI186
aI00
ag64
aI5
aI1
aI4
aI21
aI5
aI0
ag39
ag51
((lp1378
g40
atRp1379
ag51
((lp1380
g41
ag25
ag42
ag40
atRp1381
aS'http://daddydaybyday.com/tag/fatherhood/'
p1382
aS'2015-06-19 20:16:19.206269'
p1383
aa(lp1384
I5
aI187
aI00
ag64
aI5
aI2
aI5
aI28
aI5
aI0
ag39
ag51
((lp1385
g41
ag42
atRp1386
ag51
((lp1387
g41
ag25
ag42
ag21
ag40
atRp1388
aS'http://www.apelslice.com/books/0-00-NIMAC/978-0-618-60137-0/u6p1.htm'
p1389
aS'2015-06-19 20:16:19.902561'
p1390
aa(lp1391
I5
aI188
aI00
ag64
aI5
aI2
aI5
aI17
aI5
aI0
ag39
ag51
((lp1392
g41
ag42
atRp1393
ag51
((lp1394
g41
ag25
ag42
ag21
ag40
atRp1395
aS'https://www.pinterest.com/bradhasboards/random/'
p1396
aS'2015-06-19 20:16:23.265000'
p1397
aa(lp1398
I5
aI189
aI00
ag64
aI5
aI2
aI5
aI21
aI5
aI0
ag39
ag51
((lp1399
g21
ag40
atRp1400
ag51
((lp1401
g41
ag25
ag42
ag21
ag40
atRp1402
aS'http://www.mariowiki.com/User:King_Dark_Bowser'
p1403
aS'2015-06-19 20:16:31.702717'
p1404
aa(lp1405
I5
aI190
aI00
ag64
aI5
aI0
aI4
aI21
aI5
aI0
ag39
ag51
((ltRp1406
ag51
((lp1407
g41
ag25
ag42
ag40
atRp1408
aS'http://daddydaybyday.com/category/children/'
p1409
aS'2015-06-19 20:16:34.385476'
p1410
aa(lp1411
I5
aI191
aI00
ag64
aI5
aI0
aI0
aI1
aI5
aI0
ag39
ag51
((ltRp1412
ag51
((ltRp1413
aS'https://www.facebook.com/laura.m.foust'
p1414
aS'2015-06-19 20:16:35.015787'
p1415
aa(lp1416
I5
aI192
aI00
ag64
aI5
aI0
aI0
aI1
aI5
aI0
ag39
ag51
((ltRp1417
ag51
((ltRp1418
aS'https://www.facebook.com/Katie.Legs.Hall'
p1419
aS'2015-06-19 20:16:35.566076'
p1420
aa(lp1421
I5
aI193
aI00
ag64
aI5
aI0
aI0
aI1
aI5
aI0
ag39
ag51
((ltRp1422
ag51
((ltRp1423
aS'https://www.facebook.com/KellieParker2992'
p1424
aS'2015-06-19 20:16:35.943473'
p1425
aa(lp1426
I5
aI194
aI00
ag64
aI5
aI3
aI5
aI11
aI5
aI0
ag39
ag51
((lp1427
g42
ag21
ag40
atRp1428
ag51
((lp1429
g41
ag25
ag42
ag21
ag40
atRp1430
aS'http://vaultofevil.proboards.com/thread/2870/bruce-pennington'
p1431
aS'2015-06-19 20:16:40.675106'
p1432
aa(lp1433
I5
aI195
aI00
ag64
aI5
aI1
aI5
aI41
aI5
aI0
ag39
ag51
((lp1434
g40
atRp1435
ag51
((lp1436
g41
ag25
ag42
ag21
ag40
atRp1437
aS'http://www.monkeyinthecage.com/category/books/feed/'
p1438
aS'2015-06-19 20:16:47.950027'
p1439
aa(lp1440
I5
aI196
aI00
ag64
aI5
aI2
aI5
aI31
aI5
aI0
ag39
ag51
((lp1441
g25
ag21
atRp1442
ag51
((lp1443
g41
ag25
ag42
ag21
ag40
atRp1444
aS'http://thelastdrivein.com/category/directors-and-filmmakers/russ-meyer/'
p1445
aS'2015-06-19 20:16:52.063732'
p1446
aa(lp1447
I5
aI197
aI00
ag64
aI5
aI2
aI5
aI24
aI5
aI0
ag39
ag51
((lp1448
g25
ag21
atRp1449
ag51
((lp1450
g41
ag25
ag42
ag21
ag40
atRp1451
aS'http://thepreviewreviewing.weebly.com/my-preview-re-viewing-blog/the-preview-re-viewing-late-ass-oscars-breakdown'
p1452
aS'2015-06-19 20:16:53.254952'
p1453
aa(lp1454
I5
aI198
aI00
ag64
aI5
aI0
aI0
aI0
aI5
aI0
ag39
ag51
((ltRp1455
ag51
((ltRp1456
aS'https://www.fanfiction.net/u/2968678/Snowball-A-K-A-WinterWolf'
p1457
aS'2015-06-19 20:17:00.312633'
p1458
aa(lp1459
I5
aI199
aI00
ag64
aI5
aI1
aI1
aI3
aI5
aI0
ag39
ag51
((lp1460
Vmonsters
p1461
atRp1462
ag51
((lp1463
g1461
atRp1464
aS'http://gyse5.rssing.com/chan-3353101/all_p40.html'
p1465
aS'2015-06-19 20:17:03.538605'
p1466
aa(lp1467
I5
aI200
aI00
ag64
aI5
aI3
aI5
aI19
aI5
aI0
ag39
ag51
((lp1468
g41
ag25
ag42
atRp1469
ag51
((lp1470
g41
ag25
ag42
ag21
ag40
atRp1471
aS'https://longboxgraveyard.com/tag/gene-colan/'
p1472
aS'2015-06-19 20:17:09.291934'
p1473
aa(lp1474
I5
aI201
aI00
ag64
aI5
aI2
aI3
aI13
aI5
aI0
ag39
ag51
((lp1475
g25
ag42
atRp1476
ag51
((lp1477
g25
ag42
ag21
atRp1478
aS'https://www.pinterest.com/mmoore0603/weather/'
p1479
aS'2015-06-19 20:17:12.133592'
p1480
aa(lp1481
I5
aI202
aI00
ag64
aI5
aI2
aI2
aI6
aI5
aI0
ag39
ag51
((lp1482
g41
ag21
atRp1483
ag51
((lp1484
g41
ag21
atRp1485
aS'http://www.wordy.photos/index.php?keyword=unknown%2520creature%2520has%2520been&photo=VxKTXkcOc28&title=%25E2%259C%25AA%2520Current%2520Events%2520-%2520Stan%2520Gordon%2520%255B%2520UFO%2520&%2520Mysterious%2520Creatures%2520%255D%2520-%2520Part%2520One'
p1486
aS'2015-06-19 20:17:15.745513'
p1487
aa(lp1488
I5
aI203
aI00
ag64
aI5
aI0
aI0
aI2
aI5
aI0
ag39
ag51
((ltRp1489
ag51
((ltRp1490
aS'http://google.com'
p1491
aS'2015-06-19 21:22:47.003498'
p1492
aa(lp1493
I5
aI204
aI00
ag64
aI5
aI1
aI5
aI24
aI5
aI0
ag39
ag51
((lp1494
g21
atRp1495
ag51
((lp1496
g41
ag25
ag42
ag21
ag40
atRp1497
aS'https://ianthecool.wordpress.com/page/13/'
p1498
aS'2015-06-19 21:22:49.283845'
p1499
aa(lp1500
I5
aI205
aI00
ag64
aI5
aI1
aI5
aI22
aI5
aI0
ag39
ag51
((lp1501
g42
atRp1502
ag51
((lp1503
g41
ag25
ag42
ag21
ag40
atRp1504
aS'http://gettingmyheadonstraight.blogspot.com/2011_05_01_archive.html'
p1505
aS'2015-06-19 21:22:52.996028'
p1506
aa(lp1507
I5
aI206
aI00
ag64
aI5
aI0
aI5
aI31
aI5
aI0
ag39
ag51
((ltRp1508
ag51
((lp1509
g41
ag25
ag42
ag21
ag40
atRp1510
aS'http://thelastdrivein.com/2012/02/13/boris-karloff-in-the-man-who-lived-again-1936-most-of-me-is-dead-the-rest-of-me-is-damned-or-if-the-monkeys-eat-you-dont-blame-me/'
p1511
aS'2015-06-19 21:22:57.184698'
p1512
aa(lp1513
I5
aI207
aI00
ag64
aI5
aI2
aI5
aI32
aI5
aI0
ag39
ag51
((lp1514
g41
ag40
atRp1515
ag51
((lp1516
g41
ag25
ag42
ag21
ag40
atRp1517
aS'http://thelastdrivein.com/category/suspense/that-cold-day-in-the-park-1969/'
p1518
aS'2015-06-19 21:23:00.030575'
p1519
aa(lp1520
I5
aI208
aI00
ag64
aI5
aI1
aI5
aI26
aI5
aI0
ag39
ag51
((lp1521
g25
atRp1522
ag51
((lp1523
g41
ag25
ag42
ag21
ag40
atRp1524
aS'http://graphicpolicy.com/tag/doctor-who-prisoners-of-time/'
p1525
aS'2015-06-19 21:23:12.514262'
p1526
aa(lp1527
I5
aI209
aI00
ag64
aI5
aI0
aI4
aI21
aI5
aI0
ag39
ag51
((ltRp1528
ag51
((lp1529
g41
ag25
ag42
ag40
atRp1530
aS'http://daddydaybyday.com/category/fatherhood/'
p1531
aS'2015-06-19 21:23:16.528531'
p1532
aa(lp1533
I5
aI210
aI00
ag64
aI5
aI2
aI5
aI22
aI5
aI0
ag39
ag51
((lp1534
g25
ag42
atRp1535
ag51
((lp1536
g41
ag25
ag42
ag21
ag40
atRp1537
aS'http://www.reddit.com/r/Fantasy/comments/1wuhv2/what_fantasy_did_you_read_in_january_2014/'
p1538
aS'2015-06-19 21:23:20.822790'
p1539
aa(lp1540
I5
aI211
aI00
ag64
aI5
aI0
aI5
aI28
aI5
aI0
ag39
ag51
((ltRp1541
ag51
((lp1542
g41
ag25
ag42
ag21
ag40
atRp1543
aS'http://thelastdrivein.com/2012/04/page/2/'
p1544
aS'2015-06-19 21:23:25.537028'
p1545
aa(lp1546
I5
aI212
aI00
ag64
aI5
aI0
aI5
aI28
aI5
aI0
ag39
ag51
((ltRp1547
ag51
((lp1548
g41
ag25
ag42
ag21
ag40
atRp1549
aS'http://thelastdrivein.com/category/top-classic-horror-films/mr-sardonicus-1961/'
p1550
aS'2015-06-19 21:23:28.779850'
p1551
aa(lp1552
I5
aI213
aI00
ag64
aI5
aI0
aI5
aI29
aI5
aI0
ag39
ag51
((ltRp1553
ag51
((lp1554
g41
ag25
ag42
ag21
ag40
atRp1555
aS'http://thelastdrivein.com/category/classic-horror-2/the-man-who-turned-to-stone-1957/'
p1556
aS'2015-06-19 21:23:31.142968'
p1557
aa(lp1558
I5
aI214
aI00
ag64
aI5
aI0
aI5
aI26
aI5
aI0
ag39
ag51
((ltRp1559
ag51
((lp1560
g41
ag25
ag42
ag21
ag40
atRp1561
aS'http://free-ebookusa.blogspot.com/2013/08/number-1419-captain-marvel-moons-earth.html'
p1562
aS'2015-06-19 21:23:34.896312'
p1563
aa(lp1564
I5
aI215
aI00
ag64
aI5
aI0
aI0
aI1
aI5
aI0
ag39
ag51
((ltRp1565
ag51
((ltRp1566
aS'https://www.facebook.com/leanne.campbell.5891'
p1567
aS'2015-06-19 21:23:35.516329'
p1568
aa(lp1569
I5
aI216
aI00
ag64
aI5
aI1
aI5
aI32
aI5
aI0
ag39
ag51
((lp1570
g41
atRp1571
ag51
((lp1572
g41
ag25
ag42
ag21
ag40
atRp1573
aS'http://www.pjfarmer.com/secret/chron/chron/chron10-revised.htm'
p1574
aS'2015-06-19 21:23:36.228826'
p1575
aa(lp1576
I5
aI217
aI00
ag64
aI5
aI1
aI4
aI35
aI5
aI0
ag39
ag51
((lp1577
g25
atRp1578
ag51
((lp1579
g41
ag25
ag42
ag21
atRp1580
aS'https://www.fanfiction.net/u/1771386/MADStar529'
p1581
aS'2015-06-19 21:23:40.782639'
p1582
aa(lp1583
I5
aI218
aI00
ag64
aI5
aI3
aI5
aI24
aI5
aI0
ag39
ag51
((lp1584
g41
ag42
ag40
atRp1585
ag51
((lp1586
g41
ag25
ag42
ag21
ag40
atRp1587
aS'http://comicspire.com/category/crowdfunding/kickstarter/'
p1588
aS'2015-06-19 21:23:44.229948'
p1589
aa(lp1590
I5
aI219
aI00
ag64
aI5
aI0
aI5
aI28
aI5
aI0
ag39
ag51
((ltRp1591
ag51
((lp1592
g41
ag25
ag42
ag21
ag40
atRp1593
aS'http://thelastdrivein.com/2008/08/09/it-happened-on-warren-drive/'
p1594
aS'2015-06-19 21:23:50.438379'
p1595
aa(lp1596
I5
aI220
aI00
ag64
aI5
aI2
aI5
aI28
aI5
aI0
ag39
ag51
((lp1597
g42
ag40
atRp1598
ag51
((lp1599
g41
ag25
ag42
ag21
ag40
atRp1600
aS'http://thelastdrivein.com/category/directors-and-filmmakers/henry-king/'
p1601
aS'2015-06-19 21:23:52.852952'
p1602
aa(lp1603
I5
aI221
aI00
ag64
aI5
aI0
aI5
aI38
aI5
aI0
ag39
ag51
((ltRp1604
ag51
((lp1605
g41
ag25
ag42
ag21
ag40
atRp1606
aS'http://audiobookaneers.com/2014/12/17/release-weeks-carbide-tipped-pens-the-godless-the-strange-library-winterswim-the-martian-race-the-winter-king-ari-marmells-hot-lead-cold-iron-and-cory-doctorows-information-doesn/'
p1607
aS'2015-06-19 21:23:57.564121'
p1608
aa(lp1609
I5
aI222
aI00
ag64
aI5
aI2
aI5
aI11
aI5
aI0
ag39
ag51
((lp1610
g25
ag42
atRp1611
ag51
((lp1612
g41
ag25
ag42
ag21
ag40
atRp1613
aS'http://vaultofevil.proboards.com/thread/2870/bruce-pennington?page=1'
p1614
aS'2015-06-19 21:24:01.190528'
p1615
aa(lp1616
I5
aI223
aI00
ag64
aI5
aI2
aI5
aI11
aI5
aI0
ag39
ag51
((lp1617
g41
ag25
atRp1618
ag51
((lp1619
g41
ag25
ag42
ag21
ag40
atRp1620
aS'http://vaultofevil.proboards.com/thread/2870?page=1'
p1621
aS'2015-06-19 21:24:04.145887'
p1622
aa(lp1623
I5
aI224
aI00
ag64
aI5
aI2
aI5
aI23
aI5
aI0
ag39
ag51
((lp1624
g41
ag25
atRp1625
ag51
((lp1626
g41
ag25
ag42
ag21
ag40
atRp1627
aS'http://www.bibliotecapleyades.net/cienciareal/cienciareal15b.htm'
p1628
aS'2015-06-19 21:24:05.051878'
p1629
aa(lp1630
I5
aI225
aI00
ag64
aI5
aI0
aI0
aI1
aI5
aI0
ag39
ag51
((ltRp1631
ag51
((ltRp1632
aS'https://www.facebook.com/fdafis'
p1633
aS'2015-06-19 21:24:05.465039'
p1634
aa(lp1635
I5
aI226
aI00
ag64
aI5
aI3
aI5
aI30
aI5
aI0
ag39
ag51
((lp1636
g25
ag21
ag40
atRp1637
ag51
((lp1638
g41
ag25
ag42
ag21
ag40
atRp1639
aS'http://www.searchmytrash.com/cgi-bin/articlecreditsb.pl?johncarradine(8-07)'
p1640
aS'2015-06-19 21:24:06.522598'
p1641
aa(lp1642
I5
aI227
aI00
ag64
aI5
aI2
aI2
aI24
aI5
aI0
ag39
ag51
((lp1643
g42
ag21
atRp1644
ag51
((lp1645
g42
ag21
atRp1646
aS'http://garth.typepad.com/primitive_screwheads/film/page/104/'
p1647
aS'2015-06-19 21:24:08.001978'
p1648
aa(lp1649
I5
aI228
aI00
ag64
aI5
aI1
aI5
aI32
aI5
aI0
ag39
ag51
((lp1650
g41
atRp1651
ag51
((lp1652
g41
ag25
ag42
ag21
ag40
atRp1653
aS'http://dada.warped.com/movies/0901.html'
p1654
aS'2015-06-19 21:24:10.346201'
p1655
aa(lp1656
I5
aI229
aI00
ag64
aI5
aI2
aI5
aI16
aI5
aI0
ag39
ag51
((lp1657
g41
ag42
atRp1658
ag51
((lp1659
g41
ag25
ag42
ag21
ag40
atRp1660
aS'http://www.who-sang-that-song.com/tv-and-movie-songs.html'
p1661
aS'2015-06-19 21:24:16.754689'
p1662
aa(lp1663
I5
aI230
aI00
ag64
aI5
aI1
aI5
aI21
aI5
aI0
ag39
ag51
((lp1664
g41
atRp1665
ag51
((lp1666
g41
ag25
ag42
ag21
ag40
atRp1667
aS'http://www.realradio.fm/podcast/tuddleoldskool.xml'
p1668
aS'2015-06-19 21:24:19.351569'
p1669
aa(lp1670
I5
aI231
aI00
ag64
aI5
aI0
aI0
aI1
aI5
aI0
ag39
ag51
((ltRp1671
ag51
((ltRp1672
aS'http://tvtropes.org/pmwiki/pmwiki.php/Main/IntentionallyAwkwardTitle'
p1673
aS'2015-06-19 21:24:19.986582'
p1674
aa(lp1675
I5
aI232
aI00
ag64
aI5
aI2
aI5
aI28
aI5
aI0
ag39
ag51
((lp1676
g41
ag25
atRp1677
ag51
((lp1678
g41
ag25
ag42
ag21
ag40
atRp1679
aS'http://www.planetetheria.com/category/action/'
p1680
aS'2015-06-19 21:24:29.090730'
p1681
aa(lp1682
I5
aI233
aI00
ag64
aI5
aI0
aI5
aI29
aI5
aI0
ag39
ag51
((ltRp1683
ag51
((lp1684
g41
ag25
ag42
ag21
ag40
atRp1685
aS'http://thelastdrivein.com/category/composers-and-film-scores/lionel-newman/'
p1686
aS'2015-06-19 21:24:32.168102'
p1687
aa(lp1688
I5
aI234
aI00
ag64
aI5
aI0
aI5
aI28
aI5
aI0
ag39
ag51
((ltRp1689
ag51
((lp1690
g41
ag25
ag42
ag21
ag40
atRp1691
aS'http://thelastdrivein.com/category/directors-and-filmmakers/john-ford/'
p1692
aS'2015-06-19 21:24:34.367687'
p1693
aa(lp1694
I5
aI235
aI00
ag64
aI5
aI2
aI5
aI16
aI5
aI0
ag39
ag51
((lp1695
g41
ag40
atRp1696
ag51
((lp1697
g41
ag25
ag42
ag21
ag40
atRp1698
aS'http://www.deviantart.com/morelikethis/collections/255195036?view_mode=2'
p1699
aS'2015-06-19 21:24:37.473535'
p1700
aa(lp1701
I5
aI236
aI00
ag64
aI5
aI0
aI0
aI0
aI5
aI0
ag39
ag51
((ltRp1702
ag51
((ltRp1703
aS'http://www.dailykos.com/story/2010/07/04/881295/-Dawn-Chorus-Birdblog-Puffins-in-Kilts'
p1704
aS'2015-06-19 21:24:38.992610'
p1705
aa(lp1706
I5
aI237
aI00
ag64
aI5
aI1
aI5
aI33
aI5
aI0
ag39
ag51
((lp1707
g40
atRp1708
ag51
((lp1709
g41
ag25
ag42
ag21
ag40
atRp1710
aS'http://deadinthesouth.blogspot.com/2010_10_01_archive.html'
p1711
aS'2015-06-19 21:24:39.900690'
p1712
aa(lp1713
I5
aI238
aI00
ag64
aI5
aI2
aI5
aI22
aI5
aI0
ag39
ag51
((lp1714
g42
ag40
atRp1715
ag51
((lp1716
g41
ag25
ag42
ag21
ag40
atRp1717
aS'http://djgreedyg.proboards.com/thread/20826?page=1'
p1718
aS'2015-06-19 21:24:41.442833'
p1719
aa(lp1720
I5
aI239
aI00
ag64
aI5
aI1
aI5
aI28
aI5
aI0
ag39
ag51
((lp1721
g25
atRp1722
ag51
((lp1723
g41
ag25
ag42
ag21
ag40
atRp1724
aS'http://thelastdrivein.com/category/1950s/all-about-eve-1950/'
p1725
aS'2015-06-19 21:24:51.967524'
p1726
aa(lp1727
I5
aI240
aI00
ag64
aI5
aI1
aI5
aI27
aI5
aI0
ag39
ag51
((lp1728
g25
atRp1729
ag51
((lp1730
g41
ag25
ag42
ag21
ag40
atRp1731
aS'http://thelastdrivein.com/2012/10/29/their-leotards-are-so-mod-ern-the-outer-and-inner-space-femme/'
p1732
aS'2015-06-19 21:24:54.471219'
p1733
aa(lp1734
I5
aI241
aI00
ag64
aI5
aI3
aI5
aI28
aI5
aI0
ag39
ag51
((lp1735
g25
ag42
ag21
atRp1736
ag51
((lp1737
g41
ag25
ag42
ag21
ag40
atRp1738
aS'http://thelastdrivein.com/tag/julian-roffman/'
p1739
aS'2015-06-19 21:24:56.799808'
p1740
aa(lp1741
I5
aI242
aI00
ag64
aI5
aI2
aI5
aI29
aI5
aI0
ag39
ag51
((lp1742
g41
ag25
atRp1743
ag51
((lp1744
g41
ag25
ag42
ag21
ag40
atRp1745
aS'http://thelastdrivein.com/category/literature-the-novel-and-the-screenplay/irving-wallace/'
p1746
aS'2015-06-19 21:24:59.122053'
p1747
aa(lp1748
I5
aI243
aI00
ag64
aI5
aI1
aI5
aI31
aI5
aI0
ag39
ag51
((lp1749
g41
atRp1750
ag51
((lp1751
g41
ag25
ag42
ag21
ag40
atRp1752
aS'http://thelastdrivein.com/tag/television/'
p1753
aS'2015-06-19 21:25:01.679789'
p1754
aa(lp1755
I5
aI244
aI00
ag64
aI5
aI0
aI0
aI0
aI5
aI0
ag39
ag51
((ltRp1756
ag51
((ltRp1757
aS'https://www.fanfiction.net/u/2956424/Maxlight'
p1758
aS'2015-06-19 21:25:08.764928'
p1759
aa(lp1760
I5
aI245
aI00
ag64
aI5
aI2
aI5
aI21
aI5
aI0
ag39
ag51
((lp1761
g41
ag42
atRp1762
ag51
((lp1763
g41
ag25
ag42
ag21
ag40
atRp1764
aS'http://www.giantbomb.com/profile/relentlessknight/blog/?page=2'
p1765
aS'2015-06-19 21:25:16.009881'
p1766
aa(lp1767
I5
aI246
aI00
ag64
aI5
aI0
aI0
aI1
aI5
aI0
ag39
ag51
((ltRp1768
ag51
((ltRp1769
aS'https://www.facebook.com/linda.brammer.10'
p1770
aS'2015-06-19 21:25:16.606279'
p1771
aa(lp1772
I5
aI247
aI00
ag64
aI5
aI1
aI5
aI26
aI5
aI0
ag39
ag51
((lp1773
g41
atRp1774
ag51
((lp1775
g41
ag25
ag42
ag21
ag40
atRp1776
aS'http://johnnybacardi.blogspot.com/2006_09_01_archive.html'
p1777
aS'2015-06-19 21:25:19.364858'
p1778
aa(lp1779
I5
aI248
aI00
ag64
aI5
aI2
aI5
aI32
aI5
aI0
ag39
ag51
((lp1780
g41
ag25
atRp1781
ag51
((lp1782
g41
ag25
ag42
ag21
ag40
atRp1783
aS'http://everydayislikewednesday.blogspot.com/2006_09_01_archive.html'
p1784
aS'2015-06-19 21:25:20.745426'
p1785
aa(lp1786
I5
aI249
aI00
ag64
aI5
aI0
aI0
aI1
aI5
aI0
ag39
ag51
((ltRp1787
ag51
((ltRp1788
aS'https://www.facebook.com/kimi.e.williams'
p1789
aS'2015-06-19 21:25:23.513768'
p1790
aa(lp1791
I5
aI250
aI00
ag64
aI5
aI3
aI5
aI21
aI5
aI0
ag39
ag51
((lp1792
g42
ag21
ag40
atRp1793
ag51
((lp1794
g41
ag25
ag42
ag21
ag40
atRp1795
aS'http://beyondthebunker.com/tag/dave-gibbons/'
p1796
aS'2015-06-19 21:25:28.671387'
p1797
aa(lp1798
I5
aI251
aI00
ag64
aI5
aI3
aI5
aI10
aI5
aI0
ag39
ag51
((lp1799
g25
ag21
ag40
atRp1800
ag51
((lp1801
g41
ag25
ag42
ag21
ag40
atRp1802
aS'https://oursideoftheuniverse.wordpress.com/page/2/'
p1803
aS'2015-06-19 21:25:30.566534'
p1804
aa(lp1805
I5
aI252
aI00
ag64
aI5
aI1
aI5
aI34
aI5
aI0
ag39
ag51
((lp1806
g25
atRp1807
ag51
((lp1808
g41
ag25
ag42
ag21
ag40
atRp1809
aS'http://audiobookaneers.com/2014/10/17/release-week-the-doubt-factory-glory-obriens-history-of-the-future-the-lottery-and-other-stories-and-as-you-wish-inconceivable-tales-from-the-making-of-the-princess-bride/'
p1810
aS'2015-06-19 21:25:34.360805'
p1811
aa(lp1812
I5
aI253
aI00
ag64
aI5
aI1
aI5
aI29
aI5
aI0
ag39
ag51
((lp1813
g41
atRp1814
ag51
((lp1815
g41
ag25
ag42
ag21
ag40
atRp1816
aS'http://thelastdrivein.com/category/1970s/the-seven-minutes-1971/'
p1817
aS'2015-06-19 21:25:37.223302'
p1818
aa(lp1819
I5
aI254
aI00
ag64
aI5
aI0
aI5
aI34
aI5
aI0
ag39
ag51
((ltRp1820
ag51
((lp1821
g41
ag25
ag42
ag21
ag40
atRp1822
aS'http://thelastdrivein.com/2012/09/28/boris-karloffs-thriller-what-beckoning-ghost/'
p1823
aS'2015-06-19 21:25:39.856597'
p1824
aa(lp1825
I5
aI255
aI00
ag64
aI5
aI1
aI1
aI8
aI5
aI0
ag39
ag51
((lp1826
g41
atRp1827
ag51
((lp1828
g41
atRp1829
aS'http://copehan4.rssing.com/chan-3589198/all_p1.html'
p1830
aS'2015-06-19 21:25:40.613946'
p1831
aasS'config'
p1832
(ihunter.dictionary.dictionaries
Config
p1833
(dp1834
S'd'
I1
sS'f'
I2
sS'l'
I2
sS'shuffle_keywords_seed'
p1835
I10
sS'essence_len'
p1836
I6
sS'shuffle_stop'
p1837
I200
sS'w'
I5
sS'x'
I89
sbsS'filename'
p1838
S'stats_1_2_2_89_10_tweet_CO_03.txt_2015-06-19 20:06:15.913063.pkl'
p1839
sb.