(istats.words_stats
WordsStats
p1
(dp2
S'collected_words'
p3
(lp4
((lp5
S'carl'
p6
ag6
ag6
ag6
ag6
aS''
tp7
a((lp8
S'beaches'
p9
aS'brown'
p10
aS'wonderful'
p11
aS'parker'
p12
ag12
aS'http://en.m.wikipedia.org/wiki/Chandler_Riggs'
p13
tp14
a((lp15
S'candidate'
p16
aS'problems'
p17
aS'fever'
p18
aS'roller'
p19
aS'resident'
p20
aS'https://www.facebook.com/fightonthebeaches/posts/1454565361459977'
p21
tp22
asS'tweet_file'
p23
S'tweet_CO_02.txt'
p24
sS'encoding_flow'
p25
(lp26
(lp27
I0
aI1
aI00
aS'sidestep'
p28
aI1
aI0
aI1
aI22
aI0
aI0
ag5
ac__builtin__
set
p29
((ltRp30
ag29
((lp31
g6
atRp32
aS'http://walkingdead.wikia.com/wiki/Carl_Grimes_(TV_Series)'
p33
aS'2015-06-19 20:04:33.536988'
p34
aa(lp35
I0
aI2
aI01
ag28
aI1
aI1
aI1
aI4
aI0
aI0
ag5
ag29
((lp36
g6
atRp37
ag29
((lp38
g6
atRp39
ag13
aS'2015-06-19 20:04:34.677419'
p40
aa(lp41
I1
aI1
aI01
aS'forward'
p42
aI4
aI4
aI4
aI5
aI1
aI0
ag8
ag29
((lp43
g10
ag11
ag12
ag9
atRp44
ag29
((lp45
g10
ag11
ag12
ag9
atRp46
ag21
aS'2015-06-19 20:05:14.569095'
p47
aa(lp48
I2
aI1
aI00
ag42
aI5
aI1
aI1
aI2
aI2
aI0
ag15
ag29
((lp49
Vcandidate
p50
atRp51
ag29
((lp52
g50
atRp53
aS'http://articles.latimes.com/1985-02-17/news/mn-3589_1_lansing'
p54
aS'2015-06-19 20:05:21.738448'
p55
aa(lp56
I2
aI2
aI00
ag42
aI5
aI0
aI5
aI30
aI2
aI0
ag15
ag29
((ltRp57
ag29
((lp58
g20
ag18
ag17
ag16
ag19
atRp59
aS'http://articles.latimes.com/1994/nov/06'
p60
aS'2015-06-19 20:05:23.022414'
p61
aa(lp62
I2
aI3
aI00
ag42
aI5
aI0
aI5
aI24
aI2
aI0
ag15
ag29
((ltRp63
ag29
((lp64
g20
ag18
ag17
ag16
ag19
atRp65
aS'http://www.clevescene.com/cleveland/high-roller/Content?oid=1474292'
p66
aS'2015-06-19 20:05:26.345787'
p67
aa(lp68
I2
aI4
aI00
ag42
aI5
aI1
aI5
aI24
aI2
aI0
ag15
ag29
((lp69
g19
atRp70
ag29
((lp71
g20
ag18
ag17
ag16
ag19
atRp72
aS'http://www.foxridgeliving.com/resident-handbook.html'
p73
aS'2015-06-19 20:05:27.323366'
p74
aa(lp75
I2
aI5
aI00
ag42
aI5
aI2
aI5
aI24
aI2
aI0
ag15
ag29
((lp76
g18
ag17
atRp77
ag29
((lp78
g20
ag18
ag17
ag16
ag19
atRp79
aS'http://www.hethwoodliving.com/handbook_2.html'
p80
aS'2015-06-19 20:05:28.176664'
p81
aa(lp82
I2
aI6
aI00
ag42
aI5
aI1
aI5
aI20
aI2
aI0
ag15
ag29
((lp83
g20
atRp84
ag29
((lp85
g20
ag18
ag17
ag16
ag19
atRp86
aS'https://quizlet.com/28601450/surg-vivas-flash-cards/'
p87
aS'2015-06-19 20:05:29.319105'
p88
aa(lp89
I2
aI7
aI00
ag42
aI5
aI0
aI5
aI27
aI2
aI0
ag15
ag29
((ltRp90
ag29
((lp91
g20
ag18
ag17
ag16
ag19
atRp92
aS'http://www.buzzardroostnews.com/From-the-Backside.html'
p93
aS'2015-06-19 20:05:31.309448'
p94
aa(lp95
I2
aI8
aI00
ag42
aI5
aI1
aI5
aI35
aI2
aI0
ag15
ag29
((lp96
g18
atRp97
ag29
((lp98
g20
ag18
ag17
ag16
ag19
atRp99
aS'https://coymcvu.wordpress.com/'
p100
aS'2015-06-19 20:05:34.791503'
p101
aa(lp102
I2
aI9
aI00
ag42
aI5
aI0
aI0
aI0
aI2
aI0
ag15
ag29
((ltRp103
ag29
((ltRp104
aS'http://www.learningace.com/topic/600006009-patient-care'
p105
aS'2015-06-19 20:05:41.851244'
p106
aa(lp107
I2
aI10
aI00
ag42
aI5
aI1
aI5
aI37
aI2
aI0
ag15
ag29
((lp108
g16
atRp109
ag29
((lp110
g20
ag18
ag17
ag16
ag19
atRp111
aS'http://slantblog.blogspot.com/2008_07_01_archive.html'
p112
aS'2015-06-19 20:05:43.194054'
p113
aa(lp114
I2
aI11
aI00
ag42
aI5
aI0
aI5
aI16
aI2
aI0
ag15
ag29
((ltRp115
ag29
((lp116
g20
ag18
ag17
ag16
ag19
atRp117
aS'http://www.classkids.org/biliary-atresia-b-c.html'
p118
aS'2015-06-19 20:05:46.726284'
p119
aa(lp120
I2
aI12
aI00
ag42
aI5
aI1
aI5
aI37
aI2
aI0
ag15
ag29
((lp121
g17
atRp122
ag29
((lp123
g20
ag18
ag17
ag16
ag19
atRp124
aS'http://harleyknox.com/default.aspx'
p125
aS'2015-06-19 20:05:47.298737'
p126
aa(lp127
I2
aI13
aI00
ag42
aI5
aI3
aI5
aI20
aI2
aI0
ag15
ag29
((lp128
g18
ag16
ag19
atRp129
ag29
((lp130
g20
ag18
ag17
ag16
ag19
atRp131
aS'http://www.wikimedz.com/topic/d1a39f8fae7e8d3ead146610edce610e'
p132
aS'2015-06-19 20:05:49.546177'
p133
aa(lp134
I2
aI14
aI00
ag42
aI5
aI2
aI5
aI26
aI2
aI0
ag15
ag29
((lp135
g18
ag19
atRp136
ag29
((lp137
g20
ag18
ag17
ag16
ag19
atRp138
aS'http://nwamotherlode.com/archives/date/2010/04'
p139
aS'2015-06-19 20:05:52.436573'
p140
aa(lp141
I2
aI15
aI00
ag42
aI5
aI2
aI2
aI11
aI2
aI0
ag15
ag29
((lp142
g20
ag16
atRp143
ag29
((lp144
g20
ag16
atRp145
aS'http://articles.latimes.com/1992/mar/11'
p146
aS'2015-06-19 20:05:53.234319'
p147
aa(lp148
I2
aI16
aI00
ag42
aI5
aI2
aI5
aI24
aI2
aI0
ag15
ag29
((lp149
g20
ag18
atRp150
ag29
((lp151
g20
ag18
ag17
ag16
ag19
atRp152
aS'http://www.roamersandlurkers.com/topic/4076-the-other-side-of-the-war/'
p153
aS'2015-06-19 20:06:00.374836'
p154
aa(lp155
I2
aI17
aI00
ag42
aI5
aI0
aI5
aI36
aI2
aI0
ag15
ag29
((ltRp156
ag29
((lp157
g20
ag18
ag17
ag16
ag19
atRp158
aS'http://crushedbyinertia.blogspot.com/2005_06_05_archive.html'
p159
aS'2015-06-19 20:06:02.066817'
p160
aa(lp161
I2
aI18
aI00
ag42
aI5
aI1
aI5
aI23
aI2
aI0
ag15
ag29
((lp162
g20
atRp163
ag29
((lp164
g20
ag18
ag17
ag16
ag19
atRp165
aS'http://www.boweryboyshistory.com/tag/coney-island'
p166
aS'2015-06-19 20:06:05.770246'
p167
aa(lp168
I2
aI19
aI00
ag42
aI5
aI1
aI1
aI1
aI2
aI0
ag15
ag29
((lp169
Vproblems
p170
atRp171
ag29
((lp172
g170
atRp173
aS'http://www.oprah.com/style/Keratin-Hair-Treatment-Facts-Is-Keratin-Hair-Smoothing-Safe'
p174
aS'2015-06-19 20:06:09.503785'
p175
aa(lp176
I2
aI20
aI00
ag42
aI5
aI0
aI0
aI0
aI2
aI0
ag15
ag29
((ltRp177
ag29
((ltRp178
aS'http://www.cityofwildwood.com/DocumentCenter/Home/View/1335'
p179
aS'2015-06-19 20:06:12.012898'
p180
aa(lp181
I2
aI21
aI00
ag42
aI5
aI0
aI0
aI1
aI2
aI0
ag15
ag29
((ltRp182
ag29
((ltRp183
aS'https://www.facebook.com/rebecca.lawless.142'
p184
aS'2015-06-19 20:06:14.725676'
p185
aa(lp186
I2
aI22
aI00
ag42
aI5
aI2
aI5
aI22
aI2
aI0
ag15
ag29
((lp187
g18
ag19
atRp188
ag29
((lp189
g20
ag18
ag17
ag16
ag19
atRp190
aS'http://www.scrubsreport.com/indianapolis-archives.html'
p191
aS'2015-06-19 20:06:15.784508'
p192
aa(lp193
I2
aI23
aI00
ag42
aI5
aI1
aI5
aI55
aI2
aI0
ag15
ag29
((lp194
g20
atRp195
ag29
((lp196
g20
ag18
ag17
ag16
ag19
atRp197
aS'http://dariaencyclopedia.blogspot.com/'
p198
aS'2015-06-19 20:06:17.725127'
p199
aa(lp200
I2
aI24
aI00
ag42
aI5
aI2
aI5
aI30
aI2
aI0
ag15
ag29
((lp201
g20
ag16
atRp202
ag29
((lp203
g20
ag18
ag17
ag16
ag19
atRp204
aS'http://www.wichitafallstx.gov/FAQ.aspx'
p205
aS'2015-06-19 20:06:19.933231'
p206
aa(lp207
I2
aI25
aI00
ag42
aI5
aI0
aI0
aI0
aI2
aI0
ag15
ag29
((ltRp208
ag29
((ltRp209
aS'http://www.pennstatehershey.org/c/document_library/get_file?uuid=84e6c520-db66-4e4d-949c-2b1e3aca7ec8&groupId=2786575'
p210
aS'2015-06-19 20:06:20.288731'
p211
aa(lp212
I2
aI26
aI00
ag42
aI5
aI4
aI5
aI10
aI2
aI0
ag15
ag29
((lp213
g20
ag18
ag17
ag19
atRp214
ag29
((lp215
g20
ag18
ag17
ag16
ag19
atRp216
aS'http://www.triplicate.com/index.php?option=com_search&Itemid=288&searchword=deputy&searchphrase=exact&ordering=newest&limit=30&limitstart=75&lang=en'
p217
aS'2015-06-19 20:06:29.594060'
p218
aa(lp219
I2
aI27
aI00
ag42
aI5
aI2
aI5
aI36
aI2
aI0
ag15
ag29
((lp220
g20
ag16
atRp221
ag29
((lp222
g20
ag18
ag17
ag16
ag19
atRp223
aS'http://spiderbites.nytimes.com/free_1880/articles_1880_02_00001.html'
p224
aS'2015-06-19 20:06:34.791448'
p225
aa(lp226
I2
aI28
aI00
ag42
aI5
aI1
aI5
aI48
aI2
aI0
ag15
ag29
((lp227
g17
atRp228
ag29
((lp229
g20
ag18
ag17
ag16
ag19
atRp230
aS'http://www.argenweb.net/clay/couriernarratives1900-1931.htm'
p231
aS'2015-06-19 20:06:35.263433'
p232
aa(lp233
I2
aI29
aI00
ag42
aI5
aI1
aI5
aI22
aI2
aI0
ag15
ag29
((lp234
g18
atRp235
ag29
((lp236
g20
ag18
ag17
ag16
ag19
atRp237
aS'http://mike.da2c.org/igg/rail/00-app1/pfa.htm'
p238
aS'2015-06-19 20:06:35.557551'
p239
aa(lp240
I2
aI30
aI00
ag42
aI5
aI0
aI0
aI4
aI2
aI0
ag15
ag29
((ltRp241
ag29
((ltRp242
aS'http://theridgewoodblog.net/australia-right-obama-wrong-on-ebola/'
p243
aS'2015-06-19 20:06:36.806970'
p244
aa(lp245
I2
aI31
aI00
ag42
aI5
aI0
aI5
aI31
aI2
aI0
ag15
ag29
((ltRp246
ag29
((lp247
g20
ag18
ag17
ag16
ag19
atRp248
aS'http://www.clayberry.org/may2003news.html'
p249
aS'2015-06-19 20:06:39.670320'
p250
aa(lp251
I2
aI32
aI00
ag42
aI5
aI1
aI1
aI1
aI2
aI0
ag15
ag29
((lp252
Vproblems
p253
atRp254
ag29
((lp255
g253
atRp256
aS'http://texashistory.unt.edu/ark:/67531/metapth185373/m1/4/'
p257
aS'2015-06-19 20:06:41.016178'
p258
aa(lp259
I2
aI33
aI00
ag42
aI5
aI1
aI1
aI1
aI2
aI0
ag15
ag29
((lp260
Vproblems
p261
atRp262
ag29
((lp263
g261
atRp264
aS'http://texashistory.unt.edu/ark:/67531/metapth585027/m1/1/'
p265
aS'2015-06-19 20:06:42.653452'
p266
aa(lp267
I2
aI34
aI00
ag42
aI5
aI2
aI5
aI31
aI2
aI0
ag15
ag29
((lp268
g20
ag16
atRp269
ag29
((lp270
g20
ag18
ag17
ag16
ag19
atRp271
aS'https://www.fanfiction.net/u/2522331/Rachy1'
p272
aS'2015-06-19 20:06:44.880194'
p273
aa(lp274
I2
aI35
aI00
ag42
aI5
aI2
aI5
aI29
aI2
aI0
ag15
ag29
((lp275
g18
ag19
atRp276
ag29
((lp277
g20
ag18
ag17
ag16
ag19
atRp278
aS'https://utmedhumanities.wordpress.com/category/genre/'
p279
aS'2015-06-19 20:06:50.917560'
p280
aa(lp281
I2
aI36
aI00
ag42
aI5
aI2
aI5
aI26
aI2
aI0
ag15
ag29
((lp282
g20
ag18
atRp283
ag29
((lp284
g20
ag18
ag17
ag16
ag19
atRp285
aS'https://oaklandnorth.net/2012/12/31/oakland-norths-biggest-news-stories-of-2012/'
p286
aS'2015-06-19 20:06:53.909464'
p287
aa(lp288
I2
aI37
aI00
ag42
aI5
aI2
aI2
aI11
aI2
aI0
ag15
ag29
((lp289
g20
ag16
atRp290
ag29
((lp291
g20
ag16
atRp292
aS'http://articles.latimes.com/1992/mar/11'
p293
aS'2015-06-19 20:06:54.763710'
p294
aa(lp295
I2
aI38
aI00
ag42
aI5
aI1
aI5
aI25
aI2
aI0
ag15
ag29
((lp296
g16
atRp297
ag29
((lp298
g20
ag18
ag17
ag16
ag19
atRp299
aS'http://www.vitals.com/doctors/Dr_Nicholas_Petrelli/credentials'
p300
aS'2015-06-19 20:06:58.038337'
p301
aa(lp302
I2
aI39
aI00
ag42
aI5
aI0
aI0
aI0
aI2
aI0
ag15
ag29
((ltRp303
ag29
((ltRp304
aS'http://zone.medschool.pitt.edu/sites/SSS/Script/master02-21.doc'
p305
aS'2015-06-19 20:06:58.559043'
p306
aa(lp307
I2
aI40
aI00
ag42
aI5
aI2
aI5
aI25
aI2
aI0
ag15
ag29
((lp308
g20
ag18
atRp309
ag29
((lp310
g20
ag18
ag17
ag16
ag19
atRp311
aS'http://www.vitals.com/doctors/Dr_Michael_Jones/credentials'
p312
aS'2015-06-19 20:07:03.360425'
p313
aa(lp314
I2
aI41
aI00
ag42
aI5
aI1
aI5
aI41
aI2
aI0
ag15
ag29
((lp315
g18
atRp316
ag29
((lp317
g20
ag18
ag17
ag16
ag19
atRp318
aS'https://historymusings.wordpress.com/tag/massachusetts/'
p319
aS'2015-06-19 20:07:11.321648'
p320
aa(lp321
I2
aI42
aI00
ag42
aI5
aI1
aI1
aI1
aI2
aI0
ag15
ag29
((lp322
Vproblems
p323
atRp324
ag29
((lp325
g323
atRp326
aS'http://texashistory.unt.edu/ark:/67531/metapth86086/m1/2/'
p327
aS'2015-06-19 20:07:13.502984'
p328
aa(lp329
I2
aI43
aI00
ag42
aI5
aI0
aI5
aI39
aI2
aI0
ag15
ag29
((ltRp330
ag29
((lp331
g20
ag18
ag17
ag16
ag19
atRp332
aS'http://d.lib.ncsu.edu/ocr/technician-v71n64-1990-03-02/technician-v71n64-1990-03-02.txt'
p333
aS'2015-06-19 20:07:14.386397'
p334
aa(lp335
I2
aI44
aI00
ag42
aI5
aI0
aI0
aI2
aI2
aI0
ag15
ag29
((ltRp336
ag29
((ltRp337
aS'http://www.cadillacnews.com/ap_story/national_sports/20150603_ap_cf714b1dc0dc47e98e170684412e99a4.html'
p338
aS'2015-06-19 20:07:16.067428'
p339
aa(lp340
I2
aI45
aI00
ag42
aI5
aI0
aI0
aI2
aI2
aI0
ag15
ag29
((ltRp341
ag29
((ltRp342
aS'http://www.cadillacnews.com/ap_story/national_sports/20150603_ap_364fbb70485244e5bb7f2242f57d97af.html'
p343
aS'2015-06-19 20:07:17.034396'
p344
aa(lp345
I2
aI46
aI00
ag42
aI5
aI0
aI0
aI2
aI2
aI0
ag15
ag29
((ltRp346
ag29
((ltRp347
aS'http://www.cadillacnews.com/ap_story/national_sports/20150602_ap_28926041f0914cb8a5a94994a961a3ec.html'
p348
aS'2015-06-19 20:07:17.993989'
p349
aa(lp350
I2
aI47
aI00
ag42
aI5
aI1
aI5
aI37
aI2
aI0
ag15
ag29
((lp351
g17
atRp352
ag29
((lp353
g20
ag18
ag17
ag16
ag19
atRp354
aS'http://harleyknox.com/default.aspx'
p355
aS'2015-06-19 20:07:18.359220'
p356
aa(lp357
I2
aI48
aI00
ag42
aI5
aI1
aI5
aI53
aI2
aI0
ag15
ag29
((lp358
g16
atRp359
ag29
((lp360
g20
ag18
ag17
ag16
ag19
atRp361
aS'http://ltc4940.blogspot.com/2008/08/memphis-tn.html'
p362
aS'2015-06-19 20:07:20.457635'
p363
aa(lp364
I2
aI49
aI00
ag42
aI5
aI1
aI5
aI22
aI2
aI0
ag15
ag29
((lp365
g18
atRp366
ag29
((lp367
g20
ag18
ag17
ag16
ag19
atRp368
aS'http://mike.da2c.org/igg/rail/00-app1/pfa.htm'
p369
aS'2015-06-19 20:07:20.675768'
p370
aa(lp371
I2
aI50
aI00
ag42
aI5
aI2
aI5
aI22
aI2
aI0
ag15
ag29
((lp372
g18
ag17
atRp373
ag29
((lp374
g20
ag18
ag17
ag16
ag19
atRp375
aS'http://www.wikimedz.com/topic/4b3cff107315d1107b3dafcc30de416a'
p376
aS'2015-06-19 20:07:24.566765'
p377
aa(lp378
I2
aI51
aI00
ag42
aI5
aI0
aI0
aI2
aI2
aI0
ag15
ag29
((ltRp379
ag29
((ltRp380
aS'http://www.sharonherald.com/topic/?q=%22restaurant%22&t=&l=25&d=&d1=&d2=&f=html&s=start_time&sd=desc&app%5B0%5D=editorial&o=1025'
p381
aS'2015-06-19 20:07:26.408962'
p382
aa(lp383
I2
aI52
aI00
ag42
aI5
aI0
aI0
aI0
aI2
aI0
ag15
ag29
((ltRp384
ag29
((ltRp385
aS'http://community.runnersworld.com/printer-friendly-topic/2015-ultra-training-thread'
p386
aS'2015-06-19 20:07:28.630647'
p387
aa(lp388
I2
aI53
aI00
ag42
aI5
aI1
aI5
aI35
aI2
aI0
ag15
ag29
((lp389
g18
atRp390
ag29
((lp391
g20
ag18
ag17
ag16
ag19
atRp392
aS'https://coymcvu.wordpress.com/'
p393
aS'2015-06-19 20:07:32.116997'
p394
aa(lp395
I2
aI54
aI00
ag42
aI5
aI0
aI5
aI69
aI2
aI0
ag15
ag29
((ltRp396
ag29
((lp397
g20
ag18
ag17
ag16
ag19
atRp398
aS'https://lrod11.wordpress.com/2010/05/14/let-the-whales-fix-it/'
p399
aS'2015-06-19 20:07:33.452457'
p400
aa(lp401
I2
aI55
aI00
ag42
aI5
aI2
aI5
aI26
aI2
aI0
ag15
ag29
((lp402
g18
ag19
atRp403
ag29
((lp404
g20
ag18
ag17
ag16
ag19
atRp405
aS'http://nwamotherlode.com/archives/date/2010/04'
p406
aS'2015-06-19 20:07:36.969684'
p407
aa(lp408
I2
aI56
aI00
ag42
aI5
aI0
aI5
aI32
aI2
aI0
ag15
ag29
((ltRp409
ag29
((lp410
g20
ag18
ag17
ag16
ag19
atRp411
aS'http://www.planetfeedback.com/index.php?level2=blog_viewpost&topic_id=297748&reply_id=126473'
p412
aS'2015-06-19 20:07:38.533399'
p413
aa(lp414
I2
aI57
aI00
ag42
aI5
aI0
aI5
aI40
aI2
aI0
ag15
ag29
((ltRp415
ag29
((lp416
g20
ag18
ag17
ag16
ag19
atRp417
aS'http://www.kmf.org/williams/bushbook/bush25.html'
p418
aS'2015-06-19 20:07:38.906780'
p419
aa(lp420
I2
aI58
aI00
ag42
aI5
aI0
aI5
aI41
aI2
aI0
ag15
ag29
((ltRp421
ag29
((lp422
g20
ag18
ag17
ag16
ag19
atRp423
aS'https://www.themoviedb.org/tv/2025-beverly-hills-90210/episodes?credit_id=52571fca760ee3776a1ef8e9&person_id=4bc8aabe017a3c122d04a7b4'
p424
aS'2015-06-19 20:07:41.975996'
p425
aa(lp426
I2
aI59
aI00
ag42
aI5
aI1
aI5
aI33
aI2
aI0
ag15
ag29
((lp427
g20
atRp428
ag29
((lp429
g20
ag18
ag17
ag16
ag19
atRp430
aS'http://www.highbeam.com/publications/the-washington-post-p5554/jul-22-2009'
p431
aS'2015-06-19 20:07:46.951554'
p432
aa(lp433
I2
aI60
aI00
ag42
aI5
aI0
aI5
aI16
aI2
aI0
ag15
ag29
((ltRp434
ag29
((lp435
g20
ag18
ag17
ag16
ag19
atRp436
aS'http://www.classkids.org/biliary-atresia-b-c.html'
p437
aS'2015-06-19 20:07:49.887757'
p438
aa(lp439
I2
aI61
aI00
ag42
aI5
aI2
aI5
aI23
aI2
aI0
ag15
ag29
((lp440
g16
ag19
atRp441
ag29
((lp442
g20
ag18
ag17
ag16
ag19
atRp443
aS'http://www.wikimedz.com/topic/e825b97dd021804218a481099f615091'
p444
aS'2015-06-19 20:07:51.695240'
p445
aa(lp446
I2
aI62
aI00
ag42
aI5
aI3
aI5
aI20
aI2
aI0
ag15
ag29
((lp447
g20
ag17
ag19
atRp448
ag29
((lp449
g20
ag18
ag17
ag16
ag19
atRp450
aS'http://www.wikimedz.com/topic/04e42739b94fc9851a5713739b80d1a1'
p451
aS'2015-06-19 20:07:54.558820'
p452
aa(lp453
I2
aI63
aI00
ag42
aI5
aI3
aI5
aI20
aI2
aI0
ag15
ag29
((lp454
g18
ag16
ag19
atRp455
ag29
((lp456
g20
ag18
ag17
ag16
ag19
atRp457
aS'http://www.wikimedz.com/topic/d1a39f8fae7e8d3ead146610edce610e'
p458
aS'2015-06-19 20:07:56.647120'
p459
aa(lp460
I2
aI64
aI00
ag42
aI5
aI1
aI5
aI23
aI2
aI0
ag15
ag29
((lp461
g20
atRp462
ag29
((lp463
g20
ag18
ag17
ag16
ag19
atRp464
aS'http://www.boweryboyshistory.com/tag/coney-island'
p465
aS'2015-06-19 20:08:00.327613'
p466
aa(lp467
I2
aI65
aI00
ag42
aI5
aI4
aI5
aI24
aI2
aI0
ag15
ag29
((lp468
g20
ag18
ag17
ag16
atRp469
ag29
((lp470
g20
ag18
ag17
ag16
ag19
atRp471
aS'http://genealogytrails.com/ohio/belmont/bio_page_18.html'
p472
aS'2015-06-19 20:08:00.692623'
p473
aa(lp474
I2
aI66
aI00
ag42
aI5
aI0
aI5
aI46
aI2
aI0
ag15
ag29
((ltRp475
ag29
((lp476
g20
ag18
ag17
ag16
ag19
atRp477
aS'https://pouiseason.wordpress.com/author/pouiseason/'
p478
aS'2015-06-19 20:08:08.309034'
p479
aa(lp480
I2
aI67
aI00
ag42
aI5
aI0
aI5
aI24
aI2
aI0
ag15
ag29
((ltRp481
ag29
((lp482
g20
ag18
ag17
ag16
ag19
atRp483
aS'http://www.obesityhelp.com/morbidobesity/members/profile.php?N=N1039027760'
p484
aS'2015-06-19 20:08:10.062766'
p485
aa(lp486
I2
aI68
aI00
ag42
aI5
aI1
aI5
aI37
aI2
aI0
ag15
ag29
((lp487
g16
atRp488
ag29
((lp489
g20
ag18
ag17
ag16
ag19
atRp490
aS'http://slantblog.blogspot.com/2008_07_01_archive.html'
p491
aS'2015-06-19 20:08:11.383227'
p492
aa(lp493
I2
aI69
aI00
ag42
aI5
aI1
aI5
aI18
aI2
aI0
ag15
ag29
((lp494
g20
atRp495
ag29
((lp496
g20
ag18
ag17
ag16
ag19
atRp497
aS'http://patents.justia.com/patent/20070212362'
p498
aS'2015-06-19 20:08:16.927904'
p499
aa(lp500
I2
aI70
aI00
ag42
aI5
aI0
aI5
aI27
aI2
aI0
ag15
ag29
((ltRp501
ag29
((lp502
g20
ag18
ag17
ag16
ag19
atRp503
aS'http://www.buzzardroostnews.com/From-the-Backside.html'
p504
aS'2015-06-19 20:08:18.997652'
p505
aa(lp506
I2
aI71
aI00
ag42
aI5
aI2
aI5
aI28
aI2
aI0
ag15
ag29
((lp507
g20
ag19
atRp508
ag29
((lp509
g20
ag18
ag17
ag16
ag19
atRp510
aS'http://www.wikimedz.com/topic/dba5b5a7cac33475c16e4e7a860a1cb8'
p511
aS'2015-06-19 20:08:21.073565'
p512
aa(lp513
I2
aI72
aI00
ag42
aI5
aI1
aI5
aI23
aI2
aI0
ag15
ag29
((lp514
g18
atRp515
ag29
((lp516
g20
ag18
ag17
ag16
ag19
atRp517
aS'http://www.wikimedz.com/topic/e7d7876be3813c3b2377021ae10b1ba6'
p518
aS'2015-06-19 20:08:23.432080'
p519
aa(lp520
I2
aI73
aI00
ag42
aI5
aI3
aI5
aI24
aI2
aI0
ag15
ag29
((lp521
g20
ag18
ag19
atRp522
ag29
((lp523
g20
ag18
ag17
ag16
ag19
atRp524
aS'http://www.wikimedz.com/topic/c709c6f60407831e879db3158820c529'
p525
aS'2015-06-19 20:08:25.192310'
p526
aa(lp527
I2
aI74
aI00
ag42
aI5
aI3
aI5
aI22
aI2
aI0
ag15
ag29
((lp528
g20
ag16
ag19
atRp529
ag29
((lp530
g20
ag18
ag17
ag16
ag19
atRp531
aS'http://www.wikimedz.com/topic/824f3a220bcae8704fabb5737f6a074a'
p532
aS'2015-06-19 20:08:27.246887'
p533
aa(lp534
I2
aI75
aI00
ag42
aI5
aI2
aI5
aI25
aI2
aI0
ag15
ag29
((lp535
g18
ag17
atRp536
ag29
((lp537
g20
ag18
ag17
ag16
ag19
atRp538
aS'http://www.wikimedz.com/topic/5f99937e10314455f1e1377e091ec116'
p539
aS'2015-06-19 20:08:29.070866'
p540
aa(lp541
I2
aI76
aI00
ag42
aI5
aI1
aI5
aI25
aI2
aI0
ag15
ag29
((lp542
g16
atRp543
ag29
((lp544
g20
ag18
ag17
ag16
ag19
atRp545
aS'http://www.wikimedz.com/topic/d9fde3fb6ed9a33e23c4d358f87a7f3f'
p546
aS'2015-06-19 20:08:31.790941'
p547
aa(lp548
I2
aI77
aI00
ag42
aI5
aI2
aI5
aI22
aI2
aI0
ag15
ag29
((lp549
g17
ag19
atRp550
ag29
((lp551
g20
ag18
ag17
ag16
ag19
atRp552
aS'http://www.wikimedz.com/topic/7f0bfacb8a7316b67757d4fea50fc768'
p553
aS'2015-06-19 20:08:37.872773'
p554
aa(lp555
I2
aI78
aI00
ag42
aI5
aI0
aI5
aI24
aI2
aI0
ag15
ag29
((ltRp556
ag29
((lp557
g20
ag18
ag17
ag16
ag19
atRp558
aS'http://www.wikimedz.com/topic/0735bda6a077709245109b8b69323c2c'
p559
aS'2015-06-19 20:08:39.368243'
p560
aa(lp561
I2
aI79
aI00
ag42
aI5
aI2
aI5
aI9
aI2
aI0
ag15
ag29
((lp562
g20
ag16
atRp563
ag29
((lp564
g20
ag18
ag17
ag16
ag19
atRp565
aS'http://www.learningace.com/topic/600006009-patient-care'
p566
aS'2015-06-19 20:08:43.428718'
p567
aa(lp568
I2
aI80
aI00
ag42
aI5
aI1
aI5
aI37
aI2
aI0
ag15
ag29
((lp569
g18
atRp570
ag29
((lp571
g20
ag18
ag17
ag16
ag19
atRp572
aS'https://bulk.resource.org/courts.gov/juris/j0728_07.sgml'
p573
aS'2015-06-19 20:08:45.122741'
p574
aa(lp575
I2
aI81
aI00
ag42
aI5
aI1
aI5
aI33
aI2
aI0
ag15
ag29
((lp576
g20
atRp577
ag29
((lp578
g20
ag18
ag17
ag16
ag19
atRp579
aS'http://hallandalebeachblog.blogspot.com/2012_06_01_archive.html'
p580
aS'2015-06-19 20:08:50.783833'
p581
aa(lp582
I2
aI82
aI00
ag42
aI5
aI1
aI5
aI39
aI2
aI0
ag15
ag29
((lp583
g17
atRp584
ag29
((lp585
g20
ag18
ag17
ag16
ag19
atRp586
aS'http://hickeysite.blogspot.com/2011_01_01_archive.html'
p587
aS'2015-06-19 20:08:54.258021'
p588
aa(lp589
I2
aI83
aI00
ag42
aI5
aI0
aI0
aI2
aI2
aI0
ag15
ag29
((ltRp590
ag29
((ltRp591
aS'http://www.cadillacnews.com/ap_story/national_news/20150523_ap_523ddaf9178e4296b0b2386737da41d3.html'
p592
aS'2015-06-19 20:08:55.523914'
p593
aa(lp594
I2
aI84
aI00
ag42
aI5
aI0
aI0
aI2
aI2
aI0
ag15
ag29
((ltRp595
ag29
((ltRp596
aS'http://www.cadillacnews.com/ap_story/national_news/20150523_ap_6cd9cc88c80248c5ad06b2b42136f55a.html'
p597
aS'2015-06-19 20:08:56.637440'
p598
aa(lp599
I2
aI85
aI00
ag42
aI5
aI1
aI5
aI33
aI2
aI0
ag15
ag29
((lp600
g20
atRp601
ag29
((lp602
g20
ag18
ag17
ag16
ag19
atRp603
aS'http://cob.blogspot.com/'
p604
aS'2015-06-19 20:08:58.638136'
p605
aa(lp606
I2
aI86
aI00
ag42
aI5
aI0
aI0
aI3
aI2
aI0
ag15
ag29
((ltRp607
ag29
((ltRp608
aS'http://articles.latimes.com/1994/nov/06'
p609
aS'2015-06-19 20:09:00.493263'
p610
aa(lp611
I2
aI87
aI00
ag42
aI5
aI0
aI5
aI56
aI2
aI0
ag15
ag29
((ltRp612
ag29
((lp613
g20
ag18
ag17
ag16
ag19
atRp614
aS'http://www.firstladies.org/time-line/timeline.aspx?beginning=1918&ending=2015'
p615
aS'2015-06-19 20:09:01.306189'
p616
aa(lp617
I2
aI88
aI00
ag42
aI5
aI0
aI0
aI0
aI2
aI0
ag15
ag29
((ltRp618
ag29
((ltRp619
aS'https://www.smashwords.com/books/download/330638/3/latest/0/0/sure-cure.rtf'
p620
aS'2015-06-19 20:09:01.719985'
p621
aa(lp622
I2
aI89
aI00
ag42
aI5
aI0
aI0
aI0
aI2
aI0
ag15
ag29
((ltRp623
ag29
((ltRp624
aS'https://www.smashwords.com/books/download/330638/6/latest/0/0/sure-cure.txt'
p625
aS'2015-06-19 20:09:04.118557'
p626
aa(lp627
I2
aI90
aI00
ag42
aI5
aI0
aI5
aI36
aI2
aI0
ag15
ag29
((ltRp628
ag29
((lp629
g20
ag18
ag17
ag16
ag19
atRp630
aS'http://crushedbyinertia.blogspot.com/2005_06_05_archive.html'
p631
aS'2015-06-19 20:09:05.732844'
p632
aa(lp633
I2
aI91
aI00
ag42
aI5
aI0
aI0
aI0
aI2
aI0
ag15
ag29
((ltRp634
ag29
((ltRp635
aS'http://www.smashwords.com/books/download/78915/6/latest/0/0/ramblings-of-a-deluded-soul.txt'
p636
aS'2015-06-19 20:09:05.877004'
p637
aa(lp638
I2
aI92
aI00
ag42
aI5
aI0
aI2
aI21
aI2
aI0
ag15
ag29
((ltRp639
ag29
((lp640
g17
ag16
atRp641
aS'http://www.science.gov/topicpages/a/ablation+multi-collector+inductively.html'
p642
aS'2015-06-19 20:09:06.723506'
p643
aa(lp644
I2
aI93
aI00
ag42
aI5
aI0
aI1
aI18
aI2
aI0
ag15
ag29
((ltRp645
ag29
((lp646
g17
atRp647
aS'http://www.science.gov/topicpages/a/ablation+multicollector+inductively.html'
p648
aS'2015-06-19 20:09:07.337577'
p649
aa(lp650
I2
aI94
aI00
ag42
aI5
aI0
aI5
aI51
aI2
aI0
ag15
ag29
((ltRp651
ag29
((lp652
g20
ag18
ag17
ag16
ag19
atRp653
aS'http://bigcloset.ateros.com/newstuff/modules.php%3Fop=modload&name=News&file=article&sid=1064.html'
p654
aS'2015-06-19 20:09:10.382455'
p655
aa(lp656
I2
aI95
aI00
ag42
aI5
aI2
aI5
aI36
aI2
aI0
ag15
ag29
((lp657
g20
ag16
atRp658
ag29
((lp659
g20
ag18
ag17
ag16
ag19
atRp660
aS'http://spiderbites.nytimes.com/free_1880/articles_1880_02_00001.html'
p661
aS'2015-06-19 20:09:13.264369'
p662
aa(lp663
I2
aI96
aI00
ag42
aI5
aI0
aI0
aI0
aI2
aI0
ag15
ag29
((ltRp664
ag29
((ltRp665
aS'http://www.smashwords.com/books/download/440656/3/latest/0/0/kpop-summer.rtf'
p666
aS'2015-06-19 20:09:13.700657'
p667
aa(lp668
I2
aI97
aI00
ag42
aI5
aI1
aI5
aI17
aI2
aI0
ag15
ag29
((lp669
g16
atRp670
ag29
((lp671
g20
ag18
ag17
ag16
ag19
atRp672
aS'http://www.weightloss.audio/page/192/'
p673
aS'2015-06-19 20:09:15.694886'
p674
aa(lp675
I2
aI98
aI00
ag42
aI5
aI2
aI5
aI24
aI2
aI0
ag15
ag29
((lp676
g20
ag18
atRp677
ag29
((lp678
g20
ag18
ag17
ag16
ag19
atRp679
aS'http://www.roamersandlurkers.com/topic/4076-the-other-side-of-the-war/'
p680
aS'2015-06-19 20:09:18.289050'
p681
aa(lp682
I2
aI99
aI00
ag42
aI5
aI0
aI0
aI0
aI2
aI0
ag15
ag29
((ltRp683
ag29
((ltRp684
aS'http://www.cityofwildwood.com/DocumentCenter/Home/View/1335'
p685
aS'2015-06-19 20:09:18.575919'
p686
aa(lp687
I2
aI100
aI00
ag42
aI5
aI0
aI4
aI55
aI2
aI0
ag15
ag29
((ltRp688
ag29
((lp689
g20
ag18
ag17
ag19
atRp690
aS'http://www.free-times.com/special_sections/restaurants/listing/krafty-draft'
p691
aS'2015-06-19 20:09:20.668692'
p692
aa(lp693
I2
aI101
aI00
ag42
aI5
aI1
aI4
aI56
aI2
aI0
ag15
ag29
((lp694
g17
atRp695
ag29
((lp696
g20
ag18
ag17
ag19
atRp697
aS'http://www.free-times.com/special_sections/restaurants/listing/sato-japanese'
p698
aS'2015-06-19 20:09:25.864991'
p699
aa(lp700
I2
aI102
aI00
ag42
aI5
aI1
aI4
aI56
aI2
aI0
ag15
ag29
((lp701
g20
atRp702
ag29
((lp703
g20
ag18
ag17
ag19
atRp704
aS'http://www.free-times.com/special_sections/restaurants/listing/bubble-tea-cafe'
p705
aS'2015-06-19 20:09:29.302794'
p706
aa(lp707
I2
aI103
aI00
ag42
aI5
aI1
aI4
aI60
aI2
aI0
ag15
ag29
((lp708
g18
atRp709
ag29
((lp710
g20
ag18
ag17
ag19
atRp711
aS'http://www.free-times.com/special_sections/restaurants/listing/immaculate-consumption'
p712
aS'2015-06-19 20:09:32.383122'
p713
aa(lp714
I2
aI104
aI00
ag42
aI5
aI1
aI5
aI55
aI2
aI0
ag15
ag29
((lp715
g20
atRp716
ag29
((lp717
g20
ag18
ag17
ag16
ag19
atRp718
aS'http://dariaencyclopedia.blogspot.com/'
p719
aS'2015-06-19 20:09:34.426427'
p720
aa(lp721
I2
aI105
aI00
ag42
aI5
aI0
aI4
aI53
aI2
aI0
ag15
ag29
((ltRp722
ag29
((lp723
g20
ag18
ag17
ag19
atRp724
aS'http://www.free-times.com/special_sections/restaurants/listing/cafe-chartier'
p725
aS'2015-06-19 20:09:38.865231'
p726
aa(lp727
I2
aI106
aI00
ag42
aI5
aI1
aI4
aI60
aI2
aI0
ag15
ag29
((lp728
g20
atRp729
ag29
((lp730
g20
ag18
ag17
ag19
atRp731
aS'http://www.free-times.com/special_sections/restaurants/listing/american-roadside-burgers'
p732
aS'2015-06-19 20:09:43.279134'
p733
aa(lp734
I2
aI107
aI00
ag42
aI5
aI1
aI4
aI61
aI2
aI0
ag15
ag29
((lp735
g19
atRp736
ag29
((lp737
g20
ag18
ag17
ag19
atRp738
aS'http://www.free-times.com/special_sections/restaurants/listing/seoul-restaurant-and-grocery'
p739
aS'2015-06-19 20:09:46.490723'
p740
aa(lp741
I2
aI108
aI00
ag42
aI5
aI0
aI4
aI61
aI2
aI0
ag15
ag29
((ltRp742
ag29
((lp743
g20
ag18
ag17
ag19
atRp744
aS'http://www.free-times.com/special_sections/restaurants/listing/julias-german-restaurant'
p745
aS'2015-06-19 20:09:49.900653'
p746
aa(lp747
I2
aI109
aI00
ag42
aI5
aI0
aI2
aI14
aI2
aI0
ag15
ag29
((ltRp748
ag29
((lp749
g16
ag19
atRp750
aS'http://www.science.gov/topicpages/p/pancreas+tissue+slices.html'
p751
aS'2015-06-19 20:09:50.615531'
p752
aa(lp753
I2
aI110
aI00
ag42
aI5
aI1
aI5
aI41
aI2
aI0
ag15
ag29
((lp754
g19
atRp755
ag29
((lp756
g20
ag18
ag17
ag16
ag19
atRp757
aS'https://dvdlistscott.wordpress.com/'
p758
aS'2015-06-19 20:09:54.155661'
p759
aa(lp760
I2
aI111
aI00
ag42
aI5
aI2
aI5
aI22
aI2
aI0
ag15
ag29
((lp761
g18
ag19
atRp762
ag29
((lp763
g20
ag18
ag17
ag16
ag19
atRp764
aS'http://www.scrubsreport.com/indianapolis-archives.html'
p765
aS'2015-06-19 20:09:55.105686'
p766
aa(lp767
I2
aI112
aI00
ag42
aI5
aI1
aI5
aI29
aI2
aI0
ag15
ag29
((lp768
g19
atRp769
ag29
((lp770
g20
ag18
ag17
ag16
ag19
atRp771
aS'http://health-guide.blogspot.com/'
p772
aS'2015-06-19 20:09:56.165954'
p773
aa(lp774
I2
aI113
aI00
ag42
aI5
aI2
aI5
aI30
aI2
aI0
ag15
ag29
((lp775
g20
ag16
atRp776
ag29
((lp777
g20
ag18
ag17
ag16
ag19
atRp778
aS'http://www.wichitafallstx.gov/FAQ.aspx'
p779
aS'2015-06-19 20:09:58.450770'
p780
aa(lp781
I2
aI114
aI00
ag42
aI5
aI1
aI5
aI36
aI2
aI0
ag15
ag29
((lp782
g16
atRp783
ag29
((lp784
g20
ag18
ag17
ag16
ag19
atRp785
aS'http://www.highbeam.com/publications/the-boston-globe-boston-ma-p2935/jun-29-1990'
p786
aS'2015-06-19 20:10:03.582175'
p787
aa(lp788
I2
aI115
aI00
ag42
aI5
aI0
aI4
aI56
aI2
aI0
ag15
ag29
((ltRp789
ag29
((lp790
g20
ag18
ag17
ag19
atRp791
aS'http://www.free-times.com/special_sections/restaurants/listing/jillians2'
p792
aS'2015-06-19 20:10:08.639871'
p793
aa(lp794
I2
aI116
aI00
ag42
aI5
aI0
aI4
aI60
aI2
aI0
ag15
ag29
((ltRp795
ag29
((lp796
g20
ag18
ag17
ag19
atRp797
aS'http://www.free-times.com/special_sections/restaurants/listing/michaels-cafe-and-catering'
p798
aS'2015-06-19 20:10:13.269519'
p799
aa(lp800
I2
aI117
aI00
ag42
aI5
aI0
aI5
aI26
aI2
aI0
ag15
ag29
((ltRp801
ag29
((lp802
g20
ag18
ag17
ag16
ag19
atRp803
aS'http://www.financemonkeyvsalien.blogspot.com/'
p804
aS'2015-06-19 20:10:13.896009'
p805
aa(lp806
I2
aI118
aI00
ag42
aI5
aI2
aI5
aI29
aI2
aI0
ag15
ag29
((lp807
g20
ag17
atRp808
ag29
((lp809
g20
ag18
ag17
ag16
ag19
atRp810
aS'http://www.highbeam.com/publications/the-boston-globe-boston-ma-p2935/nov-4-2009'
p811
aS'2015-06-19 20:10:19.970900'
p812
aa(lp813
I2
aI119
aI00
ag42
aI5
aI2
aI5
aI28
aI2
aI0
ag15
ag29
((lp814
g18
ag16
atRp815
ag29
((lp816
g20
ag18
ag17
ag16
ag19
atRp817
aS'http://www.wikimedz.com/topic/14ccb1270b577603136445cf8d08f604'
p818
aS'2015-06-19 20:10:21.752161'
p819
aa(lp820
I2
aI120
aI00
ag42
aI5
aI0
aI0
aI0
aI2
aI0
ag15
ag29
((ltRp821
ag29
((ltRp822
aS'http://www.pennstatehershey.org/c/document_library/get_file?uuid=84e6c520-db66-4e4d-949c-2b1e3aca7ec8&groupId=2786575'
p823
aS'2015-06-19 20:10:22.356908'
p824
aa(lp825
I2
aI121
aI00
ag42
aI5
aI1
aI5
aI55
aI2
aI0
ag15
ag29
((lp826
g19
atRp827
ag29
((lp828
g20
ag18
ag17
ag16
ag19
atRp829
aS'http://dariaencyclopedia.blogspot.com/2004/08/daria-encyclopedia-00.html'
p830
aS'2015-06-19 20:10:24.435801'
p831
aa(lp832
I2
aI122
aI00
ag42
aI5
aI0
aI0
aI1
aI2
aI0
ag15
ag29
((ltRp833
ag29
((ltRp834
aS'http://thelunatics.weebly.com/'
p835
aS'2015-06-19 20:10:31.558260'
p836
aa(lp837
I2
aI123
aI00
ag42
aI5
aI0
aI5
aI42
aI2
aI0
ag15
ag29
((ltRp838
ag29
((lp839
g20
ag18
ag17
ag16
ag19
atRp840
aS'https://ernestomaynesi.wordpress.com/'
p841
aS'2015-06-19 20:10:45.410695'
p842
aa(lp843
I2
aI124
aI00
ag42
aI5
aI0
aI0
aI2
aI2
aI0
ag15
ag29
((ltRp844
ag29
((ltRp845
aS'http://www.hollywood.com/tv/55425976/mr-romance?page=8'
p846
aS'2015-06-19 20:10:46.276947'
p847
aa(lp848
I2
aI125
aI00
ag42
aI5
aI1
aI1
aI11
aI2
aI0
ag15
ag29
((lp849
g17
atRp850
ag29
((lp851
g17
atRp852
aS'http://www.oprah.com/style/Keratin-Hair-Treatment-Facts-Is-Keratin-Hair-Smoothing-Safe'
p853
aS'2015-06-19 20:10:48.643735'
p854
aa(lp855
I2
aI126
aI00
ag42
aI5
aI1
aI5
aI25
aI2
aI0
ag15
ag29
((lp856
g19
atRp857
ag29
((lp858
g20
ag18
ag17
ag16
ag19
atRp859
aS'http://www.wikimedz.com/topic/0d3b83639618144294122229001da511'
p860
aS'2015-06-19 20:10:51.494486'
p861
aa(lp862
I2
aI127
aI00
ag42
aI5
aI2
aI5
aI30
aI2
aI0
ag15
ag29
((lp863
g17
ag16
atRp864
ag29
((lp865
g20
ag18
ag17
ag16
ag19
atRp866
aS'http://www.wikimedz.com/topic/af1af2f53853a0520dad79f1db74d40c'
p867
aS'2015-06-19 20:10:53.120757'
p868
aa(lp869
I2
aI128
aI00
ag42
aI5
aI1
aI1
aI2
aI2
aI0
ag15
ag29
((lp870
Vcandidate
p871
atRp872
ag29
((lp873
g871
atRp874
aS'http://www.infopig.com/keywords/South/08-26-2014-120411.html'
p875
aS'2015-06-19 20:10:54.726822'
p876
aa(lp877
I2
aI129
aI00
ag42
aI5
aI1
aI5
aI48
aI2
aI0
ag15
ag29
((lp878
g20
atRp879
ag29
((lp880
g20
ag18
ag17
ag16
ag19
atRp881
aS'https://moontwp.wordpress.com/'
p882
aS'2015-06-19 20:11:02.333054'
p883
aa(lp884
I2
aI130
aI00
ag42
aI5
aI0
aI0
aI1
aI2
aI0
ag15
ag29
((ltRp885
ag29
((ltRp886
aS'https://www.facebook.com/rebecca.lawless.142'
p887
aS'2015-06-19 20:11:02.794266'
p888
aa(lp889
I2
aI131
aI00
ag42
aI5
aI1
aI3
aI17
aI2
aI0
ag15
ag29
((lp890
g20
atRp891
ag29
((lp892
g20
ag18
ag16
atRp893
aS'http://www.faqs.org/patents/app/20100291099'
p894
aS'2015-06-19 20:11:05.276693'
p895
aa(lp896
I2
aI132
aI00
ag42
aI5
aI1
aI5
aI48
aI2
aI0
ag15
ag29
((lp897
g20
atRp898
ag29
((lp899
g20
ag18
ag17
ag16
ag19
atRp900
aS'http://www.fabsearch.com/articles-hotel/4612/Abama/tenerife'
p901
aS'2015-06-19 20:11:09.840943'
p902
aa(lp903
I2
aI133
aI00
ag42
aI5
aI1
aI5
aI27
aI2
aI0
ag15
ag29
((lp904
g19
atRp905
ag29
((lp906
g20
ag18
ag17
ag16
ag19
atRp907
aS'http://kevthecutiepie.blogspot.com/'
p908
aS'2015-06-19 20:11:10.712271'
p909
aa(lp910
I2
aI134
aI00
ag42
aI5
aI1
aI5
aI42
aI2
aI0
ag15
ag29
((lp911
g18
atRp912
ag29
((lp913
g20
ag18
ag17
ag16
ag19
atRp914
aS'https://casiereinosownl.wordpress.com/'
p915
aS'2015-06-19 20:11:18.113415'
p916
aa(lp917
I2
aI135
aI00
ag42
aI5
aI0
aI4
aI53
aI2
aI0
ag15
ag29
((ltRp918
ag29
((lp919
g20
ag18
ag17
ag19
atRp920
aS'http://www.free-times.com/special_sections/restaurants/listing/bobbys-house-of-pizza-subs'
p921
aS'2015-06-19 20:11:20.321350'
p922
aa(lp923
I2
aI136
aI00
ag42
aI5
aI2
aI5
aI40
aI2
aI0
ag15
ag29
((lp924
g17
ag16
atRp925
ag29
((lp926
g20
ag18
ag17
ag16
ag19
atRp927
aS'https://factorygolfing.wordpress.com/'
p928
aS'2015-06-19 20:11:25.969919'
p929
aa(lp930
I2
aI137
aI00
ag42
aI5
aI1
aI5
aI41
aI2
aI0
ag15
ag29
((lp931
g18
atRp932
ag29
((lp933
g20
ag18
ag17
ag16
ag19
atRp934
aS'https://lizayamamotojyr.wordpress.com/'
p935
aS'2015-06-19 20:11:33.628889'
p936
aa(lp937
I2
aI138
aI00
ag42
aI5
aI1
aI5
aI42
aI2
aI0
ag15
ag29
((lp938
g16
atRp939
ag29
((lp940
g20
ag18
ag17
ag16
ag19
atRp941
aS'https://jolene79cdnzdfp.wordpress.com/'
p942
aS'2015-06-19 20:11:39.754565'
p943
aa(lp944
I2
aI139
aI00
ag42
aI5
aI0
aI5
aI42
aI2
aI0
ag15
ag29
((ltRp945
ag29
((lp946
g20
ag18
ag17
ag16
ag19
atRp947
aS'https://paul6013rvukdlp.wordpress.com/'
p948
aS'2015-06-19 20:11:45.686303'
p949
aa(lp950
I2
aI140
aI00
ag42
aI5
aI1
aI5
aI39
aI2
aI0
ag15
ag29
((lp951
g18
atRp952
ag29
((lp953
g20
ag18
ag17
ag16
ag19
atRp954
aS'http://baseballcrank.com/archives2/2009/11/'
p955
aS'2015-06-19 20:11:46.748947'
p956
aa(lp957
I2
aI141
aI00
ag42
aI5
aI1
aI5
aI20
aI2
aI0
ag15
ag29
((lp958
g16
atRp959
ag29
((lp960
g20
ag18
ag17
ag16
ag19
atRp961
aS'http://www.faqs.org/patents/app/20100239543'
p962
aS'2015-06-19 20:11:48.601015'
p963
aa(lp964
I2
aI142
aI00
ag42
aI5
aI0
aI5
aI51
aI2
aI0
ag15
ag29
((ltRp965
ag29
((lp966
g20
ag18
ag17
ag16
ag19
atRp967
aS'http://spiderbites.nytimes.com/free_1920/articles_1920_06_00002.html'
p968
aS'2015-06-19 20:11:51.495960'
p969
aa(lp970
I2
aI143
aI00
ag42
aI5
aI0
aI4
aI56
aI2
aI0
ag15
ag29
((ltRp971
ag29
((lp972
g20
ag18
ag17
ag19
atRp973
aS'http://www.free-times.com/special_sections/restaurants/listing/arirang'
p974
aS'2015-06-19 20:11:54.044163'
p975
aa(lp976
I2
aI144
aI00
ag42
aI5
aI0
aI4
aI60
aI2
aI0
ag15
ag29
((ltRp977
ag29
((lp978
g20
ag18
ag17
ag19
atRp979
aS'http://www.free-times.com/special_sections/restaurants/listing/als-upstairs'
p980
aS'2015-06-19 20:11:58.903174'
p981
aa(lp982
I2
aI145
aI00
ag42
aI5
aI1
aI5
aI31
aI2
aI0
ag15
ag29
((lp983
g20
atRp984
ag29
((lp985
g20
ag18
ag17
ag16
ag19
atRp986
aS'http://www.medialawyer.com/projects.php'
p987
aS'2015-06-19 20:11:59.845065'
p988
aa(lp989
I2
aI146
aI00
ag42
aI5
aI0
aI5
aI43
aI2
aI0
ag15
ag29
((ltRp990
ag29
((lp991
g20
ag18
ag17
ag16
ag19
atRp992
aS'http://www.highbeam.com/publications/press-telegram-p2974/april-2005/2'
p993
aS'2015-06-19 20:12:05.442880'
p994
aa(lp995
I2
aI147
aI00
ag42
aI5
aI2
aI5
aI37
aI2
aI0
ag15
ag29
((lp996
g18
ag17
atRp997
ag29
((lp998
g20
ag18
ag17
ag16
ag19
atRp999
aS'http://www.highbeam.com/publications/dayton-daily-news-dayton-oh-p3003/april-2003/7'
p1000
aS'2015-06-19 20:12:12.292931'
p1001
aa(lp1002
I2
aI148
aI00
ag42
aI5
aI0
aI5
aI36
aI2
aI0
ag15
ag29
((ltRp1003
ag29
((lp1004
g20
ag18
ag17
ag16
ag19
atRp1005
aS'http://www.highbeam.com/publications/the-capital-times-p5502/july-2008/2'
p1006
aS'2015-06-19 20:12:19.698278'
p1007
aa(lp1008
I2
aI149
aI00
ag42
aI5
aI2
aI5
aI32
aI2
aI0
ag15
ag29
((lp1009
g20
ag16
atRp1010
ag29
((lp1011
g20
ag18
ag17
ag16
ag19
atRp1012
aS'http://www.highbeam.com/publications/the-pantagraph-bloomington-il-p62840/february-2003/2'
p1013
aS'2015-06-19 20:12:26.890554'
p1014
aa(lp1015
I2
aI150
aI00
ag42
aI5
aI0
aI0
aI2
aI2
aI0
ag15
ag29
((ltRp1016
ag29
((ltRp1017
aS'http://www.hollywood.com/celebrities/55603410/matthew-wood?page=4'
p1018
aS'2015-06-19 20:12:27.764887'
p1019
aa(lp1020
I2
aI151
aI00
ag42
aI5
aI0
aI5
aI33
aI2
aI0
ag15
ag29
((ltRp1021
ag29
((lp1022
g20
ag18
ag17
ag16
ag19
atRp1023
aS'http://minx.cc/?post=296686'
p1024
aS'2015-06-19 20:12:28.980036'
p1025
aa(lp1026
I2
aI152
aI00
ag42
aI5
aI1
aI4
aI60
aI2
aI0
ag15
ag29
((lp1027
g20
atRp1028
ag29
((lp1029
g20
ag18
ag17
ag19
atRp1030
aS'http://www.free-times.com/special_sections/restaurants/listing/college-grounds-cafe'
p1031
aS'2015-06-19 20:12:33.835053'
p1032
aa(lp1033
I2
aI153
aI00
ag42
aI5
aI1
aI4
aI57
aI2
aI0
ag15
ag29
((lp1034
g20
atRp1035
ag29
((lp1036
g20
ag18
ag17
ag19
atRp1037
aS'http://www.free-times.com/special_sections/restaurants/listing/conquest-brewing-co'
p1038
aS'2015-06-19 20:12:38.633304'
p1039
aa(lp1040
I2
aI154
aI00
ag42
aI5
aI1
aI4
aI55
aI2
aI0
ag15
ag29
((lp1041
g17
atRp1042
ag29
((lp1043
g20
ag18
ag17
ag19
atRp1044
aS'http://www.free-times.com/special_sections/restaurants/listing/drip-coffee'
p1045
aS'2015-06-19 20:12:45.454964'
p1046
aa(lp1047
I2
aI155
aI00
ag42
aI5
aI0
aI4
aI56
aI2
aI0
ag15
ag29
((ltRp1048
ag29
((lp1049
g20
ag18
ag17
ag19
atRp1050
aS'http://www.free-times.com/special_sections/restaurants/listing/mathias-sandwich-shop'
p1051
aS'2015-06-19 20:12:51.127708'
p1052
aa(lp1053
I2
aI156
aI00
ag42
aI5
aI0
aI4
aI56
aI2
aI0
ag15
ag29
((ltRp1054
ag29
((lp1055
g20
ag18
ag17
ag19
atRp1056
aS'http://www.free-times.com/special_sections/restaurants/listing/the-villa'
p1057
aS'2015-06-19 20:12:59.327519'
p1058
aa(lp1059
I2
aI157
aI00
ag42
aI5
aI1
aI5
aI33
aI2
aI0
ag15
ag29
((lp1060
g18
atRp1061
ag29
((lp1062
g20
ag18
ag17
ag16
ag19
atRp1063
aS'http://tvshow-teamlop.blogspot.com/'
p1064
aS'2015-06-19 20:13:00.901433'
p1065
aa(lp1066
I2
aI158
aI00
ag42
aI5
aI1
aI5
aI48
aI2
aI0
ag15
ag29
((lp1067
g17
atRp1068
ag29
((lp1069
g20
ag18
ag17
ag16
ag19
atRp1070
aS'http://www.argenweb.net/clay/couriernarratives1900-1931.htm'
p1071
aS'2015-06-19 20:13:01.248429'
p1072
aa(lp1073
I2
aI159
aI00
ag42
aI5
aI0
aI0
aI4
aI2
aI0
ag15
ag29
((ltRp1074
ag29
((ltRp1075
aS'http://theridgewoodblog.net/australia-right-obama-wrong-on-ebola/'
p1076
aS'2015-06-19 20:13:02.311208'
p1077
aa(lp1078
I2
aI160
aI00
ag42
aI5
aI0
aI5
aI58
aI2
aI0
ag15
ag29
((ltRp1079
ag29
((lp1080
g20
ag18
ag17
ag16
ag19
atRp1081
aS'http://www.pscelebrities.com/whitelightblacklight/2009_07_01_archive.htm'
p1082
aS'2015-06-19 20:13:08.384818'
p1083
aa(lp1084
I2
aI161
aI00
ag42
aI5
aI0
aI5
aI61
aI2
aI0
ag15
ag29
((ltRp1085
ag29
((lp1086
g20
ag18
ag17
ag16
ag19
atRp1087
aS'http://babbittbysinclairlewis.blogspot.com/'
p1088
aS'2015-06-19 20:13:11.031021'
p1089
aa(lp1090
I2
aI162
aI00
ag42
aI5
aI1
aI5
aI40
aI2
aI0
ag15
ag29
((lp1091
g20
atRp1092
ag29
((lp1093
g20
ag18
ag17
ag16
ag19
atRp1094
aS'http://bhugus.blogspot.com/'
p1095
aS'2015-06-19 20:13:11.845067'
p1096
aa(lp1097
I2
aI163
aI00
ag42
aI5
aI1
aI5
aI27
aI2
aI0
ag15
ag29
((lp1098
g17
atRp1099
ag29
((lp1100
g20
ag18
ag17
ag16
ag19
atRp1101
aS'http://bklyn.newspapers.com/newspage/58287231/'
p1102
aS'2015-06-19 20:13:12.394026'
p1103
aa(lp1104
I2
aI164
aI00
ag42
aI5
aI1
aI5
aI30
aI2
aI0
ag15
ag29
((lp1105
g17
atRp1106
ag29
((lp1107
g20
ag18
ag17
ag16
ag19
atRp1108
aS'http://www.highbeam.com/publications/daily-herald-arlington-heights-il-p5444/jun-20-1997'
p1109
aS'2015-06-19 20:13:16.128610'
p1110
aa(lp1111
I2
aI165
aI00
ag42
aI5
aI2
aI5
aI34
aI2
aI0
ag15
ag29
((lp1112
g17
ag16
atRp1113
ag29
((lp1114
g20
ag18
ag17
ag16
ag19
atRp1115
aS'http://www.highbeam.com/publications/daily-herald-arlington-heights-il-p5444/sep-30-1999'
p1116
aS'2015-06-19 20:13:21.104716'
p1117
aa(lp1118
I2
aI166
aI00
ag42
aI5
aI0
aI5
aI27
aI2
aI0
ag15
ag29
((ltRp1119
ag29
((lp1120
g20
ag18
ag17
ag16
ag19
atRp1121
aS'http://www.highbeam.com/publications/daily-herald-arlington-heights-il-p5444/oct-22-1998'
p1122
aS'2015-06-19 20:13:25.931153'
p1123
aa(lp1124
I2
aI167
aI00
ag42
aI5
aI3
aI3
aI9
aI2
aI0
ag15
ag29
((lp1125
g20
ag17
ag16
atRp1126
ag29
((lp1127
g20
ag17
ag16
atRp1128
aS'http://chondrocele.rssing.com/chan-1055424/all_p60.html'
p1129
aS'2015-06-19 20:13:26.883711'
p1130
aa(lp1131
I2
aI168
aI00
ag42
aI5
aI1
aI5
aI53
aI2
aI0
ag15
ag29
((lp1132
g19
atRp1133
ag29
((lp1134
g20
ag18
ag17
ag16
ag19
atRp1135
aS'http://spiderbites.nytimes.com/pay_1954/articles_1954_09_00000.html'
p1136
aS'2015-06-19 20:13:29.343517'
p1137
aa(lp1138
I2
aI169
aI00
ag42
aI5
aI1
aI5
aI17
aI2
aI0
ag15
ag29
((lp1139
g17
atRp1140
ag29
((lp1141
g20
ag18
ag17
ag16
ag19
atRp1142
aS'http://www.newspapers.com/newspage/575910/'
p1143
aS'2015-06-19 20:13:30.178427'
p1144
aa(lp1145
I2
aI170
aI00
ag42
aI5
aI0
aI0
aI11
aI2
aI0
ag15
ag29
((ltRp1146
ag29
((ltRp1147
aS'http://radhica1.rssing.com/chan-12862151/all_p7.html'
p1148
aS'2015-06-19 20:13:33.284281'
p1149
aa(lp1150
I2
aI171
aI00
ag42
aI5
aI0
aI5
aI42
aI2
aI0
ag15
ag29
((ltRp1151
ag29
((lp1152
g20
ag18
ag17
ag16
ag19
atRp1153
aS'http://www.highbeam.com/publications/charleston-daily-mail-p61190/july-1999/3'
p1154
aS'2015-06-19 20:13:37.940042'
p1155
aa(lp1156
I2
aI172
aI00
ag42
aI5
aI0
aI1
aI18
aI2
aI0
ag15
ag29
((ltRp1157
ag29
((lp1158
g17
atRp1159
aS'http://www.infopig.com/keywords/California/10-12-2013-003941.html'
p1160
aS'2015-06-19 20:13:38.979683'
p1161
aa(lp1162
I2
aI173
aI00
ag42
aI5
aI2
aI5
aI18
aI2
aI0
ag15
ag29
((lp1163
g18
ag19
atRp1164
ag29
((lp1165
g20
ag18
ag17
ag16
ag19
atRp1166
aS'http://www.infopig.com/keywords/Indiana/06-07-2008-171951.html'
p1167
aS'2015-06-19 20:13:40.341927'
p1168
aa(lp1169
I2
aI174
aI00
ag42
aI5
aI2
aI3
aI12
aI2
aI0
ag15
ag29
((lp1170
g20
ag16
atRp1171
ag29
((lp1172
g20
ag17
ag16
atRp1173
aS'http://www.infopig.com/keywords/Safe/03-10-2011-074405.html'
p1174
aS'2015-06-19 20:13:41.111612'
p1175
aa(lp1176
I2
aI175
aI00
ag42
aI5
aI3
aI5
aI19
aI2
aI0
ag15
ag29
((lp1177
g20
ag17
ag19
atRp1178
ag29
((lp1179
g20
ag18
ag17
ag16
ag19
atRp1180
aS'http://www.jove.com/visualize?author=Giovanni%20Martinelli'
p1181
aS'2015-06-19 20:13:44.173267'
p1182
aa(lp1183
I2
aI176
aI00
ag42
aI5
aI2
aI5
aI15
aI2
aI0
ag15
ag29
((lp1184
g16
ag19
atRp1185
ag29
((lp1186
g20
ag18
ag17
ag16
ag19
atRp1187
aS'http://www.viewzone.com/gravityx.html'
p1188
aS'2015-06-19 20:13:45.407202'
p1189
aa(lp1190
I2
aI177
aI00
ag42
aI5
aI0
aI5
aI39
aI2
aI0
ag15
ag29
((ltRp1191
ag29
((lp1192
g20
ag18
ag17
ag16
ag19
atRp1193
aS'http://spiderbites.nytimes.com/free_1907/articles_1907_06_00003.html'
p1194
aS'2015-06-19 20:13:45.986992'
p1195
aa(lp1196
I2
aI178
aI00
ag42
aI5
aI1
aI5
aI17
aI2
aI0
ag15
ag29
((lp1197
g18
atRp1198
ag29
((lp1199
g20
ag18
ag17
ag16
ag19
atRp1200
aS'http://www.braewood.net/rules'
p1201
aS'2015-06-19 20:13:47.192372'
p1202
aa(lp1203
I2
aI179
aI00
ag42
aI5
aI2
aI4
aI25
aI2
aI0
ag15
ag29
((lp1204
g20
ag18
atRp1205
ag29
((lp1206
g20
ag18
ag17
ag16
atRp1207
aS'http://www.infopig.com/keywords/Valley/11-08-2011-114200.html'
p1208
aS'2015-06-19 20:13:50.205094'
p1209
aa(lp1210
I2
aI180
aI00
ag42
aI5
aI0
aI0
aI7
aI2
aI0
ag15
ag29
((ltRp1211
ag29
((ltRp1212
aS'http://www.infopig.com/keywords/Disorder/02-02-2014-001036.html'
p1213
aS'2015-06-19 20:13:51.044729'
p1214
aa(lp1215
I2
aI181
aI00
ag42
aI5
aI1
aI5
aI28
aI2
aI0
ag15
ag29
((lp1216
g20
atRp1217
ag29
((lp1218
g20
ag18
ag17
ag16
ag19
atRp1219
aS'http://www.wwnrockport.com/2013_10_13_archive.html'
p1220
aS'2015-06-19 20:13:57.231753'
p1221
aa(lp1222
I2
aI182
aI00
ag42
aI5
aI2
aI5
aI48
aI2
aI0
ag15
ag29
((lp1223
g18
ag19
atRp1224
ag29
((lp1225
g20
ag18
ag17
ag16
ag19
atRp1226
aS'http://spiderbites.nytimes.com/free_1896/articles_1896_08_00000.html'
p1227
aS'2015-06-19 20:13:57.762354'
p1228
aa(lp1229
I2
aI183
aI00
ag42
aI5
aI0
aI5
aI47
aI2
aI0
ag15
ag29
((ltRp1230
ag29
((lp1231
g20
ag18
ag17
ag16
ag19
atRp1232
aS'http://spiderbites.nytimes.com/pay_1972/articles_1972_03_00002.html'
p1233
aS'2015-06-19 20:13:58.188248'
p1234
aa(lp1235
I2
aI184
aI00
ag42
aI5
aI1
aI5
aI32
aI2
aI0
ag15
ag29
((lp1236
g17
atRp1237
ag29
((lp1238
g20
ag18
ag17
ag16
ag19
atRp1239
aS'https://www.fanfiction.net/u/4186664/Hermione-Fever'
p1240
aS'2015-06-19 20:14:00.805447'
p1241
aa(lp1242
I2
aI185
aI00
ag42
aI5
aI0
aI5
aI42
aI2
aI0
ag15
ag29
((ltRp1243
ag29
((lp1244
g20
ag18
ag17
ag16
ag19
atRp1245
aS'http://fubar.com/s/bp1/76/'
p1246
aS'2015-06-19 20:14:01.627804'
p1247
aasS'config'
p1248
(ihunter.dictionary.dictionaries
Config
p1249
(dp1250
S'd'
I1
sS'f'
I2
sS'l'
I2
sS'shuffle_keywords_seed'
p1251
I10
sS'essence_len'
p1252
I6
sS'shuffle_stop'
p1253
I200
sS'w'
I5
sS'x'
I89
sbsS'filename'
p1254
S'stats_1_2_2_89_10_tweet_CO_02.txt_2015-06-19 20:04:27.063269.pkl'
p1255
sb.