(istats.words_stats
WordsStats
p1
(dp2
S'collected_words'
p3
(lp4
((lp5
S'carl'
p6
ag6
ag6
ag6
ag6
aS''
tp7
a((lp8
S'estate'
p9
ag9
aS'advisory'
p10
aS'roller'
p11
aS'pants'
p12
aS'http://carlcraig.net/'
p13
tp14
asS'tweet_file'
p15
S'tweet_CO_02.txt'
p16
sS'encoding_flow'
p17
(lp18
(lp19
I0
aI1
aI00
aS'sidestep'
p20
aI1
aI0
aI1
aI22
aI0
aI0
ag5
ac__builtin__
set
p21
((ltRp22
ag21
((lp23
g6
atRp24
aS'http://walkingdead.wikia.com/wiki/Carl_Grimes_(TV_Series)'
p25
aS'2015-06-21 22:26:36.270330'
p26
aa(lp27
I0
aI2
aI01
ag20
aI1
aI1
aI1
aI3
aI0
aI0
ag5
ag21
((lp28
g6
atRp29
ag21
((lp30
g6
atRp31
ag13
aS'2015-06-21 22:26:40.308759'
p32
aa(lp33
I1
aI1
aI00
aS'forward'
p34
aI5
aI0
aI0
aI1
aI1
aI0
ag8
ag21
((ltRp35
ag21
((ltRp36
aS'https://www.facebook.com/nevillefancypants.dickson'
p37
aS'2015-06-21 22:26:42.269296'
p38
aa(lp39
I1
aI2
aI00
ag34
aI5
aI0
aI0
aI1
aI1
aI0
ag8
ag21
((ltRp40
ag21
((ltRp41
aS'https://www.facebook.com/shantell.kupsch'
p42
aS'2015-06-21 22:26:42.800697'
p43
aa(lp44
I1
aI3
aI00
ag34
aI5
aI0
aI0
aI1
aI1
aI0
ag8
ag21
((ltRp45
ag21
((ltRp46
aS'https://www.facebook.com/chrys.whennan1'
p47
aS'2015-06-21 22:26:43.171972'
p48
aa(lp49
I1
aI4
aI00
ag34
aI5
aI0
aI0
aI1
aI1
aI0
ag8
ag21
((ltRp50
ag21
((ltRp51
aS'https://www.facebook.com/dritson1'
p52
aS'2015-06-21 22:26:43.497627'
p53
aa(lp54
I1
aI5
aI00
ag34
aI5
aI0
aI0
aI0
aI1
aI0
ag8
ag21
((ltRp55
ag21
((ltRp56
aS'http://go.epublish4me.com/ebook/ebook?id=10059700'
p57
aS'2015-06-21 22:26:44.533555'
p58
aa(lp59
I1
aI6
aI00
ag34
aI5
aI0
aI5
aI31
aI1
aI0
ag8
ag21
((ltRp60
ag21
((lp61
S'beaches'
p62
ag10
ag9
ag11
ag12
atRp63
aS'http://wesblackman.blogspot.com/2011_05_01_archive.html'
p64
aS'2015-06-21 22:26:48.970104'
p65
aa(lp66
I1
aI7
aI00
ag34
aI5
aI0
aI5
aI20
aI1
aI0
ag8
ag21
((ltRp67
ag21
((lp68
g62
ag10
ag9
ag11
ag12
atRp69
aS'https://readmeansgo.wordpress.com/'
p70
aS'2015-06-21 22:26:55.112303'
p71
aa(lp72
I1
aI8
aI00
ag34
aI5
aI1
aI5
aI19
aI1
aI0
ag8
ag21
((lp73
g12
atRp74
ag21
((lp75
g62
ag10
ag9
ag11
ag12
atRp76
aS'https://readmeansgo.wordpress.com/tag/driving/'
p77
aS'2015-06-21 22:26:59.345340'
p78
aa(lp79
I1
aI9
aI00
ag34
aI5
aI0
aI5
aI40
aI1
aI0
ag8
ag21
((ltRp80
ag21
((lp81
g62
ag10
ag9
ag11
ag12
atRp82
aS'http://rockybalbin.typepad.com/blog/'
p83
aS'2015-06-21 22:27:04.309113'
p84
aa(lp85
I1
aI10
aI00
ag34
aI5
aI1
aI5
aI65
aI1
aI0
ag8
ag21
((lp86
g11
atRp87
ag21
((lp88
g62
ag10
ag9
ag11
ag12
atRp89
aS'http://www.ourtown.com/snellvillega/articles/browse.asp?categoryid=3299'
p90
aS'2015-06-21 22:27:10.656710'
p91
aa(lp92
I1
aI11
aI00
ag34
aI5
aI0
aI0
aI1
aI1
aI0
ag8
ag21
((ltRp93
ag21
((ltRp94
aS'https://www.facebook.com/dritson1?fref=nf'
p95
aS'2015-06-21 22:27:13.202253'
p96
aa(lp97
I1
aI12
aI00
ag34
aI5
aI0
aI0
aI1
aI1
aI0
ag8
ag21
((ltRp98
ag21
((ltRp99
aS'https://www.facebook.com/luke.mulley.37'
p100
aS'2015-06-21 22:27:13.679475'
p101
aa(lp102
I1
aI13
aI00
ag34
aI5
aI0
aI0
aI1
aI1
aI0
ag8
ag21
((ltRp103
ag21
((ltRp104
aS'https://www.facebook.com/william.i.weeks'
p105
aS'2015-06-21 22:27:14.003553'
p106
aa(lp107
I1
aI14
aI00
ag34
aI5
aI0
aI0
aI1
aI1
aI0
ag8
ag21
((ltRp108
ag21
((ltRp109
aS'https://www.facebook.com/misstayk'
p110
aS'2015-06-21 22:27:14.312176'
p111
aa(lp112
I1
aI15
aI00
ag34
aI5
aI0
aI0
aI1
aI1
aI0
ag8
ag21
((ltRp113
ag21
((ltRp114
aS'https://www.facebook.com/loraddcb'
p115
aS'2015-06-21 22:27:14.594709'
p116
aa(lp117
I1
aI16
aI00
ag34
aI5
aI0
aI0
aI1
aI1
aI0
ag8
ag21
((ltRp118
ag21
((ltRp119
aS'https://www.facebook.com/DamienBoothAU'
p120
aS'2015-06-21 22:27:14.923260'
p121
aa(lp122
I1
aI17
aI00
ag34
aI5
aI1
aI5
aI35
aI1
aI0
ag8
ag21
((lp123
g11
atRp124
ag21
((lp125
g62
ag10
ag9
ag11
ag12
atRp126
aS'https://stuartshieldgardendesign.wordpress.com/category/artist/'
p127
aS'2015-06-21 22:27:17.123363'
p128
aa(lp129
I1
aI18
aI00
ag34
aI5
aI0
aI5
aI25
aI1
aI0
ag8
ag21
((ltRp130
ag21
((lp131
g62
ag10
ag9
ag11
ag12
atRp132
aS'http://schirofamily.com/FromTheHelmArchives.html'
p133
aS'2015-06-21 22:27:17.405619'
p134
aa(lp135
I1
aI19
aI00
ag34
aI5
aI0
aI0
aI0
aI1
aI0
ag8
ag21
((ltRp136
ag21
((ltRp137
aS'http://dev.whichbrand.com/bm_alpha_list.tcl?letter=b'
p138
aS'2015-06-21 22:27:24.463907'
p139
aa(lp140
I1
aI20
aI00
ag34
aI5
aI0
aI0
aI0
aI1
aI0
ag8
ag21
((ltRp141
ag21
((ltRp142
aS'http://article.wn.com/view/2014/07/21/Fixing_Traverse_City_splash_pad_that_rained_sewage_could_be_/'
p143
aS'2015-06-21 22:27:31.517261'
p144
aa(lp145
I1
aI21
aI00
ag34
aI5
aI0
aI0
aI1
aI1
aI0
ag8
ag21
((ltRp146
ag21
((ltRp147
aS'https://www.facebook.com/peter.is.a.sexybeast'
p148
aS'2015-06-21 22:27:34.149256'
p149
aa(lp150
I1
aI22
aI00
ag34
aI5
aI0
aI0
aI1
aI1
aI0
ag8
ag21
((ltRp151
ag21
((ltRp152
aS'https://www.facebook.com/misstayk?hc_location=ufi'
p153
aS'2015-06-21 22:27:34.636325'
p154
aa(lp155
I1
aI23
aI00
ag34
aI5
aI0
aI0
aI1
aI1
aI0
ag8
ag21
((ltRp156
ag21
((ltRp157
aS'https://www.facebook.com/dritson1?hc_location=stream'
p158
aS'2015-06-21 22:27:34.954021'
p159
aa(lp160
I1
aI24
aI00
ag34
aI5
aI0
aI0
aI1
aI1
aI0
ag8
ag21
((ltRp161
ag21
((ltRp162
aS'https://www.facebook.com/allison.nonnemacher.7'
p163
aS'2015-06-21 22:27:35.269926'
p164
aa(lp165
I1
aI25
aI00
ag34
aI5
aI0
aI0
aI1
aI1
aI0
ag8
ag21
((ltRp166
ag21
((ltRp167
aS'https://www.facebook.com/angelasuydam'
p168
aS'2015-06-21 22:27:35.580537'
p169
aa(lp170
I1
aI26
aI00
ag34
aI5
aI0
aI0
aI1
aI1
aI0
ag8
ag21
((ltRp171
ag21
((ltRp172
aS'https://www.facebook.com/jim.rosell1'
p173
aS'2015-06-21 22:27:35.873720'
p174
aa(lp175
I1
aI27
aI00
ag34
aI5
aI0
aI0
aI1
aI1
aI0
ag8
ag21
((ltRp176
ag21
((ltRp177
aS'https://www.facebook.com/jojo.donesa.7'
p178
aS'2015-06-21 22:27:36.180334'
p179
aa(lp180
I1
aI28
aI00
ag34
aI5
aI0
aI0
aI1
aI1
aI0
ag8
ag21
((ltRp181
ag21
((ltRp182
aS'https://www.facebook.com/greg.mclean.927'
p183
aS'2015-06-21 22:27:36.502747'
p184
aa(lp185
I1
aI29
aI00
ag34
aI5
aI0
aI0
aI1
aI1
aI0
ag8
ag21
((ltRp186
ag21
((ltRp187
aS'https://www.facebook.com/francisco.macahia'
p188
aS'2015-06-21 22:27:36.817577'
p189
aa(lp190
I1
aI30
aI00
ag34
aI5
aI0
aI0
aI1
aI1
aI0
ag8
ag21
((ltRp191
ag21
((ltRp192
aS'https://www.facebook.com/usherktj'
p193
aS'2015-06-21 22:27:44.212243'
p194
aa(lp195
I1
aI31
aI00
ag34
aI5
aI0
aI0
aI1
aI1
aI0
ag8
ag21
((ltRp196
ag21
((ltRp197
aS'https://www.facebook.com/nina.heck1'
p198
aS'2015-06-21 22:27:44.519348'
p199
aa(lp200
I1
aI32
aI00
ag34
aI5
aI0
aI0
aI1
aI1
aI0
ag8
ag21
((ltRp201
ag21
((ltRp202
aS'https://www.facebook.com/ninabarbosa72'
p203
aS'2015-06-21 22:27:44.946595'
p204
aa(lp205
I1
aI33
aI00
ag34
aI5
aI0
aI0
aI1
aI1
aI0
ag8
ag21
((ltRp206
ag21
((ltRp207
aS'https://www.facebook.com/mauricerb'
p208
aS'2015-06-21 22:27:45.260371'
p209
aa(lp210
I1
aI34
aI00
ag34
aI5
aI0
aI0
aI1
aI1
aI0
ag8
ag21
((ltRp211
ag21
((ltRp212
aS'https://www.facebook.com/lisa.laducer'
p213
aS'2015-06-21 22:27:45.575182'
p214
aa(lp215
I1
aI35
aI00
ag34
aI5
aI0
aI0
aI1
aI1
aI0
ag8
ag21
((ltRp216
ag21
((ltRp217
aS'https://www.facebook.com/andrew.filippin.7'
p218
aS'2015-06-21 22:27:45.888745'
p219
aa(lp220
I1
aI36
aI00
ag34
aI5
aI0
aI0
aI1
aI1
aI0
ag8
ag21
((ltRp221
ag21
((ltRp222
aS'https://www.facebook.com/mellie.jane.3'
p223
aS'2015-06-21 22:27:46.212532'
p224
aa(lp225
I1
aI37
aI00
ag34
aI5
aI0
aI0
aI1
aI1
aI0
ag8
ag21
((ltRp226
ag21
((ltRp227
aS'https://www.facebook.com/caroline.kelly.3154284'
p228
aS'2015-06-21 22:27:46.570808'
p229
aa(lp230
I1
aI38
aI00
ag34
aI5
aI0
aI0
aI1
aI1
aI0
ag8
ag21
((ltRp231
ag21
((ltRp232
aS'https://www.facebook.com/die.hippie.die666'
p233
aS'2015-06-21 22:27:46.889840'
p234
aa(lp235
I1
aI39
aI00
ag34
aI5
aI1
aI5
aI38
aI1
aI0
ag8
ag21
((lp236
g11
atRp237
ag21
((lp238
g62
ag10
ag9
ag11
ag12
atRp239
aS'http://www.fatwebsite.com/best-sites-on-clarke'
p240
aS'2015-06-21 22:27:48.688071'
p241
aa(lp242
I1
aI40
aI00
ag34
aI5
aI0
aI0
aI1
aI1
aI0
ag8
ag21
((ltRp243
ag21
((ltRp244
aS'https://www.facebook.com/hanna.coulter'
p245
aS'2015-06-21 22:27:51.143892'
p246
aa(lp247
I1
aI41
aI00
ag34
aI5
aI0
aI0
aI1
aI1
aI0
ag8
ag21
((ltRp248
ag21
((ltRp249
aS'https://www.facebook.com/john.bailey.1426'
p250
aS'2015-06-21 22:27:51.608890'
p251
aa(lp252
I1
aI42
aI00
ag34
aI5
aI0
aI0
aI1
aI1
aI0
ag8
ag21
((ltRp253
ag21
((ltRp254
aS'https://www.facebook.com/khairul.own.94/place_reviews_written'
p255
aS'2015-06-21 22:27:51.930933'
p256
aa(lp257
I1
aI43
aI00
ag34
aI5
aI0
aI0
aI0
aI1
aI0
ag8
ag21
((ltRp258
ag21
((ltRp259
aS'http://phoneandaddressbook.com/'
p260
aS'2015-06-21 22:27:58.977652'
p261
aa(lp262
I1
aI44
aI00
ag34
aI5
aI0
aI5
aI24
aI1
aI0
ag8
ag21
((ltRp263
ag21
((lp264
g62
ag10
ag9
ag11
ag12
atRp265
aS'http://phoneandaddressbook.com/call-centers/241984-t-mobile-jefferson-commons/'
p266
aS'2015-06-21 22:28:01.544406'
p267
aa(lp268
I1
aI45
aI00
ag34
aI5
aI2
aI5
aI24
aI1
aI0
ag8
ag21
((lp269
g10
ag9
atRp270
ag21
((lp271
g62
ag10
ag9
ag11
ag12
atRp272
aS'http://phoneandaddressbook.com/carpets-waterproofing/236337-home-depot-rdc-5851/'
p273
aS'2015-06-21 22:28:04.128762'
p274
aa(lp275
I1
aI46
aI00
ag34
aI5
aI2
aI5
aI24
aI1
aI0
ag8
ag21
((lp276
g62
ag9
atRp277
ag21
((lp278
g62
ag10
ag9
ag11
ag12
atRp279
aS'http://phoneandaddressbook.com/irish-food/603517-mos-irish-grill/'
p280
aS'2015-06-21 22:28:06.380696'
p281
aa(lp282
I1
aI47
aI00
ag34
aI5
aI1
aI5
aI26
aI1
aI0
ag8
ag21
((lp283
g62
atRp284
ag21
((lp285
g62
ag10
ag9
ag11
ag12
atRp286
aS'http://phoneandaddressbook.com/models-agencies/692568-wilhelmina-models-phoenix/'
p287
aS'2015-06-21 22:28:08.616272'
p288
aa(lp289
I1
aI48
aI00
ag34
aI5
aI0
aI0
aI17
aI1
aI0
ag8
ag21
((ltRp290
ag21
((ltRp291
aS'http://biglistofwebsites.com/list-top-websites-like-vaporvixxen.com'
p292
aS'2015-06-21 22:28:10.305880'
p293
aa(lp294
I1
aI49
aI00
ag34
aI5
aI0
aI1
aI19
aI1
aI0
ag8
ag21
((ltRp295
ag21
((lp296
g9
atRp297
aS'http://biglistofwebsites.com/list-top-websites-like-bluewateryachtsales.com'
p298
aS'2015-06-21 22:28:13.159331'
p299
aa(lp300
I1
aI50
aI00
ag34
aI5
aI0
aI0
aI1
aI1
aI0
ag8
ag21
((ltRp301
ag21
((ltRp302
aS'https://www.facebook.com/people/Angela-Beaulieu/100005090085318'
p303
aS'2015-06-21 22:28:15.480894'
p304
aa(lp305
I1
aI51
aI00
ag34
aI5
aI0
aI1
aI20
aI1
aI0
ag8
ag21
((ltRp306
ag21
((lp307
g9
atRp308
aS'http://biglistofwebsites.com/list-top-websites-like-inflatableboats.com'
p309
aS'2015-06-21 22:28:18.437636'
p310
aa(lp311
I1
aI52
aI00
ag34
aI5
aI0
aI1
aI25
aI1
aI0
ag8
ag21
((ltRp312
ag21
((lp313
g9
atRp314
aS'http://biglistofwebsites.com/list-top-websites-like-boatcountry.com'
p315
aS'2015-06-21 22:28:22.324673'
p316
aa(lp317
I1
aI53
aI00
ag34
aI5
aI0
aI0
aI2
aI1
aI0
ag8
ag21
((ltRp318
ag21
((ltRp319
aS'http://google.com'
p320
aS'2015-06-21 22:29:15.742045'
p321
aa(lp322
I1
aI54
aI00
ag34
aI5
aI1
aI1
aI5
aI1
aI0
ag8
ag21
((lp323
Vestate
p324
atRp325
ag21
((lp326
g324
atRp327
aS'http://www.docstoc.com/docs/120552387/alphaen'
p328
aS'2015-06-21 22:29:17.046946'
p329
aa(lp330
I1
aI55
aI00
ag34
aI5
aI1
aI1
aI5
aI1
aI0
ag8
ag21
((lp331
Vestate
p332
atRp333
ag21
((lp334
g332
atRp335
aS'http://www.docstoc.com/docs/36884107/profile_list-1'
p336
aS'2015-06-21 22:29:17.555972'
p337
aa(lp338
I1
aI1
aI00
ag20
aI4
aI3
aI4
aI8
aI0
aI1
ag8
ag21
((lp339
g10
ag11
ag12
atRp340
ag21
((lp341
g10
ag9
ag11
ag12
atRp342
aS'http://www.llgfinancial.com/what-is-a-male-mid-life-crisis.php'
p343
aS'2015-06-21 22:29:22.329234'
p344
aa(lp345
I1
aI2
aI00
ag20
aI4
aI0
aI4
aI30
aI0
aI1
ag8
ag21
((ltRp346
ag21
((lp347
g10
ag9
ag11
ag12
atRp348
aS'http://confluenceconference.org/list/'
p349
aS'2015-06-21 22:29:29.555224'
p350
aa(lp351
I1
aI3
aI00
ag20
aI4
aI0
aI0
aI0
aI0
aI1
ag8
ag21
((ltRp352
ag21
((ltRp353
aS'http://www.newtonma.gov/civicax/filebank/documents/60761'
p354
aS'2015-06-21 22:29:29.841568'
p355
aa(lp356
I1
aI4
aI00
ag20
aI4
aI1
aI4
aI15
aI0
aI1
ag8
ag21
((lp357
g10
atRp358
ag21
((lp359
g10
ag9
ag11
ag12
atRp360
aS'https://trademarks.justia.com/browse-by-serial-number/85/16/19/'
p361
aS'2015-06-21 22:29:31.275874'
p362
aa(lp363
I1
aI5
aI00
ag20
aI4
aI1
aI4
aI12
aI0
aI1
ag8
ag21
((lp364
g10
atRp365
ag21
((lp366
g10
ag9
ag11
ag12
atRp367
aS'https://trademarks.justia.com/791/09/numtums-79109416.html'
p368
aS'2015-06-21 22:29:31.594033'
p369
aa(lp370
I1
aI6
aI00
ag20
aI4
aI1
aI4
aI13
aI0
aI1
ag8
ag21
((lp371
g9
atRp372
ag21
((lp373
g10
ag9
ag11
ag12
atRp374
aS'https://trademarks.justia.com/browse-by-serial-number/85/17/00/'
p375
aS'2015-06-21 22:29:31.864756'
p376
aa(lp377
I1
aI7
aI00
ag20
aI4
aI3
aI4
aI12
aI0
aI1
ag8
ag21
((lp378
g10
ag9
ag11
atRp379
ag21
((lp380
g10
ag9
ag11
ag12
atRp381
aS'https://trademarks.justia.com/browse-by-serial-number/85/71/01/'
p382
aS'2015-06-21 22:29:32.134088'
p383
aa(lp384
I1
aI8
aI00
ag20
aI4
aI3
aI4
aI11
aI0
aI1
ag8
ag21
((lp385
g10
ag11
ag12
atRp386
ag21
((lp387
g10
ag9
ag11
ag12
atRp388
aS'https://trademarks.justia.com/browse-by-serial-number/85/74/36/'
p389
aS'2015-06-21 22:29:32.377048'
p390
aa(lp391
I1
aI9
aI00
ag20
aI4
aI2
aI4
aI13
aI0
aI1
ag8
ag21
((lp392
g10
ag11
atRp393
ag21
((lp394
g10
ag9
ag11
ag12
atRp395
aS'http://bloh356i6ihjguwrl.blogspot.com/'
p396
aS'2015-06-21 22:29:33.283036'
p397
aa(lp398
I1
aI10
aI00
ag20
aI4
aI0
aI0
aI0
aI0
aI1
ag8
ag21
((ltRp399
ag21
((ltRp400
aS'http://www.belmont.gov/home/showdocument?id=11430'
p401
aS'2015-06-21 22:29:37.645770'
p402
aa(lp403
I1
aI11
aI00
ag20
aI4
aI3
aI4
aI11
aI0
aI1
ag8
ag21
((lp404
g10
ag9
ag12
atRp405
ag21
((lp406
g10
ag9
ag11
ag12
atRp407
aS'https://trademarks.justia.com/browse-by-serial-number/79/08/03/'
p408
aS'2015-06-21 22:29:40.517531'
p409
aa(lp410
I1
aI12
aI00
ag20
aI4
aI2
aI4
aI15
aI0
aI1
ag8
ag21
((lp411
g10
ag12
atRp412
ag21
((lp413
g10
ag9
ag11
ag12
atRp414
aS'https://trademarks.justia.com/browse-by-serial-number/79/02/46/'
p415
aS'2015-06-21 22:29:40.820598'
p416
aa(lp417
I1
aI13
aI00
ag20
aI4
aI3
aI4
aI13
aI0
aI1
ag8
ag21
((lp418
g10
ag9
ag11
atRp419
ag21
((lp420
g10
ag9
ag11
ag12
atRp421
aS'https://trademarks.justia.com/browse-by-serial-number/85/15/63/'
p422
aS'2015-06-21 22:29:41.087387'
p423
aa(lp424
I1
aI14
aI00
ag20
aI4
aI2
aI4
aI11
aI0
aI1
ag8
ag21
((lp425
g11
ag12
atRp426
ag21
((lp427
g10
ag9
ag11
ag12
atRp428
aS'https://trademarks.justia.com/browse-by-serial-number/85/74/50/'
p429
aS'2015-06-21 22:29:41.365877'
p430
aa(lp431
I1
aI15
aI00
ag20
aI4
aI2
aI4
aI18
aI0
aI1
ag8
ag21
((lp432
g10
ag9
atRp433
ag21
((lp434
g10
ag9
ag11
ag12
atRp435
aS'http://myemail.constantcontact.com/News-About-Your-Fellow-Members.html?soid=1108936514285&aid=-DfEZM7A-yk'
p436
aS'2015-06-21 22:29:42.471362'
p437
aa(lp438
I1
aI16
aI00
ag20
aI4
aI2
aI4
aI21
aI0
aI1
ag8
ag21
((lp439
g10
ag12
atRp440
ag21
((lp441
g10
ag9
ag11
ag12
atRp442
aS'http://70sthoughts.blogspot.com/'
p443
aS'2015-06-21 22:29:43.150050'
p444
aa(lp445
I1
aI17
aI00
ag20
aI4
aI0
aI0
aI0
aI0
aI1
ag8
ag21
((ltRp446
ag21
((ltRp447
aS'http://www.lowermerion.org/Modules/ShowDocument.aspx?documentid=10399'
p448
aS'2015-06-21 22:29:43.399703'
p449
aa(lp450
I1
aI18
aI00
ag20
aI4
aI3
aI4
aI13
aI0
aI1
ag8
ag21
((lp451
g10
ag9
ag12
atRp452
ag21
((lp453
g10
ag9
ag11
ag12
atRp454
aS'http://bloh356i6ihjguwrl.blogspot.com/2008_07_01_archive.html'
p455
aS'2015-06-21 22:29:43.989836'
p456
aa(lp457
I1
aI19
aI00
ag20
aI4
aI0
aI0
aI0
aI0
aI1
ag8
ag21
((ltRp458
ag21
((ltRp459
aS'http://www.colonialheightsva.gov/DocumentCenter/View/2269'
p460
aS'2015-06-21 22:29:44.398494'
p461
aa(lp462
I1
aI20
aI00
ag20
aI4
aI0
aI0
aI1
aI0
aI1
ag8
ag21
((ltRp463
ag21
((ltRp464
aS'https://www.facebook.com/ZaZaFontana'
p465
aS'2015-06-21 22:29:44.860918'
p466
aa(lp467
I1
aI21
aI00
ag20
aI4
aI2
aI4
aI11
aI0
aI1
ag8
ag21
((lp468
g11
ag12
atRp469
ag21
((lp470
g10
ag9
ag11
ag12
atRp471
aS'https://trademarks.justia.com/browse-by-serial-number/79/10/39/'
p472
aS'2015-06-21 22:29:50.193555'
p473
aa(lp474
I1
aI22
aI00
ag20
aI4
aI1
aI4
aI11
aI0
aI1
ag8
ag21
((lp475
g9
atRp476
ag21
((lp477
g10
ag9
ag11
ag12
atRp478
aS'https://trademarks.justia.com/browse-by-serial-number/85/74/51/'
p479
aS'2015-06-21 22:29:50.508291'
p480
aa(lp481
I1
aI23
aI00
ag20
aI4
aI3
aI4
aI12
aI0
aI1
ag8
ag21
((lp482
g10
ag11
ag12
atRp483
ag21
((lp484
g10
ag9
ag11
ag12
atRp485
aS'https://trademarks.justia.com/browse-by-serial-number/85/58/59/'
p486
aS'2015-06-21 22:29:50.804795'
p487
aa(lp488
I1
aI24
aI00
ag20
aI4
aI0
aI4
aI14
aI0
aI1
ag8
ag21
((ltRp489
ag21
((lp490
g10
ag9
ag11
ag12
atRp491
aS'https://trademarks.justia.com/browse-by-serial-number/85/15/41/'
p492
aS'2015-06-21 22:29:51.086936'
p493
aa(lp494
I1
aI25
aI00
ag20
aI4
aI3
aI4
aI12
aI0
aI1
ag8
ag21
((lp495
g9
ag11
ag12
atRp496
ag21
((lp497
g10
ag9
ag11
ag12
atRp498
aS'https://trademarks.justia.com/browse-by-serial-number/79/11/23/'
p499
aS'2015-06-21 22:29:51.339133'
p500
aa(lp501
I1
aI26
aI00
ag20
aI4
aI1
aI4
aI15
aI0
aI1
ag8
ag21
((lp502
g11
atRp503
ag21
((lp504
g10
ag9
ag11
ag12
atRp505
aS'https://trademarks.justia.com/browse-by-serial-number/85/17/89/'
p506
aS'2015-06-21 22:29:51.606973'
p507
aa(lp508
I1
aI27
aI00
ag20
aI4
aI0
aI0
aI1
aI0
aI1
ag8
ag21
((ltRp509
ag21
((ltRp510
aS'https://www.facebook.com/nevillefancypants.dickson'
p511
aS'2015-06-21 22:29:52.081688'
p512
aa(lp513
I1
aI28
aI00
ag20
aI4
aI0
aI0
aI1
aI0
aI1
ag8
ag21
((ltRp514
ag21
((ltRp515
aS'https://www.facebook.com/ruben.chavez.9003888'
p516
aS'2015-06-21 22:29:52.884359'
p517
aa(lp518
I1
aI29
aI00
ag20
aI4
aI0
aI0
aI1
aI0
aI1
ag8
ag21
((ltRp519
ag21
((ltRp520
aS'https://www.facebook.com/dritson1?hc_location=stream'
p521
aS'2015-06-21 22:29:53.433764'
p522
aa(lp523
I1
aI30
aI00
ag20
aI4
aI0
aI4
aI48
aI0
aI1
ag8
ag21
((ltRp524
ag21
((lp525
g10
ag9
ag11
ag12
atRp526
aS'http://www.qvna.org/qvna/category/committees/'
p527
aS'2015-06-21 22:30:04.492760'
p528
aa(lp529
I1
aI31
aI00
ag20
aI4
aI3
aI4
aI14
aI0
aI1
ag8
ag21
((lp530
g10
ag11
ag12
atRp531
ag21
((lp532
g10
ag9
ag11
ag12
atRp533
aS'https://trademarks.justia.com/browse-by-serial-number/85/45/25/'
p534
aS'2015-06-21 22:30:04.924622'
p535
aa(lp536
I1
aI32
aI00
ag20
aI4
aI1
aI4
aI13
aI0
aI1
ag8
ag21
((lp537
g9
atRp538
ag21
((lp539
g10
ag9
ag11
ag12
atRp540
aS'https://trademarks.justia.com/browse-by-serial-number/77/69/38/'
p541
aS'2015-06-21 22:30:05.455630'
p542
aa(lp543
I1
aI33
aI00
ag20
aI4
aI2
aI4
aI11
aI0
aI1
ag8
ag21
((lp544
g9
ag12
atRp545
ag21
((lp546
g10
ag9
ag11
ag12
atRp547
aS'https://trademarks.justia.com/browse-by-date/2012/may/29/3.html'
p548
aS'2015-06-21 22:30:05.690225'
p549
aa(lp550
I1
aI34
aI00
ag20
aI4
aI0
aI0
aI1
aI0
aI1
ag8
ag21
((ltRp551
ag21
((ltRp552
aS'https://www.facebook.com/jaimideklerk'
p553
aS'2015-06-21 22:30:06.198397'
p554
aa(lp555
I1
aI35
aI00
ag20
aI4
aI2
aI4
aI22
aI0
aI1
ag8
ag21
((lp556
g11
ag12
atRp557
ag21
((lp558
g10
ag9
ag11
ag12
atRp559
aS'http://thecomeup.com/videos/instagram-slam-22-terry-adams-matthias-dandois/'
p560
aS'2015-06-21 22:30:09.919422'
p561
aa(lp562
I1
aI36
aI00
ag20
aI4
aI1
aI4
aI22
aI0
aI1
ag8
ag21
((lp563
g11
atRp564
ag21
((lp565
g10
ag9
ag11
ag12
atRp566
aS'https://www.bigpinekey.com/thursday-november-29-2012/'
p567
aS'2015-06-21 22:30:11.182504'
p568
aa(lp569
I1
aI37
aI00
ag20
aI4
aI1
aI4
aI22
aI0
aI1
ag8
ag21
((lp570
g12
atRp571
ag21
((lp572
g10
ag9
ag11
ag12
atRp573
aS'https://www.bigpinekey.com/2012/11/page/2/'
p574
aS'2015-06-21 22:30:12.190703'
p575
aa(lp576
I1
aI38
aI00
ag20
aI4
aI0
aI0
aI0
aI0
aI1
ag8
ag21
((ltRp577
ag21
((ltRp578
aS'http://www.waterford.k12.mi.us/NorthstarMedia/download/94935?token=OCaRojCyVwc%3D'
p579
aS'2015-06-21 22:30:12.309420'
p580
aasS'config'
p581
(ihunter.dictionary.dictionaries
Config
p582
(dp583
S'd'
I1
sS'f'
I2
sS'l'
I2
sS'shuffle_keywords_seed'
p584
I10
sS'essence_len'
p585
I6
sS'shuffle_stop'
p586
I200
sS'w'
I5
sS'x'
I89
sbsS'filename'
p587
S'stats_1_2_2_89_10_tweet_CO_02.txt_2015-06-21 22:26:23.501145.pkl'
p588
sb.