(istats.words_stats
WordsStats
p1
(dp2
S'collected_words'
p3
(lp4
((lp5
S'carl'
p6
ag6
ag6
ag6
ag6
aS''
tp7
a((lp8
S'beaches'
p9
aS'estate'
p10
aS'advisory'
p11
aS'executive'
p12
aS'committee'
p13
aS'http://carlcraig.net/'
p14
tp15
a((lp16
S'candidate'
p17
aS'vice'
p18
aS'margaret'
p19
aS'raised'
p20
aS'problems'
p21
aS'http://www.oceanconservancy.org/our-work/trash-free-seas-alliance/tfsa-meeting-goalsagenda.html'
p22
tp23
a((lp24
S'parker'
p25
aS'candidates'
p26
ag21
aS'responses'
p27
aS'gardening'
p28
aS'http://www2.ljworld.com/news/2009/sep/26/spiritual-homecoming-new-st-margarets-rector-follo/?print'
p29
tp30
a((lp31
S'another'
p32
ag20
aS'zealand'
p33
aS'speaker'
p34
aS'timothy'
p35
aS'http://www.webanswers.com/social-sciences/psychology/what-are-your-most-important-interests-dabbe9'
p36
tp37
a((lp38
S'powers'
p39
aS'funds'
p40
aS'monsters'
p41
aS'compilation'
p42
aS'gibson'
p43
aS'http://blogs.transparent.com/english/the-oregon-trail-how-americans-moved-west/'
p44
tp45
asS'tweet_file'
p46
S'tweet_CO_02.txt'
p47
sS'encoding_flow'
p48
(lp49
(lp50
I0
aI1
aI00
aS'sidestep'
p51
aI1
aI0
aI1
aI22
aI0
aI0
ag5
ac__builtin__
set
p52
((ltRp53
ag52
((lp54
g6
atRp55
aS'http://walkingdead.wikia.com/wiki/Carl_Grimes_(TV_Series)'
p56
aS'2015-06-20 11:32:57.231419'
p57
aa(lp58
I0
aI2
aI01
ag51
aI1
aI1
aI1
aI2
aI0
aI0
ag5
ag52
((lp59
g6
atRp60
ag52
((lp61
g6
atRp62
ag14
aS'2015-06-20 11:33:02.202018'
p63
aa(lp64
I1
aI1
aI00
aS'forward'
p65
aI5
aI2
aI5
aI12
aI1
aI0
ag8
ag52
((lp66
g9
ag10
atRp67
ag52
((lp68
g9
ag11
ag12
ag10
ag13
atRp69
aS'http://www.benzaitencenter.org/index.php/about-us/directors'
p70
aS'2015-06-20 11:33:05.060788'
p71
aa(lp72
I1
aI2
aI00
ag65
aI5
aI3
aI3
aI4
aI1
aI0
ag8
ag52
((lp73
Vadvisory
p74
aVexecutive
p75
aVestate
p76
atRp77
ag52
((lp78
g74
ag75
ag76
atRp79
aS'http://palmbeachia.com/advisory-board/'
p80
aS'2015-06-20 11:33:12.164348'
p81
aa(lp82
I1
aI3
aI00
ag65
aI5
aI4
aI5
aI9
aI1
aI0
ag8
ag52
((lp83
g11
ag12
ag9
ag13
atRp84
ag52
((lp85
g9
ag11
ag12
ag10
ag13
atRp86
aS'http://www.ubulaw.com/people.php'
p87
aS'2015-06-20 11:33:12.566628'
p88
aa(lp89
I1
aI4
aI00
ag65
aI5
aI3
aI5
aI8
aI1
aI0
ag8
ag52
((lp90
g12
ag9
ag10
atRp91
ag52
((lp92
g9
ag11
ag12
ag10
ag13
atRp93
aS'http://rmd-law.com/company-profile/'
p94
aS'2015-06-20 11:33:13.350568'
p95
aa(lp96
I1
aI5
aI00
ag65
aI5
aI2
aI5
aI10
aI1
aI0
ag8
ag52
((lp97
g9
ag10
atRp98
ag52
((lp99
g9
ag11
ag12
ag10
ag13
atRp100
aS'http://www.pbcfoodbank.org/marti-latour'
p101
aS'2015-06-20 11:33:14.304515'
p102
aa(lp103
I1
aI6
aI00
ag65
aI5
aI2
aI5
aI15
aI1
aI0
ag8
ag52
((lp104
g11
ag12
atRp105
ag52
((lp106
g9
ag11
ag12
ag10
ag13
atRp107
aS'http://www.palmhealthcare.org/BoardOfTrustees2'
p108
aS'2015-06-20 11:33:15.268941'
p109
aa(lp110
I1
aI7
aI00
ag65
aI5
aI2
aI5
aI12
aI1
aI0
ag8
ag52
((lp111
g11
ag10
atRp112
ag52
((lp113
g9
ag11
ag12
ag10
ag13
atRp114
aS'http://www.withum.com/partner/wendy-y-terry/'
p115
aS'2015-06-20 11:33:19.002944'
p116
aa(lp117
I1
aI8
aI00
ag65
aI5
aI0
aI0
aI0
aI1
aI0
ag8
ag52
((ltRp118
ag52
((ltRp119
aS'http://mwraadvisoryboard.com/event/advisory-board-13/'
p120
aS'2015-06-20 11:33:26.065925'
p121
aa(lp122
I1
aI9
aI00
ag65
aI5
aI0
aI5
aI23
aI1
aI0
ag8
ag52
((ltRp123
ag52
((lp124
g9
ag11
ag12
ag10
ag13
atRp125
aS'http://www.friendsofsanclemente.org/Contacts.htm'
p126
aS'2015-06-20 11:33:26.888421'
p127
aa(lp128
I1
aI10
aI00
ag65
aI5
aI4
aI5
aI13
aI1
aI0
ag8
ag52
((lp129
g11
ag12
ag9
ag13
atRp130
ag52
((lp131
g9
ag11
ag12
ag10
ag13
atRp132
aS'http://beauportfinancial.com/our-team/'
p133
aS'2015-06-20 11:33:29.791835'
p134
aa(lp135
I1
aI11
aI00
ag65
aI5
aI0
aI0
aI0
aI1
aI0
ag8
ag52
((ltRp136
ag52
((ltRp137
aS'http://www.newportbeachca.gov/Modules/ShowDocument.aspx?documentid=17316'
p138
aS'2015-06-20 11:33:34.516358'
p139
aa(lp140
I1
aI12
aI00
ag65
aI5
aI1
aI5
aI13
aI1
aI0
ag8
ag52
((lp141
g10
atRp142
ag52
((lp143
g9
ag11
ag12
ag10
ag13
atRp144
aS'http://www.artmarshall.org/portal/board-of-directors'
p145
aS'2015-06-20 11:33:36.397120'
p146
aa(lp147
I1
aI13
aI00
ag65
aI5
aI2
aI5
aI13
aI1
aI0
ag8
ag52
((lp148
g11
ag9
atRp149
ag52
((lp150
g9
ag11
ag12
ag10
ag13
atRp151
aS'http://www.epcmiami.org/events/event/5989'
p152
aS'2015-06-20 11:33:37.326273'
p153
aa(lp154
I1
aI14
aI00
ag65
aI5
aI3
aI5
aI23
aI1
aI0
ag8
ag52
((lp155
g11
ag12
ag13
atRp156
ag52
((lp157
g9
ag11
ag12
ag10
ag13
atRp158
aS'http://justiceproject.org/advisory-board/'
p159
aS'2015-06-20 11:33:39.813318'
p160
aa(lp161
I1
aI15
aI00
ag65
aI5
aI1
aI5
aI18
aI1
aI0
ag8
ag52
((lp162
g9
atRp163
ag52
((lp164
g9
ag11
ag12
ag10
ag13
atRp165
aS'http://eacmarin.org/about-us/'
p166
aS'2015-06-20 11:33:40.993760'
p167
aa(lp168
I1
aI16
aI01
ag65
aI5
aI5
aI5
aI8
aI1
aI0
ag8
ag52
((lp169
g9
ag11
ag12
ag10
ag13
atRp170
ag52
((lp171
g9
ag11
ag12
ag10
ag13
atRp172
ag22
aS'2015-06-20 11:33:46.953708'
p173
aa(lp174
I2
aI1
aI00
ag65
aI5
aI2
aI5
aI15
aI2
aI0
ag16
ag52
((lp175
g20
ag18
atRp176
ag52
((lp177
g19
ag20
ag21
ag17
ag18
atRp178
aS'http://www.uri.edu/artsci/newecn/Classes/Art/INT1/Mac/1980s/1980sA.html'
p179
aS'2015-06-20 11:33:48.748143'
p180
aa(lp181
I2
aI2
aI00
ag65
aI5
aI3
aI5
aI13
aI2
aI0
ag16
ag52
((lp182
g19
ag21
ag18
atRp183
ag52
((lp184
g19
ag20
ag21
ag17
ag18
atRp185
aS'http://www.marquette.edu/universityhonors/honors_farrow.shtml'
p186
aS'2015-06-20 11:33:49.006178'
p187
aa(lp188
I2
aI3
aI00
ag65
aI5
aI1
aI5
aI17
aI2
aI0
ag16
ag52
((lp189
g17
atRp190
ag52
((lp191
g19
ag20
ag21
ag17
ag18
atRp192
aS'http://www.eenews.net/stories/1060004553'
p193
aS'2015-06-20 11:33:53.864997'
p194
aa(lp195
I2
aI4
aI00
ag65
aI5
aI0
aI3
aI14
aI2
aI0
ag16
ag52
((ltRp196
ag52
((lp197
g20
ag17
ag18
atRp198
aS'http://www.charlestoncitypaper.com/TheBattery/archives/2015/04/22/1-million-raised-in-charleston-mayoral-race'
p199
aS'2015-06-20 11:33:55.496011'
p200
aa(lp201
I2
aI5
aI00
ag65
aI5
aI2
aI5
aI14
aI2
aI0
ag16
ag52
((lp202
g20
ag18
atRp203
ag52
((lp204
g19
ag20
ag21
ag17
ag18
atRp205
aS'http://partners.nytimes.com/library/politics/camp/102199wh-gop-dole.html'
p206
aS'2015-06-20 11:33:55.733291'
p207
aa(lp208
I2
aI6
aI00
ag65
aI5
aI3
aI5
aI19
aI2
aI0
ag16
ag52
((lp209
g19
ag20
ag18
atRp210
ag52
((lp211
g19
ag20
ag21
ag17
ag18
atRp212
aS'http://www.theaustinbulldog.org/index.php?option=com_content&view=article&id=94:background-investigations-travis-county&catid=3:main-articles'
p213
aS'2015-06-20 11:33:58.017941'
p214
aa(lp215
I2
aI7
aI00
ag65
aI5
aI4
aI5
aI10
aI2
aI0
ag16
ag52
((lp216
g19
ag20
ag21
ag17
atRp217
ag52
((lp218
g19
ag20
ag21
ag17
ag18
atRp219
aS'http://www5.vindy.com/news/2002/jun/05/warren-democratic-vice-chairman-moves-up-in/?print'
p220
aS'2015-06-20 11:33:58.413693'
p221
aa(lp222
I2
aI8
aI00
ag65
aI5
aI0
aI0
aI2
aI2
aI0
ag16
ag52
((ltRp223
ag52
((ltRp224
aS'http://www.governing.com/topics/politics/gov-what-cory-booker-accomplished.html'
p225
aS'2015-06-20 11:33:59.341175'
p226
aa(lp227
I2
aI9
aI00
ag65
aI5
aI1
aI5
aI27
aI2
aI0
ag16
ag52
((lp228
g21
atRp229
ag52
((lp230
g19
ag20
ag21
ag17
ag18
atRp231
aS'https://featherfoster.wordpress.com/'
p232
aS'2015-06-20 11:34:01.507557'
p233
aa(lp234
I2
aI10
aI00
ag65
aI5
aI2
aI5
aI16
aI2
aI0
ag16
ag52
((lp235
g20
ag21
atRp236
ag52
((lp237
g19
ag20
ag21
ag17
ag18
atRp238
aS'https://mccc-union.org/Newsletter/2014/Year_2014.html'
p239
aS'2015-06-20 11:34:02.074150'
p240
aa(lp241
I2
aI11
aI00
ag65
aI5
aI1
aI1
aI1
aI2
aI0
ag16
ag52
((lp242
Vmargaret
p243
atRp244
ag52
((lp245
g243
atRp246
aS'http://www.thestate.com/opinion/op-ed/article13902995.html'
p247
aS'2015-06-20 11:34:05.083966'
p248
aa(lp249
I2
aI12
aI00
ag65
aI5
aI0
aI5
aI30
aI2
aI0
ag16
ag52
((ltRp250
ag52
((lp251
g19
ag20
ag21
ag17
ag18
atRp252
aS'http://whatreallyhappened.com/WRHARTICLES/pearl/www.geocities.com/Pentagon/6315/fdr.html'
p253
aS'2015-06-20 11:34:05.285522'
p254
aa(lp255
I2
aI13
aI00
ag65
aI5
aI3
aI5
aI12
aI2
aI0
ag16
ag52
((lp256
g19
ag21
ag17
atRp257
ag52
((lp258
g19
ag20
ag21
ag17
ag18
atRp259
aS'http://www.afterschoolalliance.org/printPage.cfm?idPage=9F4A526D-1E0B-E803-CA3F51AF0FCBAF0A'
p260
aS'2015-06-20 11:34:05.481797'
p261
aa(lp262
I2
aI14
aI00
ag65
aI5
aI1
aI5
aI28
aI2
aI0
ag16
ag52
((lp263
g19
atRp264
ag52
((lp265
g19
ag20
ag21
ag17
ag18
atRp266
aS'https://en.wikipedia.org/wiki/Hillary_Clinton_presidential_campaign,_2008'
p267
aS'2015-06-20 11:34:06.877040'
p268
aa(lp269
I2
aI15
aI00
ag65
aI5
aI0
aI5
aI46
aI2
aI0
ag16
ag52
((ltRp270
ag52
((lp271
g19
ag20
ag21
ag17
ag18
atRp272
aS'https://en.wikipedia.org/?title=Ronald_Reagan'
p273
aS'2015-06-20 11:34:09.606481'
p274
aa(lp275
I2
aI16
aI00
ag65
aI5
aI3
aI3
aI7
aI2
aI0
ag16
ag52
((lp276
g19
ag17
ag18
atRp277
ag52
((lp278
g19
ag17
ag18
atRp279
aS'http://www.c-span.org/video/?4256-1/presidential-candidates-debate'
p280
aS'2015-06-20 11:34:13.092567'
p281
aa(lp282
I2
aI17
aI00
ag65
aI5
aI2
aI5
aI20
aI2
aI0
ag16
ag52
((lp283
g17
ag18
atRp284
ag52
((lp285
g19
ag20
ag21
ag17
ag18
atRp286
aS'http://billmoyers.com/segment/fighting-the-good-fight/'
p287
aS'2015-06-20 11:34:16.456878'
p288
aa(lp289
I2
aI18
aI00
ag65
aI5
aI2
aI5
aI14
aI2
aI0
ag16
ag52
((lp290
g21
ag17
atRp291
ag52
((lp292
g19
ag20
ag21
ag17
ag18
atRp293
aS'http://www.bloombergview.com/articles/2014-10-22/sarah-palin-s-sun-sets-in-alaska'
p294
aS'2015-06-20 11:34:18.945933'
p295
aa(lp296
I2
aI19
aI00
ag65
aI5
aI4
aI5
aI10
aI2
aI0
ag16
ag52
((lp297
g19
ag21
ag17
ag18
atRp298
ag52
((lp299
g19
ag20
ag21
ag17
ag18
atRp300
aS'http://www5.vindy.com/news/2002/jun/05/warren-party-gets-votes-of-confidence/?print'
p301
aS'2015-06-20 11:34:19.173022'
p302
aa(lp303
I2
aI20
aI00
ag65
aI5
aI1
aI5
aI19
aI2
aI0
ag16
ag52
((lp304
g20
atRp305
ag52
((lp306
g19
ag20
ag21
ag17
ag18
atRp307
aS'http://msa.maryland.gov/megafile/msa/speccol/sc3500/sc3520/001400/001486/html/1486extbio.html'
p308
aS'2015-06-20 11:34:19.456687'
p309
aa(lp310
I2
aI21
aI00
ag65
aI5
aI1
aI5
aI43
aI2
aI0
ag16
ag52
((lp311
g18
atRp312
ag52
((lp313
g19
ag20
ag21
ag17
ag18
atRp314
aS'https://en.wikipedia.org/?title=Herbert_Hoover'
p315
aS'2015-06-20 11:34:22.880648'
p316
aa(lp317
I2
aI22
aI00
ag65
aI5
aI0
aI5
aI26
aI2
aI0
ag16
ag52
((ltRp318
ag52
((lp319
g19
ag20
ag21
ag17
ag18
atRp320
aS'http://www.fastercures.org/about/staff-and-fellows/'
p321
aS'2015-06-20 11:34:24.206096'
p322
aa(lp323
I2
aI23
aI00
ag65
aI5
aI0
aI5
aI22
aI2
aI0
ag16
ag52
((ltRp324
ag52
((lp325
g19
ag20
ag21
ag17
ag18
atRp326
aS'http://histclo.com/pres/Ind20/kennedy.html'
p327
aS'2015-06-20 11:34:24.659687'
p328
aa(lp329
I2
aI24
aI00
ag65
aI5
aI1
aI1
aI3
aI2
aI0
ag16
ag52
((lp330
Vcandidate
p331
atRp332
ag52
((lp333
g331
atRp334
aS'http://nashvillecitypaper.com/content/city-news/metro-school-board-becomes-arena-political-class-biz-execs'
p335
aS'2015-06-20 11:34:28.270798'
p336
aa(lp337
I2
aI25
aI00
ag65
aI5
aI0
aI0
aI1
aI2
aI0
ag16
ag52
((ltRp338
ag52
((ltRp339
aS'http://www.newsmax.com/Newsfront/women-candidates-McDaniel-Mississippi/2014/03/13/id/559479/'
p340
aS'2015-06-20 11:34:30.508753'
p341
aa(lp342
I2
aI26
aI00
ag65
aI5
aI2
aI5
aI19
aI2
aI0
ag16
ag52
((lp343
g19
ag18
atRp344
ag52
((lp345
g19
ag20
ag21
ag17
ag18
atRp346
aS'https://yourwardnews.wordpress.com/2014/08/18/james-sears-in-for-ward-32-toronto-city-council-mary-margaret-mcmahon-out/'
p347
aS'2015-06-20 11:34:33.294177'
p348
aa(lp349
I2
aI27
aI00
ag65
aI5
aI2
aI2
aI2
aI2
aI0
ag16
ag52
((lp350
Vcandidate
p351
aVvice
p352
atRp353
ag52
((lp354
g351
ag352
atRp355
aS'http://www.dailykos.com/story/2005/02/09/91093/-A-Personal-Message-from-DNC-Vice-Chair-Candidate-Susie-Turnbull'
p356
aS'2015-06-20 11:34:35.034741'
p357
aa(lp358
I2
aI28
aI00
ag65
aI5
aI1
aI5
aI21
aI2
aI0
ag16
ag52
((lp359
g18
atRp360
ag52
((lp361
g19
ag20
ag21
ag17
ag18
atRp362
aS'http://www.nytimes.com/2013/04/09/world/europe/former-prime-minister-margaret-thatcher-of-britain-has-died.html?pagewanted=all'
p363
aS'2015-06-20 11:34:38.300059'
p364
aa(lp365
I2
aI29
aI00
ag65
aI5
aI1
aI5
aI31
aI2
aI0
ag16
ag52
((lp366
g19
atRp367
ag52
((lp368
g19
ag20
ag21
ag17
ag18
atRp369
aS'http://www.firstladies.org/biographies/firstladies.aspx?biography=42'
p370
aS'2015-06-20 11:34:42.298906'
p371
aa(lp372
I2
aI30
aI00
ag65
aI5
aI2
aI5
aI19
aI2
aI0
ag16
ag52
((lp373
g19
ag20
atRp374
ag52
((lp375
g19
ag20
ag21
ag17
ag18
atRp376
aS'http://faculty-senate.buffalo.edu/minutes/executivecommittee/120397.htm'
p377
aS'2015-06-20 11:34:42.655450'
p378
aa(lp379
I2
aI31
aI00
ag65
aI5
aI0
aI0
aI4
aI2
aI0
ag16
ag52
((ltRp380
ag52
((ltRp381
aS'http://www.mv-voice.com/news/2012/10/12/voter-guide-city-council-race'
p382
aS'2015-06-20 11:34:45.991650'
p383
aa(lp384
I2
aI32
aI00
ag65
aI5
aI0
aI5
aI15
aI2
aI0
ag16
ag52
((ltRp385
ag52
((lp386
g19
ag20
ag21
ag17
ag18
atRp387
aS'http://www.chicagotribune.com/news/opinion/commentary/ct-sarah-palin-backlash-alaska-brawl-perspec-1024-20141023-story.html'
p388
aS'2015-06-20 11:34:48.518632'
p389
aa(lp390
I2
aI33
aI00
ag65
aI5
aI1
aI5
aI33
aI2
aI0
ag16
ag52
((lp391
g20
atRp392
ag52
((lp393
g19
ag20
ag21
ag17
ag18
atRp394
aS'https://en.wikipedia.org/wiki/Mary_Rose'
p395
aS'2015-06-20 11:34:49.691250'
p396
aa(lp397
I2
aI34
aI00
ag65
aI5
aI2
aI5
aI13
aI2
aI0
ag16
ag52
((lp398
g21
ag18
atRp399
ag52
((lp400
g19
ag20
ag21
ag17
ag18
atRp401
aS'http://www.aaup-ui.org/Documents/SemesterReports/presidents-semester-sp-06.html'
p402
aS'2015-06-20 11:34:49.973848'
p403
aa(lp404
I2
aI35
aI00
ag65
aI5
aI1
aI5
aI19
aI2
aI0
ag16
ag52
((lp405
g20
atRp406
ag52
((lp407
g19
ag20
ag21
ag17
ag18
atRp408
aS'http://pasleybrothers.com/jeff/writings/showing_the_scars.htm'
p409
aS'2015-06-20 11:34:50.464161'
p410
aa(lp411
I2
aI36
aI00
ag65
aI5
aI2
aI5
aI15
aI2
aI0
ag16
ag52
((lp412
g19
ag17
atRp413
ag52
((lp414
g19
ag20
ag21
ag17
ag18
atRp415
aS'http://www.pbs.org/newshour/bb/world-july-dec12-iraq2_09-10/'
p416
aS'2015-06-20 11:34:54.173137'
p417
aa(lp418
I2
aI37
aI00
ag65
aI5
aI2
aI5
aI34
aI2
aI0
ag16
ag52
((lp419
g20
ag17
atRp420
ag52
((lp421
g19
ag20
ag21
ag17
ag18
atRp422
aS'http://www.pbs.org/wgbh/americanexperience/features/transcript/eleanor-transcript/'
p423
aS'2015-06-20 11:34:55.546899'
p424
aa(lp425
I2
aI38
aI00
ag65
aI5
aI2
aI5
aI20
aI2
aI0
ag16
ag52
((lp426
g19
ag17
atRp427
ag52
((lp428
g19
ag20
ag21
ag17
ag18
atRp429
aS'http://asuonline.asu.edu/about-us/staff'
p430
aS'2015-06-20 11:34:59.507639'
p431
aa(lp432
I2
aI39
aI00
ag65
aI5
aI2
aI5
aI15
aI2
aI0
ag16
ag52
((lp433
g20
ag18
atRp434
ag52
((lp435
g19
ag20
ag21
ag17
ag18
atRp436
aS'http://apamsa.org/about-2/leadership/national-board/'
p437
aS'2015-06-20 11:35:01.680428'
p438
aa(lp439
I2
aI40
aI00
ag65
aI5
aI2
aI5
aI19
aI2
aI0
ag16
ag52
((lp440
g21
ag17
atRp441
ag52
((lp442
g19
ag20
ag21
ag17
ag18
atRp443
aS'http://www.theaustinbulldog.org/index.php?option=com_content&view=article&id=94%3Abackground-investigations-travis-county&catid=3%3Amain-articles&Itemid=1'
p444
aS'2015-06-20 11:35:04.241339'
p445
aa(lp446
I2
aI41
aI00
ag65
aI5
aI3
aI5
aI10
aI2
aI0
ag16
ag52
((lp447
g19
ag20
ag17
atRp448
ag52
((lp449
g19
ag20
ag21
ag17
ag18
atRp450
aS'http://www.wgrz.com/story/news/education/2014/02/28/teacher-exam-new-york-state/5904025/'
p451
aS'2015-06-20 11:35:08.862854'
p452
aa(lp453
I2
aI42
aI00
ag65
aI5
aI2
aI5
aI21
aI2
aI0
ag16
ag52
((lp454
g20
ag17
atRp455
ag52
((lp456
g19
ag20
ag21
ag17
ag18
atRp457
aS'https://www.cs.vt.edu/aggregator/sources/1'
p458
aS'2015-06-20 11:35:10.084243'
p459
aa(lp460
I2
aI43
aI00
ag65
aI5
aI1
aI5
aI18
aI2
aI0
ag16
ag52
((lp461
g19
atRp462
ag52
((lp463
g19
ag20
ag21
ag17
ag18
atRp464
aS'http://www.martincountydemocrats.org/2008/docs_articles/080905palin_dean.html'
p465
aS'2015-06-20 11:35:10.413989'
p466
aa(lp467
I2
aI44
aI00
ag65
aI5
aI1
aI5
aI20
aI2
aI0
ag16
ag52
((lp468
g19
atRp469
ag52
((lp470
g19
ag20
ag21
ag17
ag18
atRp471
aS'http://www.washingtonpost.com/wp-srv/politics/daily/may98/goldwater30.htm'
p472
aS'2015-06-20 11:35:10.653947'
p473
aa(lp474
I2
aI45
aI00
ag65
aI5
aI2
aI5
aI11
aI2
aI0
ag16
ag52
((lp475
g19
ag20
atRp476
ag52
((lp477
g19
ag20
ag21
ag17
ag18
atRp478
aS'http://www.newrepublic.com/article/114856/hillary-clinton-2016-primary-media-has-soured-her-odds-havent'
p479
aS'2015-06-20 11:35:13.461798'
p480
aa(lp481
I2
aI46
aI00
ag65
aI5
aI2
aI5
aI12
aI2
aI0
ag16
ag52
((lp482
g21
ag17
atRp483
ag52
((lp484
g19
ag20
ag21
ag17
ag18
atRp485
aS'http://www.chicagobusiness.com/article/19960127/ISSUE01/10007981?template=printart'
p486
aS'2015-06-20 11:35:17.087661'
p487
aa(lp488
I2
aI47
aI00
ag65
aI5
aI0
aI0
aI1
aI2
aI0
ag16
ag52
((ltRp489
ag52
((ltRp490
aS'http://www.newsmax.com/MargaretCarlson/Alaska-Mark-Begich-Sarah-Palin-2014-Midterm-Elections/2014/10/23/id/602623/'
p491
aS'2015-06-20 11:35:19.180988'
p492
aa(lp493
I2
aI48
aI00
ag65
aI5
aI1
aI5
aI17
aI2
aI0
ag16
ag52
((lp494
g21
atRp495
ag52
((lp496
g19
ag20
ag21
ag17
ag18
atRp497
aS'http://nmcompass.com/the-race-against-the-clock-for-public-financing/'
p498
aS'2015-06-20 11:35:21.257847'
p499
aa(lp500
I2
aI49
aI00
ag65
aI5
aI2
aI5
aI21
aI2
aI0
ag16
ag52
((lp501
g20
ag18
atRp502
ag52
((lp503
g19
ag20
ag21
ag17
ag18
atRp504
aS'https://followingworldchange.wordpress.com/2013/05/13/green-party-candidate-for-president-dr-jill-stein-challenges-elite-rule/'
p505
aS'2015-06-20 11:35:22.237222'
p506
aa(lp507
I2
aI50
aI00
ag65
aI5
aI0
aI5
aI30
aI2
aI0
ag16
ag52
((ltRp508
ag52
((lp509
g19
ag20
ag21
ag17
ag18
atRp510
aS'http://blogs.suntimes.com/sweet/2008/09/sarah_palin_gop_convention_spe.html'
p511
aS'2015-06-20 11:35:26.005134'
p512
aa(lp513
I2
aI51
aI00
ag65
aI5
aI1
aI1
aI2
aI2
aI0
ag16
ag52
((lp514
Vcandidate
p515
atRp516
ag52
((lp517
g515
atRp518
aS'http://www.philadelphiaweekly.com/news-and-opinion/162766556.html'
p519
aS'2015-06-20 11:35:28.913600'
p520
aa(lp521
I2
aI52
aI00
ag65
aI5
aI3
aI5
aI10
aI2
aI0
ag16
ag52
((lp522
g20
ag21
ag18
atRp523
ag52
((lp524
g19
ag20
ag21
ag17
ag18
atRp525
aS'http://www.philadelphiaweekly.com/news-and-opinion/news/162766556.html'
p526
aS'2015-06-20 11:35:31.575176'
p527
aa(lp528
I2
aI53
aI00
ag65
aI5
aI0
aI0
aI3
aI2
aI0
ag16
ag52
((ltRp529
ag52
((ltRp530
aS'http://chicago.suntimes.com/chicago-politics/7/71/344013/election-2015-39th-ward-alderman-candidates-discuss-issues'
p531
aS'2015-06-20 11:35:32.697787'
p532
aa(lp533
I2
aI54
aI00
ag65
aI5
aI2
aI5
aI18
aI2
aI0
ag16
ag52
((lp534
g21
ag17
atRp535
ag52
((lp536
g19
ag20
ag21
ag17
ag18
atRp537
aS'http://caltonjock.com/2014/10/12/margaret-curran-engages-mouth-before-brain-and-its-painful-for-the-viewer/'
p538
aS'2015-06-20 11:35:34.281089'
p539
aa(lp540
I2
aI55
aI00
ag65
aI5
aI1
aI5
aI18
aI2
aI0
ag16
ag52
((lp541
g19
atRp542
ag52
((lp543
g19
ag20
ag21
ag17
ag18
atRp544
aS'http://www.post-gazette.com/opinion/Op-Ed/2014/10/26/Margaret-Carlson-Palin-s-sun-is-setting-in-Alaska/stories/201410260064'
p545
aS'2015-06-20 11:35:40.327084'
p546
aa(lp547
I2
aI56
aI00
ag65
aI5
aI1
aI5
aI26
aI2
aI0
ag16
ag52
((lp548
g18
atRp549
ag52
((lp550
g19
ag20
ag21
ag17
ag18
atRp551
aS'http://www.historynet.com/andrew-jackson'
p552
aS'2015-06-20 11:35:45.336598'
p553
aa(lp554
I2
aI57
aI00
ag65
aI5
aI1
aI1
aI2
aI2
aI0
ag16
ag52
((lp555
Vmargaret
p556
atRp557
ag52
((lp558
g556
atRp559
aS'http://newsitem.com/margaret-thatcher-iron-lady-dead-at-87-1.1469709'
p560
aS'2015-06-20 11:35:46.421561'
p561
aa(lp562
I2
aI58
aI00
ag65
aI5
aI3
aI5
aI10
aI2
aI0
ag16
ag52
((lp563
g20
ag21
ag17
atRp564
ag52
((lp565
g19
ag20
ag21
ag17
ag18
atRp566
aS'http://westmichiganconference.org/news/detail/3651'
p567
aS'2015-06-20 11:35:47.336776'
p568
aa(lp569
I2
aI59
aI00
ag65
aI5
aI1
aI5
aI10
aI2
aI0
ag16
ag52
((lp570
g20
atRp571
ag52
((lp572
g19
ag20
ag21
ag17
ag18
atRp573
aS'http://www.dpo.org/category/county/multnomah?page=16'
p574
aS'2015-06-20 11:35:50.259185'
p575
aa(lp576
I2
aI60
aI00
ag65
aI5
aI2
aI5
aI22
aI2
aI0
ag16
ag52
((lp577
g21
ag18
atRp578
ag52
((lp579
g19
ag20
ag21
ag17
ag18
atRp580
aS'http://www.firstladies.org/biographies/firstladies.aspx?biography=7'
p581
aS'2015-06-20 11:35:50.648953'
p582
aa(lp583
I2
aI61
aI00
ag65
aI5
aI2
aI5
aI13
aI2
aI0
ag16
ag52
((lp584
g19
ag20
atRp585
ag52
((lp586
g19
ag20
ag21
ag17
ag18
atRp587
aS'http://www.afterschoolalliance.org/aboutUsBoard.cfm'
p588
aS'2015-06-20 11:35:53.186261'
p589
aa(lp590
I2
aI62
aI00
ag65
aI5
aI0
aI5
aI26
aI2
aI0
ag16
ag52
((ltRp591
ag52
((lp592
g19
ag20
ag21
ag17
ag18
atRp593
aS'http://www.salon.com/2012/08/13/how_not_to_pick_a_vice_president/'
p594
aS'2015-06-20 11:35:58.654113'
p595
aa(lp596
I2
aI63
aI00
ag65
aI5
aI1
aI5
aI18
aI2
aI0
ag16
ag52
((lp597
g21
atRp598
ag52
((lp599
g19
ag20
ag21
ag17
ag18
atRp600
aS'http://library.cqpress.com/cqalmanac/document.php?id=cqal56-1349331'
p601
aS'2015-06-20 11:35:59.654695'
p602
aa(lp603
I2
aI64
aI00
ag65
aI5
aI2
aI5
aI24
aI2
aI0
ag16
ag52
((lp604
g20
ag18
atRp605
ag52
((lp606
g19
ag20
ag21
ag17
ag18
atRp607
aS'http://saraheckhardt.com/news/news-articles/'
p608
aS'2015-06-20 11:36:02.848499'
p609
aa(lp610
I2
aI65
aI00
ag65
aI5
aI2
aI5
aI19
aI2
aI0
ag16
ag52
((lp611
g20
ag18
atRp612
ag52
((lp613
g19
ag20
ag21
ag17
ag18
atRp614
aS'http://uselectionatlas.org/FORUM/index.php?topic=176120.20;wap2'
p615
aS'2015-06-20 11:36:03.282368'
p616
aa(lp617
I2
aI66
aI00
ag65
aI5
aI2
aI5
aI25
aI2
aI0
ag16
ag52
((lp618
g20
ag18
atRp619
ag52
((lp620
g19
ag20
ag21
ag17
ag18
atRp621
aS'https://www.facebook.com/pages/Russell-Begaye-Navajo-Nation-President-2014/302132179938953'
p622
aS'2015-06-20 11:36:05.514231'
p623
aa(lp624
I2
aI67
aI00
ag65
aI5
aI1
aI5
aI13
aI2
aI0
ag16
ag52
((lp625
g20
atRp626
ag52
((lp627
g19
ag20
ag21
ag17
ag18
atRp628
aS'http://students.brown.edu/College_Hill_Independent/?p=67'
p629
aS'2015-06-20 11:36:06.187060'
p630
aa(lp631
I2
aI68
aI00
ag65
aI5
aI0
aI0
aI0
aI2
aI0
ag16
ag52
((ltRp632
ag52
((ltRp633
aS'http://www.biztimes.com/apps/pbcs.dll/article?avis=MB&date=20080205&category=ENEWSLETTERS02&lopenr=302059999&Ref=AR/&template=printart'
p634
aS'2015-06-20 11:36:13.255346'
p635
aa(lp636
I2
aI69
aI00
ag65
aI5
aI2
aI5
aI32
aI2
aI0
ag16
ag52
((lp637
g19
ag20
atRp638
ag52
((lp639
g19
ag20
ag21
ag17
ag18
atRp640
aS'http://www.vanityfair.com/news/2010/10/sarah-palin-201010'
p641
aS'2015-06-20 11:36:15.136650'
p642
aa(lp643
I2
aI70
aI00
ag65
aI5
aI0
aI5
aI32
aI2
aI0
ag16
ag52
((ltRp644
ag52
((lp645
g19
ag20
ag21
ag17
ag18
atRp646
aS'http://www.thirdworldtraveler.com/Ronald_Reagan/Ronald_Reagan_Myth.html'
p647
aS'2015-06-20 11:36:16.224431'
p648
aa(lp649
I2
aI71
aI00
ag65
aI5
aI0
aI5
aI32
aI2
aI0
ag16
ag52
((ltRp650
ag52
((lp651
g19
ag20
ag21
ag17
ag18
atRp652
aS'https://en.wikipedia.org/wiki/Iain_Duncan_Smith'
p653
aS'2015-06-20 11:36:19.287757'
p654
aa(lp655
I2
aI72
aI00
ag65
aI5
aI0
aI0
aI0
aI2
aI0
ag16
ag52
((ltRp656
ag52
((ltRp657
aS'http://articles.baltimoresun.com/keyword/executive-assistant'
p658
aS'2015-06-20 11:36:26.336459'
p659
aa(lp660
I2
aI73
aI00
ag65
aI5
aI3
aI5
aI23
aI2
aI0
ag16
ag52
((lp661
g19
ag20
ag18
atRp662
ag52
((lp663
g19
ag20
ag21
ag17
ag18
atRp664
aS'http://www.barnesandnoble.com/w/going-rogue-sarah-palin/1100151815?ean=9780061939891'
p665
aS'2015-06-20 11:36:27.790629'
p666
aa(lp667
I2
aI74
aI00
ag65
aI5
aI2
aI5
aI22
aI2
aI0
ag16
ag52
((lp668
g19
ag18
atRp669
ag52
((lp670
g19
ag20
ag21
ag17
ag18
atRp671
aS'http://unifor433.org/features/our-history/'
p672
aS'2015-06-20 11:36:29.752425'
p673
aa(lp674
I2
aI75
aI00
ag65
aI5
aI0
aI0
aI0
aI2
aI0
ag16
ag52
((ltRp675
ag52
((ltRp676
aS'https://www.shg.org/?q=content/hall-fame-0'
p677
aS'2015-06-20 11:36:30.360697'
p678
aa(lp679
I2
aI76
aI00
ag65
aI5
aI1
aI5
aI28
aI2
aI0
ag16
ag52
((lp680
g17
atRp681
ag52
((lp682
g19
ag20
ag21
ag17
ag18
atRp683
aS'http://sustainabilitysummit.mit.edu/program/2013'
p684
aS'2015-06-20 11:36:37.242519'
p685
aa(lp686
I2
aI77
aI00
ag65
aI5
aI1
aI1
aI1
aI2
aI0
ag16
ag52
((lp687
Vmargaret
p688
atRp689
ag52
((lp690
g688
atRp691
aS'http://www.mrc.org/biasalerts/margaret-carlson-afraid-gop-will-hold-house-11042002-cyberalert'
p692
aS'2015-06-20 11:36:39.310006'
p693
aa(lp694
I2
aI78
aI00
ag65
aI5
aI0
aI0
aI0
aI2
aI0
ag16
ag52
((ltRp695
ag52
((ltRp696
aS'http://wweek.com/portland/article-23383-one_thing_we_can_all_agree_on.html?current_page=4'
p697
aS'2015-06-20 11:36:40.823714'
p698
aa(lp699
I2
aI79
aI00
ag65
aI5
aI0
aI0
aI1
aI2
aI0
ag16
ag52
((ltRp700
ag52
((ltRp701
aS'http://www.motherjones.com/politics/2014/05/koch-brothers-family-history-sons-of-wichita'
p702
aS'2015-06-20 11:36:45.670989'
p703
aa(lp704
I2
aI80
aI00
ag65
aI5
aI3
aI5
aI25
aI2
aI0
ag16
ag52
((lp705
g19
ag17
ag18
atRp706
ag52
((lp707
g19
ag20
ag21
ag17
ag18
atRp708
aS'http://vancouverea.org/history-of-vea/'
p709
aS'2015-06-20 11:36:48.215615'
p710
aa(lp711
I2
aI81
aI00
ag65
aI5
aI1
aI5
aI31
aI2
aI0
ag16
ag52
((lp712
g18
atRp713
ag52
((lp714
g19
ag20
ag21
ag17
ag18
atRp715
aS'https://en.wikipedia.org/wiki/Jesse_Jackson,_Jr.'
p716
aS'2015-06-20 11:36:51.701436'
p717
aa(lp718
I2
aI82
aI00
ag65
aI5
aI3
aI5
aI13
aI2
aI0
ag16
ag52
((lp719
g19
ag17
ag18
atRp720
ag52
((lp721
g19
ag20
ag21
ag17
ag18
atRp722
aS'http://www.aboutnorthgeorgia.com/ang/Clinton,_Ferraro_and_Obama'
p723
aS'2015-06-20 11:36:53.436176'
p724
aa(lp725
I2
aI83
aI00
ag65
aI5
aI1
aI1
aI3
aI2
aI0
ag16
ag52
((lp726
Vcandidate
p727
atRp728
ag52
((lp729
g727
atRp730
aS'http://www.ontheissues.org/Celeb/George_Bush_Sr__Principles_+_Values.htm'
p731
aS'2015-06-20 11:36:54.035785'
p732
aa(lp733
I2
aI84
aI00
ag65
aI5
aI1
aI1
aI5
aI2
aI0
ag16
ag52
((lp734
Vcandidate
p735
atRp736
ag52
((lp737
g735
atRp738
aS'http://www.charlestoncitypaper.com/TheBattery/archives/2014/04/14/superintendent-candidate-thinks-theater-piece-is-lesbian-recruitment-seminar'
p739
aS'2015-06-20 11:36:55.186597'
p740
aa(lp741
I2
aI85
aI00
ag65
aI5
aI0
aI0
aI0
aI2
aI0
ag16
ag52
((ltRp742
ag52
((ltRp743
aS'http://www.wsba.org/About-WSBA/Governance/Board-of-Governors/~/media/Files/About%20WSBA/Governance/BOG%20Minutes/2012%202013/Public%20Session%20Minutes%20%20April%202627%202013.ashx'
p744
aS'2015-06-20 11:36:55.400560'
p745
aa(lp746
I2
aI86
aI00
ag65
aI5
aI0
aI5
aI21
aI2
aI0
ag16
ag52
((ltRp747
ag52
((lp748
g19
ag20
ag21
ag17
ag18
atRp749
aS'http://www.westford.org/lwv/?page_id=809'
p750
aS'2015-06-20 11:36:56.329766'
p751
aa(lp752
I2
aI87
aI00
ag65
aI5
aI0
aI0
aI2
aI2
aI0
ag16
ag52
((ltRp753
ag52
((ltRp754
aS'http://www.workforce.com/articles/20719-perks-at-work'
p755
aS'2015-06-20 11:36:57.168108'
p756
aa(lp757
I2
aI88
aI00
ag65
aI5
aI3
aI5
aI16
aI2
aI0
ag16
ag52
((lp758
g19
ag20
ag21
atRp759
ag52
((lp760
g19
ag20
ag21
ag17
ag18
atRp761
aS'http://www.dailyhowler.com/dh070203.shtml'
p762
aS'2015-06-20 11:36:57.464217'
p763
aa(lp764
I2
aI89
aI00
ag65
aI5
aI3
aI5
aI10
aI2
aI0
ag16
ag52
((lp765
g19
ag21
ag17
atRp766
ag52
((lp767
g19
ag20
ag21
ag17
ag18
atRp768
aS'http://prezi.com/3azlgmlfovo6/constitution/'
p769
aS'2015-06-20 11:37:00.990287'
p770
aa(lp771
I2
aI90
aI00
ag65
aI5
aI2
aI5
aI14
aI2
aI0
ag16
ag52
((lp772
g20
ag21
atRp773
ag52
((lp774
g19
ag20
ag21
ag17
ag18
atRp775
aS'https://www.plagiarismtoday.com/2012/10/23/why-havent-there-been-more-plagiarism-scandals-election/'
p776
aS'2015-06-20 11:37:08.077630'
p777
aa(lp778
I2
aI91
aI00
ag65
aI5
aI1
aI5
aI33
aI2
aI0
ag16
ag52
((lp779
g20
atRp780
ag52
((lp781
g19
ag20
ag21
ag17
ag18
atRp782
aS'http://www.cato.org/pubs/pas/pa238.html'
p783
aS'2015-06-20 11:37:10.643626'
p784
aa(lp785
I2
aI92
aI00
ag65
aI5
aI1
aI5
aI18
aI2
aI0
ag16
ag52
((lp786
g19
atRp787
ag52
((lp788
g19
ag20
ag21
ag17
ag18
atRp789
aS'https://www.gop.com/did-obama-turn-a-blind-eye-to-solyndra-warnings/'
p790
aS'2015-06-20 11:37:13.726008'
p791
aa(lp792
I2
aI93
aI00
ag65
aI5
aI2
aI5
aI22
aI2
aI0
ag16
ag52
((lp793
g17
ag18
atRp794
ag52
((lp795
g19
ag20
ag21
ag17
ag18
atRp796
aS'http://www.historyisaweapon.com/defcon1/zinn17explo.html'
p797
aS'2015-06-20 11:37:14.149435'
p798
aa(lp799
I2
aI94
aI00
ag65
aI5
aI0
aI5
aI30
aI2
aI0
ag16
ag52
((ltRp800
ag52
((lp801
g19
ag20
ag21
ag17
ag18
atRp802
aS'http://althouse.blogspot.com/2008/06/lets-talk-about-potential-vp-candidate.html'
p803
aS'2015-06-20 11:37:16.279211'
p804
aa(lp805
I2
aI95
aI00
ag65
aI5
aI2
aI5
aI17
aI2
aI0
ag16
ag52
((lp806
g20
ag17
atRp807
ag52
((lp808
g19
ag20
ag21
ag17
ag18
atRp809
aS'http://www.doi.gov/pmb/cadr/programs/native/sws/Presenter-Bios.cfm'
p810
aS'2015-06-20 11:37:19.169890'
p811
aa(lp812
I2
aI96
aI00
ag65
aI5
aI2
aI5
aI11
aI2
aI0
ag16
ag52
((lp813
g21
ag18
atRp814
ag52
((lp815
g19
ag20
ag21
ag17
ag18
atRp816
aS'http://www.detroitconference.org/news/detail/1495'
p817
aS'2015-06-20 11:37:19.783639'
p818
aa(lp819
I2
aI97
aI00
ag65
aI5
aI2
aI5
aI17
aI2
aI0
ag16
ag52
((lp820
g19
ag17
atRp821
ag52
((lp822
g19
ag20
ag21
ag17
ag18
atRp823
aS'https://www.port-orange.org/documents/meetings/regular/2014-07-29/minutes.htm'
p824
aS'2015-06-20 11:37:20.440846'
p825
aa(lp826
I2
aI98
aI00
ag65
aI5
aI3
aI4
aI12
aI2
aI0
ag16
ag52
((lp827
g20
ag17
ag18
atRp828
ag52
((lp829
g19
ag20
ag17
ag18
atRp830
aS'https://news.vice.com/article/should-we-stay-or-should-we-go-britain-to-decide-on-its-european-future'
p831
aS'2015-06-20 11:37:23.999127'
p832
aa(lp833
I2
aI99
aI00
ag65
aI5
aI2
aI5
aI18
aI2
aI0
ag16
ag52
((lp834
g21
ag17
atRp835
ag52
((lp836
g19
ag20
ag21
ag17
ag18
atRp837
aS'http://www.greenpartywatch.org/tag/presidential-campaign-2012/'
p838
aS'2015-06-20 11:37:28.931119'
p839
aa(lp840
I2
aI100
aI00
ag65
aI5
aI0
aI5
aI24
aI2
aI0
ag16
ag52
((ltRp841
ag52
((lp842
g19
ag20
ag21
ag17
ag18
atRp843
aS'http://www.truth-out.org/opinion/item/16102-another-government-is-necessary-the-people-can-rule-better-than-the-elites'
p844
aS'2015-06-20 11:37:32.998794'
p845
aa(lp846
I2
aI101
aI00
ag65
aI5
aI1
aI5
aI24
aI2
aI0
ag16
ag52
((lp847
g17
atRp848
ag52
((lp849
g19
ag20
ag21
ag17
ag18
atRp850
aS'http://academic-senate.berkeley.edu/committees/acfr/advancement-and-promotion-junior-faculty-uc-berkeley'
p851
aS'2015-06-20 11:37:36.009320'
p852
aa(lp853
I2
aI102
aI00
ag65
aI5
aI0
aI0
aI0
aI2
aI0
ag16
ag52
((ltRp854
ag52
((ltRp855
aS'https://www.famu.edu/facultysenate/Dec%20%209%202013--Faculty%20Senate%20Meeting%20Minutes.docx'
p856
aS'2015-06-20 11:37:36.346000'
p857
aa(lp858
I2
aI103
aI00
ag65
aI5
aI2
aI5
aI17
aI2
aI0
ag16
ag52
((lp859
g17
ag18
atRp860
ag52
((lp861
g19
ag20
ag21
ag17
ag18
atRp862
aS'http://writ.lp.findlaw.com/dean/20080905.html'
p863
aS'2015-06-20 11:37:40.266769'
p864
aa(lp865
I2
aI104
aI00
ag65
aI5
aI0
aI5
aI26
aI2
aI0
ag16
ag52
((ltRp866
ag52
((lp867
g19
ag20
ag21
ag17
ag18
atRp868
aS'http://www.publicintegrity.org/2014/04/15/14537/super-pac-leaders-score-perks-political-donations'
p869
aS'2015-06-20 11:37:44.509257'
p870
aa(lp871
I2
aI105
aI00
ag65
aI5
aI0
aI5
aI26
aI2
aI0
ag16
ag52
((ltRp872
ag52
((lp873
g19
ag20
ag21
ag17
ag18
atRp874
aS'http://carlanthonyonline.com/2012/07/01/keep-grandma-upstairs-jackie-kennedys-family-secrets-the-lie-her-mother-told/'
p875
aS'2015-06-20 11:37:52.455430'
p876
aa(lp877
I2
aI106
aI00
ag65
aI5
aI0
aI0
aI0
aI2
aI0
ag16
ag52
((ltRp878
ag52
((ltRp879
aS'http://www.mpc.edu/Home/ShowDocument?id=1516'
p880
aS'2015-06-20 11:37:52.716314'
p881
aa(lp882
I2
aI107
aI00
ag65
aI5
aI2
aI5
aI16
aI2
aI0
ag16
ag52
((lp883
g19
ag20
atRp884
ag52
((lp885
g19
ag20
ag21
ag17
ag18
atRp886
aS'http://www.syossetta.org/member.html'
p887
aS'2015-06-20 11:37:53.328031'
p888
aa(lp889
I2
aI108
aI00
ag65
aI5
aI2
aI5
aI21
aI2
aI0
ag16
ag52
((lp890
g19
ag20
atRp891
ag52
((lp892
g19
ag20
ag21
ag17
ag18
atRp893
aS'http://www.eoearth.org/article/Mainstream_economics_and_the_political_process'
p894
aS'2015-06-20 11:37:57.722975'
p895
aa(lp896
I2
aI109
aI00
ag65
aI5
aI0
aI0
aI5
aI2
aI0
ag16
ag52
((ltRp897
ag52
((ltRp898
aS'http://www.charlestoncitypaper.com/charleston/what-if-nikki-haley-doesnt-pass-on-2016/Content?oid=4700355'
p899
aS'2015-06-20 11:37:58.631843'
p900
aa(lp901
I2
aI110
aI00
ag65
aI5
aI2
aI5
aI17
aI2
aI0
ag16
ag52
((lp902
g20
ag21
atRp903
ag52
((lp904
g19
ag20
ag21
ag17
ag18
atRp905
aS'http://www.vcreporter.com/cms/story/detail/libertarians_hit_the_ground_running/9902/'
p906
aS'2015-06-20 11:38:00.208713'
p907
aa(lp908
I2
aI111
aI00
ag65
aI5
aI1
aI5
aI25
aI2
aI0
ag16
ag52
((lp909
g18
atRp910
ag52
((lp911
g19
ag20
ag21
ag17
ag18
atRp912
aS'http://www.uic.edu/orgs/cwluherstory/jofreeman/polhistory/1912.htm'
p913
aS'2015-06-20 11:38:02.548364'
p914
aa(lp915
I2
aI112
aI00
ag65
aI5
aI1
aI5
aI21
aI2
aI0
ag16
ag52
((lp916
g19
atRp917
ag52
((lp918
g19
ag20
ag21
ag17
ag18
atRp919
aS'http://ahiworld.org/media-center/press-releases/2011/1499-college-students-complete-third-annual-ahif-foreign-policy-trip-to-greece-and-cyprus.html'
p920
aS'2015-06-20 11:38:04.758750'
p921
aa(lp922
I2
aI113
aI00
ag65
aI5
aI2
aI5
aI17
aI2
aI0
ag16
ag52
((lp923
g19
ag21
atRp924
ag52
((lp925
g19
ag20
ag21
ag17
ag18
atRp926
aS'https://unqualifiedreservations.wordpress.com/2008/09/01/sarah-palin-the-proletarian-candidate/'
p927
aS'2015-06-20 11:38:05.415555'
p928
aa(lp929
I2
aI114
aI00
ag65
aI5
aI1
aI1
aI3
aI2
aI0
ag16
ag52
((lp930
Vcandidate
p931
atRp932
ag52
((lp933
g931
atRp934
aS'http://www.philadelphiaweekly.com/news-and-opinion/news/162766556.html?printView=y'
p935
aS'2015-06-20 11:38:05.793924'
p936
aa(lp937
I2
aI115
aI00
ag65
aI5
aI1
aI5
aI28
aI2
aI0
ag16
ag52
((lp938
g17
atRp939
ag52
((lp940
g19
ag20
ag21
ag17
ag18
atRp941
aS'http://www.salon.com/2014/08/02/shockingly_sleazy_gop_governors/'
p942
aS'2015-06-20 11:38:14.855893'
p943
aa(lp944
I2
aI116
aI00
ag65
aI5
aI3
aI5
aI19
aI2
aI0
ag16
ag52
((lp945
g19
ag20
ag18
atRp946
ag52
((lp947
g19
ag20
ag21
ag17
ag18
atRp948
aS'https://presidentialcampaignselectionsreference.wordpress.com/overviews/20th-century/1992-overview/'
p949
aS'2015-06-20 11:38:18.843786'
p950
aa(lp951
I2
aI117
aI00
ag65
aI5
aI0
aI5
aI23
aI2
aI0
ag16
ag52
((ltRp952
ag52
((lp953
g19
ag20
ag21
ag17
ag18
atRp954
aS'http://www.newleaderscouncil.org/2012_nlc_fellows_boston'
p955
aS'2015-06-20 11:38:21.650337'
p956
aa(lp957
I2
aI118
aI00
ag65
aI5
aI2
aI5
aI20
aI2
aI0
ag16
ag52
((lp958
g20
ag17
atRp959
ag52
((lp960
g19
ag20
ag21
ag17
ag18
atRp961
aS'http://www.unifreethought.com/author/margaret-nervig/'
p962
aS'2015-06-20 11:38:28.104236'
p963
aa(lp964
I2
aI119
aI00
ag65
aI5
aI1
aI5
aI48
aI2
aI0
ag16
ag52
((lp965
g18
atRp966
ag52
((lp967
g19
ag20
ag21
ag17
ag18
atRp968
aS'http://www.scstatehouse.gov/sess119_2011-2012/hj11/20110113.htm'
p969
aS'2015-06-20 11:38:29.050988'
p970
aa(lp971
I2
aI120
aI00
ag65
aI5
aI3
aI5
aI26
aI2
aI0
ag16
ag52
((lp972
g20
ag21
ag17
atRp973
ag52
((lp974
g19
ag20
ag21
ag17
ag18
atRp975
aS'http://www.sageamericanhistory.net/jacksonian/topics/jacksoniandemocracy.html'
p976
aS'2015-06-20 11:38:29.317027'
p977
aa(lp978
I2
aI121
aI00
ag65
aI5
aI2
aI5
aI28
aI2
aI0
ag16
ag52
((lp979
g19
ag21
atRp980
ag52
((lp981
g19
ag20
ag21
ag17
ag18
atRp982
aS'http://www.pdsoros.org/current_fellows/index.cfm?yr=2010'
p983
aS'2015-06-20 11:38:33.185472'
p984
aa(lp985
I2
aI122
aI00
ag65
aI5
aI0
aI0
aI2
aI2
aI0
ag16
ag52
((ltRp986
ag52
((ltRp987
aS'http://www.washingtonpost.com/wp-dyn/articles/A18329-2004Jun5.html'
p988
aS'2015-06-20 11:38:34.365164'
p989
aa(lp990
I2
aI123
aI00
ag65
aI5
aI0
aI5
aI25
aI2
aI0
ag16
ag52
((ltRp991
ag52
((lp992
g19
ag20
ag21
ag17
ag18
atRp993
aS'http://vtdigger.org/2012/08/19/grand-total-for-statewide-races-in-2012-election-so-far-1-89-million/'
p994
aS'2015-06-20 11:38:38.299140'
p995
aa(lp996
I2
aI124
aI00
ag65
aI5
aI0
aI4
aI24
aI2
aI0
ag16
ag52
((ltRp997
ag52
((lp998
g19
ag20
ag17
ag18
atRp999
aS'http://vtdigger.org/2012/08/19/grand-total-for-statewide-races-in-2012-election-so-far-1-89-million/'
p1000
aS'2015-06-20 11:38:40.639221'
p1001
aa(lp1002
I2
aI125
aI00
ag65
aI5
aI0
aI5
aI25
aI2
aI0
ag16
ag52
((ltRp1003
ag52
((lp1004
g19
ag20
ag21
ag17
ag18
atRp1005
aS'http://vtdigger.org/2012/08/19/grand-total-for-statewide-races-in-2012-election-so-far-1-89-million/'
p1006
aS'2015-06-20 11:38:43.092574'
p1007
aa(lp1008
I2
aI126
aI00
ag65
aI5
aI0
aI5
aI25
aI2
aI0
ag16
ag52
((ltRp1009
ag52
((lp1010
g19
ag20
ag21
ag17
ag18
atRp1011
aS'http://vtdigger.org/2012/08/19/grand-total-for-statewide-races-in-2012-election-so-far-1-89-million/'
p1012
aS'2015-06-20 11:38:50.181956'
p1013
aa(lp1014
I2
aI127
aI00
ag65
aI5
aI2
aI5
aI20
aI2
aI0
ag16
ag52
((lp1015
g19
ag18
atRp1016
ag52
((lp1017
g19
ag20
ag21
ag17
ag18
atRp1018
aS'http://ballotpedia.org/Goeff_Hansen'
p1019
aS'2015-06-20 11:38:52.357878'
p1020
aa(lp1021
I2
aI128
aI00
ag65
aI5
aI3
aI5
aI13
aI2
aI0
ag16
ag52
((lp1022
g19
ag21
ag18
atRp1023
ag52
((lp1024
g19
ag20
ag21
ag17
ag18
atRp1025
aS'http://www.cnn.com/2012/11/06/politics/election-2012/'
p1026
aS'2015-06-20 11:38:54.167724'
p1027
aa(lp1028
I2
aI129
aI00
ag65
aI5
aI0
aI5
aI27
aI2
aI0
ag16
ag52
((ltRp1029
ag52
((lp1030
g19
ag20
ag21
ag17
ag18
atRp1031
aS'http://votersedge.org/california/2014/june/san-jose/candidates/council-member-council-district-3/3888-kathy-yamada-sutherland'
p1032
aS'2015-06-20 11:38:57.244501'
p1033
aa(lp1034
I2
aI130
aI00
ag65
aI5
aI0
aI5
aI15
aI2
aI0
ag16
ag52
((ltRp1035
ag52
((lp1036
g19
ag20
ag21
ag17
ag18
atRp1037
aS'http://home.earthlink.net/~ddstuhlman/jlnspr00.htm'
p1038
aS'2015-06-20 11:38:57.517201'
p1039
aa(lp1040
I2
aI131
aI00
ag65
aI5
aI0
aI5
aI47
aI2
aI0
ag16
ag52
((ltRp1041
ag52
((lp1042
g19
ag20
ag21
ag17
ag18
atRp1043
aS'http://www.scstatehouse.gov/sess120_2013-2014/hj14/20140508.htm'
p1044
aS'2015-06-20 11:38:58.352084'
p1045
aa(lp1046
I2
aI132
aI00
ag65
aI5
aI1
aI5
aI30
aI2
aI0
ag16
ag52
((lp1047
g17
atRp1048
ag52
((lp1049
g19
ag20
ag21
ag17
ag18
atRp1050
aS'http://www.syracuse.com/news/index.ssf/2013/10/voter_guide_2013_onondaga_county_legislature.html'
p1051
aS'2015-06-20 11:39:00.371407'
p1052
aa(lp1053
I2
aI133
aI00
ag65
aI5
aI2
aI5
aI28
aI2
aI0
ag16
ag52
((lp1054
g19
ag20
atRp1055
ag52
((lp1056
g19
ag20
ag21
ag17
ag18
atRp1057
aS'http://www.salon.com/2014/01/11/the_racism_at_the_heart_of_the_reagan_presidency/'
p1058
aS'2015-06-20 11:39:02.207363'
p1059
aa(lp1060
I2
aI134
aI00
ag65
aI5
aI1
aI5
aI19
aI2
aI0
ag16
ag52
((lp1061
g19
atRp1062
ag52
((lp1063
g19
ag20
ag21
ag17
ag18
atRp1064
aS'http://angelialevy.com/tag/republicans/'
p1065
aS'2015-06-20 14:35:52.929336'
p1066
aa(lp1067
I2
aI135
aI00
ag65
aI5
aI2
aI5
aI22
aI2
aI0
ag16
ag52
((lp1068
g19
ag20
atRp1069
ag52
((lp1070
g19
ag20
ag21
ag17
ag18
atRp1071
aS'http://www.us-irelandalliance.org/content/572/en/Scholarships/Program%20News/MS15%20Selected.html'
p1072
aS'2015-06-20 14:35:55.261876'
p1073
aa(lp1074
I2
aI136
aI00
ag65
aI5
aI1
aI5
aI47
aI2
aI0
ag16
ag52
((lp1075
g19
atRp1076
ag52
((lp1077
g19
ag20
ag21
ag17
ag18
atRp1078
aS'http://www.firstladies.org/biographies/firstladies.aspx?biography=28'
p1079
aS'2015-06-20 14:35:56.204960'
p1080
aa(lp1081
I2
aI137
aI00
ag65
aI5
aI0
aI0
aI0
aI2
aI0
ag16
ag52
((ltRp1082
ag52
((ltRp1083
aS'http://www.alternet.org/story/97198/top_ten_most_disturbing_facts_and_impressions_of_sarah_palin'
p1084
aS'2015-06-20 14:35:58.247572'
p1085
aa(lp1086
I2
aI138
aI00
ag65
aI5
aI1
aI5
aI40
aI2
aI0
ag16
ag52
((lp1087
g18
atRp1088
ag52
((lp1089
g19
ag20
ag21
ag17
ag18
atRp1090
aS'https://en.wikipedia.org/wiki/David_Cameron'
p1091
aS'2015-06-20 14:36:00.314906'
p1092
aa(lp1093
I2
aI139
aI00
ag65
aI5
aI1
aI5
aI31
aI2
aI0
ag16
ag52
((lp1094
g20
atRp1095
ag52
((lp1096
g19
ag20
ag21
ag17
ag18
atRp1097
aS'https://en.wikipedia.org/wiki/List_of_Hill_Street_Blues_episodes'
p1098
aS'2015-06-20 14:36:00.966166'
p1099
aa(lp1100
I2
aI140
aI00
ag65
aI5
aI1
aI3
aI11
aI2
aI0
ag16
ag52
((lp1101
g17
atRp1102
ag52
((lp1103
g19
ag17
ag18
atRp1104
aS'http://thinkprogress.org/politics/2013/04/08/1832551/thatcher-dies/'
p1105
aS'2015-06-20 14:36:03.318510'
p1106
aa(lp1107
I2
aI141
aI00
ag65
aI5
aI1
aI5
aI33
aI2
aI0
ag16
ag52
((lp1108
g17
atRp1109
ag52
((lp1110
g19
ag20
ag21
ag17
ag18
atRp1111
aS'http://tucsonpride.org/history.html'
p1112
aS'2015-06-20 14:36:07.603777'
p1113
aa(lp1114
I2
aI142
aI00
ag65
aI5
aI0
aI5
aI32
aI2
aI0
ag16
ag52
((ltRp1115
ag52
((lp1116
g19
ag20
ag21
ag17
ag18
atRp1117
aS'http://www.communitycollegejobs.com/higher-ed-news.php'
p1118
aS'2015-06-20 14:36:08.321650'
p1119
aa(lp1120
I2
aI143
aI00
ag65
aI5
aI1
aI5
aI15
aI2
aI0
ag16
ag52
((lp1121
g18
atRp1122
ag52
((lp1123
g19
ag20
ag21
ag17
ag18
atRp1124
aS'http://www.thestory.org/stories/producer/102/podcast.xml'
p1125
aS'2015-06-20 14:36:11.605594'
p1126
aa(lp1127
I2
aI144
aI00
ag65
aI5
aI2
aI5
aI24
aI2
aI0
ag16
ag52
((lp1128
g19
ag20
atRp1129
ag52
((lp1130
g19
ag20
ag21
ag17
ag18
atRp1131
aS'http://www.sourcewatch.org/index.php?title=John_Kerry/Biography'
p1132
aS'2015-06-20 14:36:15.879089'
p1133
aa(lp1134
I2
aI145
aI00
ag65
aI5
aI2
aI5
aI16
aI2
aI0
ag16
ag52
((lp1135
g21
ag18
atRp1136
ag52
((lp1137
g19
ag20
ag21
ag17
ag18
atRp1138
aS'http://www.themillions.com/2014/10/getting-to-know-the-presidents-part-2-from-the-compromisers-to-the-beards.html'
p1139
aS'2015-06-20 14:36:18.701071'
p1140
aa(lp1141
I2
aI146
aI00
ag65
aI5
aI2
aI5
aI12
aI2
aI0
ag16
ag52
((lp1142
g21
ag17
atRp1143
ag52
((lp1144
g19
ag20
ag21
ag17
ag18
atRp1145
aS'http://bexargreens.org/2012/12/'
p1146
aS'2015-06-20 14:36:21.078104'
p1147
aa(lp1148
I2
aI147
aI00
ag65
aI5
aI1
aI5
aI39
aI2
aI0
ag16
ag52
((lp1149
g21
atRp1150
ag52
((lp1151
g19
ag20
ag21
ag17
ag18
atRp1152
aS'http://tarpley.net/online-books/george-bush-the-unauthorized-biography/chapter-22-bush-takes-the-presidency/'
p1153
aS'2015-06-20 14:36:21.848708'
p1154
aa(lp1155
I2
aI148
aI00
ag65
aI5
aI0
aI0
aI0
aI2
aI0
ag16
ag52
((ltRp1156
ag52
((ltRp1157
aS'http://www.scstatehouse.gov/judicialmeritpage/finalreportfall2007.doc'
p1158
aS'2015-06-20 14:36:22.351478'
p1159
aa(lp1160
I2
aI149
aI00
ag65
aI5
aI0
aI5
aI28
aI2
aI0
ag16
ag52
((ltRp1161
ag52
((lp1162
g19
ag20
ag21
ag17
ag18
atRp1163
aS'http://unqualified-reservations.blogspot.com/2008/08/sarah-palin-proletarian-candidate.html'
p1164
aS'2015-06-20 14:36:23.296510'
p1165
aa(lp1166
I2
aI150
aI00
ag65
aI5
aI2
aI5
aI19
aI2
aI0
ag16
ag52
((lp1167
g19
ag18
atRp1168
ag52
((lp1169
g19
ag20
ag21
ag17
ag18
atRp1170
aS'https://www.connectstoughton.com/content/common-council-candidate-questionnaires'
p1171
aS'2015-06-20 14:36:26.354360'
p1172
aa(lp1173
I2
aI151
aI00
ag65
aI5
aI2
aI5
aI10
aI2
aI0
ag16
ag52
((lp1174
g19
ag17
atRp1175
ag52
((lp1176
g19
ag20
ag21
ag17
ag18
atRp1177
aS'http://www.cooperpointjournal.com/tag/les-purce/'
p1178
aS'2015-06-20 14:36:28.510202'
p1179
aa(lp1180
I2
aI152
aI00
ag65
aI5
aI1
aI5
aI24
aI2
aI0
ag16
ag52
((lp1181
g19
atRp1182
ag52
((lp1183
g19
ag20
ag21
ag17
ag18
atRp1184
aS'http://www.sitnews.us/0104news/013004/013004_coa_delegate.html'
p1185
aS'2015-06-20 14:36:30.857914'
p1186
aa(lp1187
I2
aI153
aI00
ag65
aI5
aI0
aI0
aI0
aI2
aI0
ag16
ag52
((ltRp1188
ag52
((ltRp1189
aS'http://publishing.cdlib.org/ucpressebooks/view?docId=ft8d5nb4tm&chunk.id=d0e6708&toc.id=d0e6708&brand=ucpress'
p1190
aS'2015-06-20 14:36:31.620444'
p1191
aa(lp1192
I2
aI154
aI00
ag65
aI5
aI2
aI5
aI32
aI2
aI0
ag16
ag52
((lp1193
g19
ag21
atRp1194
ag52
((lp1195
g19
ag20
ag21
ag17
ag18
atRp1196
aS'http://www.ebcitizen.com/2014/08/campaign-contributions-from-oakland.html'
p1197
aS'2015-06-20 14:36:37.365817'
p1198
aa(lp1199
I2
aI155
aI00
ag65
aI5
aI1
aI1
aI6
aI2
aI0
ag16
ag52
((lp1200
g17
atRp1201
ag52
((lp1202
g17
atRp1203
aS'http://www.charlestoncitypaper.com/TheBattery/archives/2015/02/26/mayor-15-deerin-washington-could-announce-soon'
p1204
aS'2015-06-20 14:36:38.554768'
p1205
aa(lp1206
I2
aI156
aI00
ag65
aI5
aI2
aI5
aI13
aI2
aI0
ag16
ag52
((lp1207
g20
ag18
atRp1208
ag52
((lp1209
g19
ag20
ag21
ag17
ag18
atRp1210
aS'http://www.muratshrine.org/bios/truman.php'
p1211
aS'2015-06-20 14:36:38.891086'
p1212
aa(lp1213
I2
aI157
aI00
ag65
aI5
aI2
aI5
aI21
aI2
aI0
ag16
ag52
((lp1214
g19
ag20
atRp1215
ag52
((lp1216
g19
ag20
ag21
ag17
ag18
atRp1217
aS'http://www.nytimes.com/2015/01/02/nyregion/mario-cuomo-new-york-governor-and-liberal-beacon-dies-at-82.html'
p1218
aS'2015-06-20 14:36:40.672741'
p1219
aa(lp1220
I2
aI158
aI00
ag65
aI5
aI2
aI4
aI22
aI2
aI0
ag16
ag52
((lp1221
g19
ag18
atRp1222
ag52
((lp1223
g19
ag20
ag21
ag18
atRp1224
aS'http://www.salon.com/2015/06/14/kansas_tax_cutting_model_tarnished_after_sales_tax_raised/'
p1225
aS'2015-06-20 14:36:42.228173'
p1226
aa(lp1227
I2
aI159
aI00
ag65
aI5
aI2
aI5
aI27
aI2
aI0
ag16
ag52
((lp1228
g20
ag18
atRp1229
ag52
((lp1230
g19
ag20
ag21
ag17
ag18
atRp1231
aS'http://www.historynet.com/davy-crockett'
p1232
aS'2015-06-20 14:36:47.242939'
p1233
aa(lp1234
I2
aI160
aI00
ag65
aI5
aI1
aI5
aI14
aI2
aI0
ag16
ag52
((lp1235
g18
atRp1236
ag52
((lp1237
g19
ag20
ag21
ag17
ag18
atRp1238
aS'http://www.usatoday.com/story/news/world/2013/04/08/thatcher-worldwide-impact/2064631/'
p1239
aS'2015-06-20 14:36:50.234656'
p1240
aa(lp1241
I2
aI161
aI00
ag65
aI5
aI0
aI0
aI0
aI2
aI0
ag16
ag52
((ltRp1242
ag52
((ltRp1243
aS'http://www.coloradostatesman.com/content/991176-campaign-cash-rules-congress'
p1244
aS'2015-06-20 14:36:53.818708'
p1245
aa(lp1246
I2
aI162
aI00
ag65
aI5
aI3
aI5
aI13
aI2
aI0
ag16
ag52
((lp1247
g19
ag21
ag17
atRp1248
ag52
((lp1249
g19
ag20
ag21
ag17
ag18
atRp1250
aS'http://www.vfa.us/ROBERTA%20MARGARET%20YOUNG%20MADDEN.htm'
p1251
aS'2015-06-20 14:36:54.199967'
p1252
aa(lp1253
I2
aI163
aI00
ag65
aI5
aI1
aI5
aI28
aI2
aI0
ag16
ag52
((lp1254
g20
atRp1255
ag52
((lp1256
g19
ag20
ag21
ag17
ag18
atRp1257
aS'http://www.roseanneworld.com/blog/2013/11/letter-to-congress-with-special-info-by-wayne-madsen-reports/'
p1258
aS'2015-06-20 14:36:56.694425'
p1259
aa(lp1260
I2
aI164
aI00
ag65
aI5
aI1
aI1
aI2
aI2
aI0
ag16
ag52
((lp1261
Vvice
p1262
atRp1263
ag52
((lp1264
g1262
atRp1265
aS'http://www.smirkingchimp.com/thread/17110'
p1266
aS'2015-06-20 14:37:00.230845'
p1267
aa(lp1268
I2
aI165
aI00
ag65
aI5
aI1
aI5
aI24
aI2
aI0
ag16
ag52
((lp1269
g20
atRp1270
ag52
((lp1271
g19
ag20
ag21
ag17
ag18
atRp1272
aS'http://www.patentdocs.org/2007/12/page/2/'
p1273
aS'2015-06-20 14:37:02.786981'
p1274
aa(lp1275
I2
aI166
aI00
ag65
aI5
aI2
aI5
aI17
aI2
aI0
ag16
ag52
((lp1276
g19
ag18
atRp1277
ag52
((lp1278
g19
ag20
ag21
ag17
ag18
atRp1279
aS'http://www.huffingtonpost.com/2013/05/08/first-ladies-mothers-day-photos_n_3237523.html'
p1280
aS'2015-06-20 14:37:09.921668'
p1281
aa(lp1282
I2
aI167
aI00
ag65
aI5
aI0
aI5
aI34
aI2
aI0
ag16
ag52
((ltRp1283
ag52
((lp1284
g19
ag20
ag21
ag17
ag18
atRp1285
aS'http://en.wikipedia.org/wiki/Reactions_to_Occupy_Wall_Street'
p1286
aS'2015-06-20 14:37:11.229189'
p1287
aa(lp1288
I2
aI168
aI00
ag65
aI5
aI2
aI5
aI24
aI2
aI0
ag16
ag52
((lp1289
g19
ag21
atRp1290
ag52
((lp1291
g19
ag20
ag21
ag17
ag18
atRp1292
aS'http://digitalcommons.bowdoin.edu/mitchelloralhistory/84/'
p1293
aS'2015-06-20 14:37:13.118233'
p1294
aa(lp1295
I2
aI169
aI00
ag65
aI5
aI3
aI5
aI18
aI2
aI0
ag16
ag52
((lp1296
g21
ag17
ag18
atRp1297
ag52
((lp1298
g19
ag20
ag21
ag17
ag18
atRp1299
aS'http://caltonjock.com/2014/10/12/margaret-curran-how-the-hell-did-she-get-away-with-it-for-so-long-time-to-retire-to-your-1million-house-in-newlands/'
p1300
aS'2015-06-20 14:37:14.523595'
p1301
aa(lp1302
I2
aI170
aI00
ag65
aI5
aI2
aI5
aI13
aI2
aI0
ag16
ag52
((lp1303
g19
ag17
atRp1304
ag52
((lp1305
g19
ag20
ag21
ag17
ag18
atRp1306
aS'https://www.amherst.edu/mm/119034'
p1307
aS'2015-06-20 14:37:15.813130'
p1308
aa(lp1309
I2
aI171
aI00
ag65
aI5
aI2
aI5
aI24
aI2
aI0
ag16
ag52
((lp1310
g21
ag17
atRp1311
ag52
((lp1312
g19
ag20
ag21
ag17
ag18
atRp1313
aS'http://www.salon.com/2015/03/13/a_lot_of_us_are_disappointed_and_angry_martin_o%E2%80%99malley_makes_his_case_to_salon/'
p1314
aS'2015-06-20 14:37:24.334110'
p1315
aa(lp1316
I2
aI172
aI00
ag65
aI5
aI0
aI5
aI14
aI2
aI0
ag16
ag52
((ltRp1317
ag52
((lp1318
g19
ag20
ag21
ag17
ag18
atRp1319
aS'http://volusiaexposed.com/highprofile/judgehudson4.html'
p1320
aS'2015-06-20 14:37:26.191560'
p1321
aa(lp1322
I2
aI173
aI00
ag65
aI5
aI0
aI0
aI0
aI2
aI0
ag16
ag52
((ltRp1323
ag52
((ltRp1324
aS'http://hotair.com/archives/2014/12/09/americans-think-obama-failed-to-live-up-to-his-promise-on-race-relations/'
p1325
aS'2015-06-20 14:37:27.241907'
p1326
aa(lp1327
I2
aI174
aI00
ag65
aI5
aI2
aI5
aI21
aI2
aI0
ag16
ag52
((lp1328
g20
ag18
atRp1329
ag52
((lp1330
g19
ag20
ag21
ag17
ag18
atRp1331
aS'https://www.theatlantic.com/past/docs/issues/2003/03/clinton.htm'
p1332
aS'2015-06-20 14:37:29.732493'
p1333
aa(lp1334
I2
aI175
aI00
ag65
aI5
aI0
aI0
aI5
aI2
aI0
ag16
ag52
((ltRp1335
ag52
((ltRp1336
aS'http://www.csindy.com/coloradosprings/the-haves-and-the-have-nots/Content?oid=1111121'
p1337
aS'2015-06-20 14:37:31.054371'
p1338
aa(lp1339
I2
aI176
aI00
ag65
aI5
aI1
aI1
aI7
aI2
aI0
ag16
ag52
((lp1340
g18
atRp1341
ag52
((lp1342
g18
atRp1343
aS'http://www.c-span.org/video/?320407-1/politico-playbook-lunch-former-vp-dick-cheney-family'
p1344
aS'2015-06-20 14:37:33.186277'
p1345
aa(lp1346
I2
aI177
aI00
ag65
aI5
aI0
aI0
aI1
aI2
aI0
ag16
ag52
((ltRp1347
ag52
((ltRp1348
aS'http://news.yahoo.com/palin-handel-campaign-georgias-senate-race-215339593--election.html'
p1349
aS'2015-06-20 14:37:34.596493'
p1350
aa(lp1351
I2
aI178
aI00
ag65
aI5
aI1
aI5
aI23
aI2
aI0
ag16
ag52
((lp1352
g17
atRp1353
ag52
((lp1354
g19
ag20
ag21
ag17
ag18
atRp1355
aS'http://billmoyers.com/episode/the-path-of-positive-resistance/'
p1356
aS'2015-06-20 14:37:38.198016'
p1357
aa(lp1358
I2
aI179
aI00
ag65
aI5
aI1
aI5
aI29
aI2
aI0
ag16
ag52
((lp1359
g17
atRp1360
ag52
((lp1361
g19
ag20
ag21
ag17
ag18
atRp1362
aS'https://en.wikipedia.org/wiki/Mahathir_Mohamad'
p1363
aS'2015-06-20 14:37:39.235528'
p1364
aa(lp1365
I2
aI180
aI00
ag65
aI5
aI3
aI5
aI15
aI2
aI0
ag16
ag52
((lp1366
g20
ag17
ag18
atRp1367
ag52
((lp1368
g19
ag20
ag21
ag17
ag18
atRp1369
aS'http://www.hamakuasprings.com/2014/01'
p1370
aS'2015-06-20 14:37:43.518921'
p1371
aa(lp1372
I2
aI181
aI00
ag65
aI5
aI3
aI5
aI10
aI2
aI0
ag16
ag52
((lp1373
g20
ag17
ag18
atRp1374
ag52
((lp1375
g19
ag20
ag21
ag17
ag18
atRp1376
aS'http://www.newspapers.com/newspage/56777660/'
p1377
aS'2015-06-20 14:37:44.292403'
p1378
aa(lp1379
I2
aI182
aI00
ag65
aI5
aI2
aI5
aI15
aI2
aI0
ag16
ag52
((lp1380
g19
ag18
atRp1381
ag52
((lp1382
g19
ag20
ag21
ag17
ag18
atRp1383
aS'https://quizlet.com/10553893/apush-ch-32-36-flash-cards/'
p1384
aS'2015-06-20 14:37:45.368939'
p1385
aa(lp1386
I2
aI183
aI00
ag65
aI5
aI4
aI5
aI13
aI2
aI0
ag16
ag52
((lp1387
g19
ag21
ag17
ag18
atRp1388
ag52
((lp1389
g19
ag20
ag21
ag17
ag18
atRp1390
aS'http://www.wpi.edu/academics/Research/BEI/Symposium/aboutt873.html'
p1391
aS'2015-06-20 14:37:45.722025'
p1392
aa(lp1393
I2
aI184
aI00
ag65
aI5
aI1
aI5
aI18
aI2
aI0
ag16
ag52
((lp1394
g18
atRp1395
ag52
((lp1396
g19
ag20
ag21
ag17
ag18
atRp1397
aS'http://www.ithaca.edu/rhp/programs/cmd/blogs/posters_and_election_propaganda/tags/advertising/'
p1398
aS'2015-06-20 14:37:53.937568'
p1399
aa(lp1400
I2
aI185
aI00
ag65
aI5
aI2
aI5
aI12
aI2
aI0
ag16
ag52
((lp1401
g17
ag18
atRp1402
ag52
((lp1403
g19
ag20
ag21
ag17
ag18
atRp1404
aS'https://www.linkedin.com/pub/margaret-winn-cpa-cma/5/a7/9a0'
p1405
aS'2015-06-20 14:37:55.689679'
p1406
aa(lp1407
I2
aI186
aI00
ag65
aI5
aI3
aI5
aI20
aI2
aI0
ag16
ag52
((lp1408
g20
ag21
ag17
atRp1409
ag52
((lp1410
g19
ag20
ag21
ag17
ag18
atRp1411
aS'http://www.salon.com/2007/11/13/candidate_wives_guide/'
p1412
aS'2015-06-20 14:37:58.695200'
p1413
aa(lp1414
I2
aI187
aI00
ag65
aI5
aI0
aI5
aI45
aI2
aI0
ag16
ag52
((ltRp1415
ag52
((lp1416
g19
ag20
ag21
ag17
ag18
atRp1417
aS'http://www.scstatehouse.gov/sess119_2011-2012/sj11/20110114.htm'
p1418
aS'2015-06-20 14:37:59.857535'
p1419
aa(lp1420
I2
aI188
aI00
ag65
aI5
aI1
aI5
aI58
aI2
aI0
ag16
ag52
((lp1421
g21
atRp1422
ag52
((lp1423
g19
ag20
ag21
ag17
ag18
atRp1424
aS'https://quizlet.com/32338184/apush-units-6-11-flash-cards/'
p1425
aS'2015-06-20 14:38:01.005129'
p1426
aa(lp1427
I2
aI189
aI00
ag65
aI5
aI1
aI5
aI33
aI2
aI0
ag16
ag52
((lp1428
g21
atRp1429
ag52
((lp1430
g19
ag20
ag21
ag17
ag18
atRp1431
aS'http://www.uvm.edu/~dguber/POLS125/articles/smith2.htm'
p1432
aS'2015-06-20 14:38:01.479901'
p1433
aa(lp1434
I2
aI190
aI00
ag65
aI5
aI3
aI4
aI9
aI2
aI0
ag16
ag52
((lp1435
g19
ag21
ag18
atRp1436
ag52
((lp1437
g19
ag21
ag17
ag18
atRp1438
aS'http://www.poynter.org/news/mediawire/181288/why-it-matters-that-the-new-york-times-next-public-editor-is-a-woman/'
p1439
aS'2015-06-20 14:38:03.705489'
p1440
aa(lp1441
I2
aI191
aI00
ag65
aI5
aI2
aI5
aI14
aI2
aI0
ag16
ag52
((lp1442
g19
ag17
atRp1443
ag52
((lp1444
g19
ag20
ag21
ag17
ag18
atRp1445
aS'http://nonprofitquarterly.org/nonprofit-under-scrutiny-over-raffle-senate-candidate-in-the-hot-seat/'
p1446
aS'2015-06-20 14:38:10.397150'
p1447
aa(lp1448
I2
aI192
aI00
ag65
aI5
aI0
aI0
aI0
aI2
aI0
ag16
ag52
((ltRp1449
ag52
((ltRp1450
aS'https://multco.us/file/19751/download'
p1451
aS'2015-06-20 14:38:10.920932'
p1452
aa(lp1453
I2
aI193
aI00
ag65
aI5
aI1
aI5
aI20
aI2
aI0
ag16
ag52
((lp1454
g18
atRp1455
ag52
((lp1456
g19
ag20
ag21
ag17
ag18
atRp1457
aS'http://www.publichealth.uconn.edu/ust-12-13-scholars.html'
p1458
aS'2015-06-20 14:38:12.033827'
p1459
aa(lp1460
I2
aI194
aI00
ag65
aI5
aI1
aI5
aI27
aI2
aI0
ag16
ag52
((lp1461
g18
atRp1462
ag52
((lp1463
g19
ag20
ag21
ag17
ag18
atRp1464
aS'http://seagrant.mit.edu/2014_CC_Symposium_speakers.php'
p1465
aS'2015-06-20 14:38:14.985135'
p1466
aa(lp1467
I2
aI195
aI00
ag65
aI5
aI2
aI2
aI7
aI2
aI0
ag16
ag52
((lp1468
g17
ag18
atRp1469
ag52
((lp1470
g17
ag18
atRp1471
aS'http://www.c-span.org/video/?318148-17/sarah-palin-addresses-cpac'
p1472
aS'2015-06-20 14:38:17.102273'
p1473
aa(lp1474
I2
aI196
aI00
ag65
aI5
aI1
aI5
aI21
aI2
aI0
ag16
ag52
((lp1475
g19
atRp1476
ag52
((lp1477
g19
ag20
ag21
ag17
ag18
atRp1478
aS'http://www.dunelandrotary.com/about-our-club/membership-manual/'
p1479
aS'2015-06-20 14:38:19.219959'
p1480
aa(lp1481
I2
aI197
aI00
ag65
aI5
aI1
aI5
aI26
aI2
aI0
ag16
ag52
((lp1482
g17
atRp1483
ag52
((lp1484
g19
ag20
ag21
ag17
ag18
atRp1485
aS'http://www.debates.org/index.php?page=october-5-1988-debate-transcripts'
p1486
aS'2015-06-20 14:38:19.643169'
p1487
aa(lp1488
I2
aI198
aI00
ag65
aI5
aI2
aI5
aI20
aI2
aI0
ag16
ag52
((lp1489
g21
ag18
atRp1490
ag52
((lp1491
g19
ag20
ag21
ag17
ag18
atRp1492
aS'http://bowdoinorient.com/article/9247'
p1493
aS'2015-06-20 14:38:21.447899'
p1494
aa(lp1495
I2
aI199
aI00
ag65
aI5
aI1
aI1
aI12
aI2
aI0
ag16
ag52
((lp1496
g17
atRp1497
ag52
((lp1498
g17
atRp1499
aS'http://www.rgj.com/story/news/politics/2014/10/12/2014-voters-guide/17142285/'
p1500
aS'2015-06-20 14:38:25.720404'
p1501
aa(lp1502
I2
aI200
aI00
ag65
aI5
aI0
aI0
aI6
aI2
aI0
ag16
ag52
((ltRp1503
ag52
((ltRp1504
aS'http://www.charlestoncitypaper.com/charleston/a-dozen-contenders-eyeing-a-run-for-charleston-mayor-in-2015/Content?oid=5031250'
p1505
aS'2015-06-20 14:38:26.928924'
p1506
aa(lp1507
I2
aI201
aI00
ag65
aI5
aI2
aI5
aI17
aI2
aI0
ag16
ag52
((lp1508
g19
ag17
atRp1509
ag52
((lp1510
g19
ag20
ag21
ag17
ag18
atRp1511
aS'http://www.hawaiifreepress.com/ArticlesDailyNews/tabid/65/ID/13093/July-16-2014-News-Read.aspx'
p1512
aS'2015-06-20 14:38:28.684751'
p1513
aa(lp1514
I2
aI202
aI00
ag65
aI5
aI1
aI5
aI54
aI2
aI0
ag16
ag52
((lp1515
g17
atRp1516
ag52
((lp1517
g19
ag20
ag21
ag17
ag18
atRp1518
aS'http://alamo-girl.com/210.htm'
p1519
aS'2015-06-20 14:38:30.385662'
p1520
aa(lp1521
I2
aI203
aI00
ag65
aI5
aI3
aI5
aI18
aI2
aI0
ag16
ag52
((lp1522
g21
ag17
ag18
atRp1523
ag52
((lp1524
g19
ag20
ag21
ag17
ag18
atRp1525
aS'http://faculty-senate.buffalo.edu/minutes/executivecommittee/110696.htm'
p1526
aS'2015-06-20 14:38:30.726457'
p1527
aa(lp1528
I2
aI204
aI00
ag65
aI5
aI0
aI0
aI1
aI2
aI0
ag16
ag52
((ltRp1529
ag52
((ltRp1530
aS'http://www.triborobanner.com/2009-voter-s-guide-1.355939'
p1531
aS'2015-06-20 14:38:33.805544'
p1532
aa(lp1533
I2
aI205
aI00
ag65
aI5
aI1
aI5
aI11
aI2
aI0
ag16
ag52
((lp1534
g18
atRp1535
ag52
((lp1536
g19
ag20
ag21
ag17
ag18
atRp1537
aS'http://www.blackagendareport.com/content/freedom-rider-hidden-war-crimes-iraq'
p1538
aS'2015-06-20 14:38:40.921212'
p1539
aa(lp1540
I2
aI206
aI00
ag65
aI5
aI2
aI5
aI21
aI2
aI0
ag16
ag52
((lp1541
g19
ag21
atRp1542
ag52
((lp1543
g19
ag20
ag21
ag17
ag18
atRp1544
aS'http://ballotpedia.org/Dennis_Richardson'
p1545
aS'2015-06-20 14:38:42.646418'
p1546
aa(lp1547
I2
aI207
aI00
ag65
aI5
aI1
aI5
aI19
aI2
aI0
ag16
ag52
((lp1548
g17
atRp1549
ag52
((lp1550
g19
ag20
ag21
ag17
ag18
atRp1551
aS'http://articles.baltimoresun.com/keyword/secretary'
p1552
aS'2015-06-20 14:38:45.621557'
p1553
aa(lp1554
I2
aI208
aI00
ag65
aI5
aI1
aI5
aI31
aI2
aI0
ag16
ag52
((lp1555
g19
atRp1556
ag52
((lp1557
g19
ag20
ag21
ag17
ag18
atRp1558
aS'https://www.trumanlibrary.org/eleanor/1953.html'
p1559
aS'2015-06-20 14:38:46.353575'
p1560
aa(lp1561
I2
aI209
aI00
ag65
aI5
aI2
aI2
aI2
aI2
aI0
ag16
ag52
((lp1562
Vcandidate
p1563
aVvice
p1564
atRp1565
ag52
((lp1566
g1563
ag1564
atRp1567
aS'http://theconservativetreehouse.com/2015/02/04/jeb-bush-and-president-obama-agree-illegal-alien-children-should-be-given-citizenship-status/'
p1568
aS'2015-06-20 14:38:47.721525'
p1569
aa(lp1570
I2
aI210
aI00
ag65
aI5
aI1
aI5
aI27
aI2
aI0
ag16
ag52
((lp1571
g20
atRp1572
ag52
((lp1573
g19
ag20
ag21
ag17
ag18
atRp1574
aS'http://www.machikweekend.com/speakers.html'
p1575
aS'2015-06-20 14:38:48.557741'
p1576
aa(lp1577
I2
aI211
aI00
ag65
aI5
aI3
aI5
aI14
aI2
aI0
ag16
ag52
((lp1578
g21
ag17
ag18
atRp1579
ag52
((lp1580
g19
ag20
ag21
ag17
ag18
atRp1581
aS'http://www.udel.edu/PR/UDaily/2008/aug/adaptations080207.html'
p1582
aS'2015-06-20 14:38:48.823052'
p1583
aa(lp1584
I2
aI212
aI00
ag65
aI5
aI0
aI0
aI0
aI2
aI0
ag16
ag52
((ltRp1585
ag52
((ltRp1586
aS'http://www.iccalaska.org/servlet/download?id=462'
p1587
aS'2015-06-20 14:38:49.509509'
p1588
aa(lp1589
I2
aI213
aI00
ag65
aI5
aI3
aI5
aI15
aI2
aI0
ag16
ag52
((lp1590
g20
ag17
ag18
atRp1591
ag52
((lp1592
g19
ag20
ag21
ag17
ag18
atRp1593
aS'https://www.h-net.org/reviews/showrev.php?id=31240'
p1594
aS'2015-06-20 14:38:50.059815'
p1595
aa(lp1596
I2
aI214
aI00
ag65
aI5
aI1
aI4
aI19
aI2
aI0
ag16
ag52
((lp1597
g17
atRp1598
ag52
((lp1599
g19
ag20
ag17
ag18
atRp1600
aS'http://inthesetimes.com/article/17533/how_to_sell_off_a_city'
p1601
aS'2015-06-20 14:38:56.557041'
p1602
aa(lp1603
I2
aI215
aI00
ag65
aI5
aI1
aI5
aI21
aI2
aI0
ag16
ag52
((lp1604
g18
atRp1605
ag52
((lp1606
g19
ag20
ag21
ag17
ag18
atRp1607
aS'http://www.citypages.com/2000-08-09/news/the-candidate/full/'
p1608
aS'2015-06-20 14:39:02.025144'
p1609
aa(lp1610
I2
aI216
aI00
ag65
aI5
aI0
aI0
aI0
aI2
aI0
ag16
ag52
((ltRp1611
ag52
((ltRp1612
aS'http://www.johnjayinstitute.org/about-us/affiliated-scholars/'
p1613
aS'2015-06-20 14:39:05.526276'
p1614
aa(lp1615
I2
aI217
aI00
ag65
aI5
aI0
aI5
aI18
aI2
aI0
ag16
ag52
((ltRp1616
ag52
((lp1617
g19
ag20
ag21
ag17
ag18
atRp1618
aS'http://www.salon.com/1999/05/06/bush/'
p1619
aS'2015-06-20 14:39:11.535427'
p1620
aa(lp1621
I2
aI218
aI00
ag65
aI5
aI2
aI5
aI18
aI2
aI0
ag16
ag52
((lp1622
g21
ag18
atRp1623
ag52
((lp1624
g19
ag20
ag21
ag17
ag18
atRp1625
aS'http://www.gallup.com/poll/3415/most-admired-men-women-19481998.aspx'
p1626
aS'2015-06-20 14:39:12.631439'
p1627
aa(lp1628
I2
aI219
aI00
ag65
aI5
aI1
aI4
aI20
aI2
aI0
ag16
ag52
((lp1629
g20
atRp1630
ag52
((lp1631
g20
ag21
ag17
ag18
atRp1632
aS'http://www.indyweek.com/indyweek/ed-harrison/Content?oid=3742783'
p1633
aS'2015-06-20 14:39:15.072571'
p1634
aa(lp1635
I2
aI220
aI00
ag65
aI5
aI1
aI1
aI6
aI2
aI0
ag16
ag52
((lp1636
g19
atRp1637
ag52
((lp1638
g19
atRp1639
aS'http://www.c-span.org/video/?325224-1/eric-cantor-political-decisionmaking'
p1640
aS'2015-06-20 14:39:16.856568'
p1641
aa(lp1642
I2
aI221
aI00
ag65
aI5
aI2
aI4
aI20
aI2
aI0
ag16
ag52
((lp1643
g19
ag18
atRp1644
ag52
((lp1645
g19
ag20
ag17
ag18
atRp1646
aS'http://www.masseyeandear.org/news/press_releases/archived/2007/'
p1647
aS'2015-06-20 14:39:17.978471'
p1648
aa(lp1649
I2
aI222
aI01
ag65
aI5
aI5
aI5
aI7
aI2
aI0
ag16
ag52
((lp1650
g19
ag20
ag21
ag17
ag18
atRp1651
ag52
((lp1652
g19
ag20
ag21
ag17
ag18
atRp1653
ag29
aS'2015-06-20 14:39:18.318060'
p1654
aa(lp1655
I3
aI1
aI00
ag65
aI5
aI1
aI4
aI16
aI3
aI0
ag24
ag52
((lp1656
g28
atRp1657
ag52
((lp1658
g28
ag25
ag21
ag26
atRp1659
aS'http://vote-ks.org/issue.aspx?state=ks&election=ks20141104ga&office=ksmemberstateboardofeducation&issue=allbio'
p1660
aS'2015-06-20 14:39:25.463079'
p1661
aa(lp1662
I3
aI2
aI00
ag65
aI5
aI0
aI0
aI0
aI3
aI0
ag24
ag52
((ltRp1663
ag52
((ltRp1664
aS'https://my.vanderbilt.edu/artofblogging/'
p1665
aS'2015-06-20 14:39:32.543742'
p1666
aa(lp1667
I3
aI3
aI00
ag65
aI5
aI0
aI0
aI1
aI3
aI0
ag24
ag52
((ltRp1668
ag52
((ltRp1669
aS'http://www.pennlive.com/midstate/index.ssf/2014/06/dauphin_county_committee_chair.html'
p1670
aS'2015-06-20 14:39:39.720183'
p1671
aa(lp1672
I3
aI4
aI00
ag65
aI5
aI2
aI5
aI19
aI3
aI0
ag24
ag52
((lp1673
g26
ag21
atRp1674
ag52
((lp1675
g28
ag25
ag21
ag27
ag26
atRp1676
aS'http://wydailyarchives.com/2011/10/14/candidate-qaa-soil-and-water-conservation-district-directors/'
p1677
aS'2015-06-20 14:39:40.775194'
p1678
aa(lp1679
I3
aI5
aI00
ag65
aI5
aI1
aI5
aI13
aI3
aI0
ag24
ag52
((lp1680
g21
atRp1681
ag52
((lp1682
g28
ag25
ag21
ag27
ag26
atRp1683
aS'http://texasleftist.com/2014/09/tlcq-2014-susan-criss/'
p1684
aS'2015-06-20 14:39:42.730371'
p1685
aa(lp1686
I3
aI6
aI00
ag65
aI5
aI2
aI5
aI17
aI3
aI0
ag24
ag52
((lp1687
g21
ag27
atRp1688
ag52
((lp1689
g28
ag25
ag21
ag27
ag26
atRp1690
aS'http://www.coloradogardening.com/q&a_trees.htm'
p1691
aS'2015-06-20 14:39:43.526773'
p1692
aa(lp1693
I3
aI7
aI00
ag65
aI5
aI0
aI5
aI45
aI3
aI0
ag24
ag52
((ltRp1694
ag52
((lp1695
g28
ag25
ag21
ag27
ag26
atRp1696
aS'http://www.gilmerfreepress.net/index.php/site/2013/12/'
p1697
aS'2015-06-20 14:39:51.439862'
p1698
aa(lp1699
I3
aI8
aI00
ag65
aI5
aI2
aI5
aI38
aI3
aI0
ag24
ag52
((lp1700
g26
ag27
atRp1701
ag52
((lp1702
g28
ag25
ag21
ag27
ag26
atRp1703
aS'http://spiderbites.nytimes.com/free_1988/articles_1988_01_00000.html'
p1704
aS'2015-06-20 14:39:56.171113'
p1705
aa(lp1706
I3
aI9
aI00
ag65
aI5
aI2
aI5
aI35
aI3
aI0
ag24
ag52
((lp1707
g28
ag21
atRp1708
ag52
((lp1709
g28
ag25
ag21
ag27
ag26
atRp1710
aS'http://networknation.net/ncddtranspartisan.cfm'
p1711
aS'2015-06-20 14:39:57.092084'
p1712
aa(lp1713
I3
aI10
aI00
ag65
aI5
aI1
aI5
aI36
aI3
aI0
ag24
ag52
((lp1714
g26
atRp1715
ag52
((lp1716
g28
ag25
ag21
ag27
ag26
atRp1717
aS'http://www.dailykos.com/part/story/as_full?mode=preview&story_id=1283689'
p1718
aS'2015-06-20 14:39:59.339504'
p1719
aa(lp1720
I3
aI11
aI00
ag65
aI5
aI1
aI5
aI51
aI3
aI0
ag24
ag52
((lp1721
g25
atRp1722
ag52
((lp1723
g28
ag25
ag21
ag27
ag26
atRp1724
aS'http://www.whataboutclients.com/archives/politics/'
p1725
aS'2015-06-20 14:40:04.411995'
p1726
aa(lp1727
I3
aI12
aI00
ag65
aI5
aI1
aI5
aI36
aI3
aI0
ag24
ag52
((lp1728
g26
atRp1729
ag52
((lp1730
g28
ag25
ag21
ag27
ag26
atRp1731
aS'http://allthingswildlyconsidered.blogspot.com/2011/12/gardens-heal-body-and-soul.html'
p1732
aS'2015-06-20 14:40:11.190412'
p1733
aa(lp1734
I3
aI13
aI00
ag65
aI5
aI1
aI5
aI47
aI3
aI0
ag24
ag52
((lp1735
g28
atRp1736
ag52
((lp1737
g28
ag25
ag21
ag27
ag26
atRp1738
aS'http://spiderbites.nytimes.com/pay_1976/articles_1976_02_00000.html'
p1739
aS'2015-06-20 14:40:11.877646'
p1740
aa(lp1741
I3
aI14
aI00
ag65
aI5
aI3
aI5
aI29
aI3
aI0
ag24
ag52
((lp1742
g26
ag25
ag28
atRp1743
ag52
((lp1744
g28
ag25
ag21
ag27
ag26
atRp1745
aS'http://www.charlestoncurrents.com/issue/12_issues/12.0917.htm'
p1746
aS'2015-06-20 14:40:16.655145'
p1747
aa(lp1748
I3
aI15
aI00
ag65
aI5
aI4
aI5
aI17
aI3
aI0
ag24
ag52
((lp1749
g28
ag25
ag21
ag26
atRp1750
ag52
((lp1751
g28
ag25
ag21
ag27
ag26
atRp1752
aS'http://johngushue.typepad.com/blog/2009/07/'
p1753
aS'2015-06-20 14:40:23.825614'
p1754
aa(lp1755
I3
aI16
aI00
ag65
aI5
aI0
aI0
aI0
aI3
aI0
ag24
ag52
((ltRp1756
ag52
((ltRp1757
aS'http://emergentstory.com/top-five-instruction-agreement-interview-tips/'
p1758
aS'2015-06-20 14:40:30.884698'
p1759
aa(lp1760
I3
aI17
aI00
ag65
aI5
aI0
aI0
aI9
aI3
aI0
ag24
ag52
((ltRp1761
ag52
((ltRp1762
aS'http://masslive41.rssing.com/chan-5806191/all_p67.html'
p1763
aS'2015-06-20 14:40:31.977779'
p1764
aa(lp1765
I3
aI18
aI00
ag65
aI5
aI0
aI5
aI25
aI3
aI0
ag24
ag52
((ltRp1766
ag52
((lp1767
g28
ag25
ag21
ag27
ag26
atRp1768
aS'https://chicago.everyblock.com/politics/feb26-whos-chuy-6713434/'
p1769
aS'2015-06-20 14:40:33.794530'
p1770
aa(lp1771
I3
aI19
aI00
ag65
aI5
aI1
aI5
aI39
aI3
aI0
ag24
ag52
((lp1772
g27
atRp1773
ag52
((lp1774
g28
ag25
ag21
ag27
ag26
atRp1775
aS'http://sarahpalinhasaserpentsheart.blogspot.com/2011_07_10_archive.html'
p1776
aS'2015-06-20 14:40:41.081049'
p1777
aa(lp1778
I3
aI20
aI00
ag65
aI5
aI2
aI5
aI13
aI3
aI0
ag24
ag52
((lp1779
g26
ag21
atRp1780
ag52
((lp1781
g28
ag25
ag21
ag27
ag26
atRp1782
aS'https://www.linkedin.com/in/mallorylaynearnold'
p1783
aS'2015-06-20 14:40:42.221384'
p1784
aa(lp1785
I3
aI21
aI00
ag65
aI5
aI0
aI5
aI40
aI3
aI0
ag24
ag52
((ltRp1786
ag52
((lp1787
g28
ag25
ag21
ag27
ag26
atRp1788
aS'http://wdauu.org/?page_id=147'
p1789
aS'2015-06-20 14:40:45.663123'
p1790
aa(lp1791
I3
aI22
aI00
ag65
aI5
aI0
aI0
aI0
aI3
aI0
ag24
ag52
((ltRp1792
ag52
((ltRp1793
aS'http://www.bigislandchronicle.com/2012/01/page/3/'
p1794
aS'2015-06-20 14:40:52.721744'
p1795
aa(lp1796
I3
aI23
aI00
ag65
aI5
aI0
aI5
aI32
aI3
aI0
ag24
ag52
((ltRp1797
ag52
((lp1798
g28
ag25
ag21
ag27
ag26
atRp1799
aS'http://corycrow.blogspot.com/2010_04_01_archive.html'
p1800
aS'2015-06-20 14:40:55.288264'
p1801
aa(lp1802
I3
aI24
aI00
ag65
aI5
aI1
aI5
aI31
aI3
aI0
ag24
ag52
((lp1803
g26
atRp1804
ag52
((lp1805
g28
ag25
ag21
ag27
ag26
atRp1806
aS'http://caffertyfile.blogs.cnn.com/2008/05/06/200-economists-criticize-gas-tax-holiday/'
p1807
aS'2015-06-20 14:41:00.280939'
p1808
aa(lp1809
I3
aI25
aI00
ag65
aI5
aI2
aI5
aI26
aI3
aI0
ag24
ag52
((lp1810
g21
ag27
atRp1811
ag52
((lp1812
g28
ag25
ag21
ag27
ag26
atRp1813
aS'http://www.leadingage.org/magazine/FeaturePrint.aspx?id=all&magid=4381'
p1814
aS'2015-06-20 14:41:01.088621'
p1815
aa(lp1816
I3
aI26
aI00
ag65
aI5
aI0
aI0
aI2
aI3
aI0
ag24
ag52
((ltRp1817
ag52
((ltRp1818
aS'http://www.dailykos.com/story/2008/03/15/477405/-DKos-is-souring'
p1819
aS'2015-06-20 14:41:02.700841'
p1820
aa(lp1821
I3
aI27
aI00
ag65
aI5
aI0
aI0
aI0
aI3
aI0
ag24
ag52
((ltRp1822
ag52
((ltRp1823
aS'http://www.miami.edu/index.php/civic/civic_news_story/civic_news_story_test/'
p1824
aS'2015-06-20 14:41:09.769307'
p1825
aa(lp1826
I3
aI28
aI00
ag65
aI5
aI2
aI3
aI19
aI3
aI0
ag24
ag52
((lp1827
g26
ag21
atRp1828
ag52
((lp1829
g28
ag21
ag26
atRp1830
aS'http://www.lot-lines.com/tag/plants'
p1831
aS'2015-06-20 14:41:12.153393'
p1832
aa(lp1833
I3
aI29
aI00
ag65
aI5
aI0
aI5
aI36
aI3
aI0
ag24
ag52
((ltRp1834
ag52
((lp1835
g28
ag25
ag21
ag27
ag26
atRp1836
aS'http://www.caretaker.org/m.php?smPID=DBX::SAMPLES&_c=CURRENT&issue=marapr2009'
p1837
aS'2015-06-20 14:41:13.944827'
p1838
aa(lp1839
I3
aI30
aI00
ag65
aI5
aI0
aI5
aI25
aI3
aI0
ag24
ag52
((ltRp1840
ag52
((lp1841
g28
ag25
ag21
ag27
ag26
atRp1842
aS'https://chicago.everyblock.com/politics/feb26-whos-chuy-6713434/'
p1843
aS'2015-06-20 14:41:17.606883'
p1844
aa(lp1845
I3
aI31
aI00
ag65
aI5
aI1
aI5
aI38
aI3
aI0
ag24
ag52
((lp1846
g21
atRp1847
ag52
((lp1848
g28
ag25
ag21
ag27
ag26
atRp1849
aS'http://www.highbeam.com/publications/pasadena-star-news-p61207/november-2004'
p1850
aS'2015-06-20 14:41:20.690995'
p1851
aa(lp1852
I3
aI32
aI00
ag65
aI5
aI1
aI5
aI45
aI3
aI0
ag24
ag52
((lp1853
g26
atRp1854
ag52
((lp1855
g28
ag25
ag21
ag27
ag26
atRp1856
aS'http://www.loc.gov/nls/tbt/2011/2marapr.txt'
p1857
aS'2015-06-20 14:41:21.091051'
p1858
aa(lp1859
I3
aI33
aI00
ag65
aI5
aI0
aI5
aI45
aI3
aI0
ag24
ag52
((ltRp1860
ag52
((lp1861
g28
ag25
ag21
ag27
ag26
atRp1862
aS'http://www.loc.gov/nls/tbt/2011/2marapr.html'
p1863
aS'2015-06-20 14:41:21.501274'
p1864
aa(lp1865
I3
aI34
aI00
ag65
aI5
aI2
aI5
aI51
aI3
aI0
ag24
ag52
((lp1866
g26
ag28
atRp1867
ag52
((lp1868
g28
ag25
ag21
ag27
ag26
atRp1869
aS'http://spiderbites.nytimes.com/pay_1979/articles_1979_08_00002.html'
p1870
aS'2015-06-20 14:41:22.062031'
p1871
aa(lp1872
I3
aI35
aI00
ag65
aI5
aI1
aI5
aI27
aI3
aI0
ag24
ag52
((lp1873
g26
atRp1874
ag52
((lp1875
g28
ag25
ag21
ag27
ag26
atRp1876
aS'http://www.schoolsoup.com/scholarship-directory/academic-major/urban-design/'
p1877
aS'2015-06-20 14:41:23.849422'
p1878
aa(lp1879
I3
aI36
aI00
ag65
aI5
aI1
aI5
aI31
aI3
aI0
ag24
ag52
((lp1880
g28
atRp1881
ag52
((lp1882
g28
ag25
ag21
ag27
ag26
atRp1883
aS'http://www.mthermonwebtv.com/Pages/ArchivesFebruary2015.aspx'
p1884
aS'2015-06-20 14:41:25.801182'
p1885
aa(lp1886
I3
aI37
aI00
ag65
aI5
aI0
aI0
aI13
aI3
aI0
ag24
ag52
((ltRp1887
ag52
((ltRp1888
aS'http://www.noozhawk.com/columnists/article/www.countyofsb.org/www.alaskaair.com/www.redcross.org/'
p1889
aS'2015-06-20 14:41:29.750873'
p1890
aa(lp1891
I3
aI38
aI00
ag65
aI5
aI2
aI5
aI22
aI3
aI0
ag24
ag52
((lp1892
g28
ag21
atRp1893
ag52
((lp1894
g28
ag25
ag21
ag27
ag26
atRp1895
aS'http://archives.evergreen.edu/catalogs/eveningandweekend/courses/coursesspring05.htm'
p1896
aS'2015-06-20 14:41:30.500629'
p1897
aa(lp1898
I3
aI39
aI00
ag65
aI5
aI2
aI5
aI18
aI3
aI0
ag24
ag52
((lp1899
g21
ag27
atRp1900
ag52
((lp1901
g28
ag25
ag21
ag27
ag26
atRp1902
aS'http://www.examiner.com/article/which-choice-is-the-apple-of-your-eye'
p1903
aS'2015-06-20 14:41:36.166879'
p1904
aa(lp1905
I3
aI40
aI00
ag65
aI5
aI0
aI5
aI36
aI3
aI0
ag24
ag52
((ltRp1906
ag52
((lp1907
g28
ag25
ag21
ag27
ag26
atRp1908
aS'http://blog.lib.umn.edu/maasx003/Vikings/2006_04.html'
p1909
aS'2015-06-20 14:41:38.847593'
p1910
aa(lp1911
I3
aI41
aI00
ag65
aI5
aI0
aI5
aI57
aI3
aI0
ag24
ag52
((ltRp1912
ag52
((lp1913
g28
ag25
ag21
ag27
ag26
atRp1914
aS'http://blog.miltonps.org/?paged=7'
p1915
aS'2015-06-20 14:41:44.843868'
p1916
aa(lp1917
I3
aI42
aI00
ag65
aI5
aI0
aI5
aI36
aI3
aI0
ag24
ag52
((ltRp1918
ag52
((lp1919
g28
ag25
ag21
ag27
ag26
atRp1920
aS'http://www.caretaker.org/m.php?smPID=DBX::SAMPLES&_c=CURRENT&issue=marapr2009'
p1921
aS'2015-06-20 14:41:46.521375'
p1922
aa(lp1923
I3
aI43
aI00
ag65
aI5
aI0
aI5
aI33
aI3
aI0
ag24
ag52
((ltRp1924
ag52
((lp1925
g28
ag25
ag21
ag27
ag26
atRp1926
aS'https://my.vanderbilt.edu/artofblogging/page/7/'
p1927
aS'2015-06-20 14:41:49.046480'
p1928
aa(lp1929
I3
aI44
aI00
ag65
aI5
aI1
aI5
aI41
aI3
aI0
ag24
ag52
((lp1930
g27
atRp1931
ag52
((lp1932
g28
ag25
ag21
ag27
ag26
atRp1933
aS'http://talkofthetownwc.com/blog/2012/02/'
p1934
aS'2015-06-20 14:41:49.684604'
p1935
aa(lp1936
I3
aI45
aI00
ag65
aI5
aI1
aI5
aI34
aI3
aI0
ag24
ag52
((lp1937
g25
atRp1938
ag52
((lp1939
g28
ag25
ag21
ag27
ag26
atRp1940
aS'https://timpanogos.wordpress.com/2014/05/01/can-america-afford-to-be-great-anymore-many-say-no/'
p1941
aS'2015-06-20 14:41:54.011389'
p1942
aa(lp1943
I3
aI46
aI00
ag65
aI5
aI1
aI5
aI28
aI3
aI0
ag24
ag52
((lp1944
g21
atRp1945
ag52
((lp1946
g28
ag25
ag21
ag27
ag26
atRp1947
aS'http://azconservative.org/category/veteranstroops/'
p1948
aS'2015-06-20 14:42:00.631126'
p1949
aa(lp1950
I3
aI47
aI00
ag65
aI5
aI0
aI5
aI72
aI3
aI0
ag24
ag52
((ltRp1951
ag52
((lp1952
g28
ag25
ag21
ag27
ag26
atRp1953
aS'http://examiner-cities.alltop.com/'
p1954
aS'2015-06-20 14:42:03.336619'
p1955
aa(lp1956
I3
aI48
aI00
ag65
aI5
aI2
aI5
aI17
aI3
aI0
ag24
ag52
((lp1957
g28
ag27
atRp1958
ag52
((lp1959
g28
ag25
ag21
ag27
ag26
atRp1960
aS'http://teachingcompany.fr.yuku.com/topic/1827/1-The-World-of-Game-Theory'
p1961
aS'2015-06-20 14:42:07.681734'
p1962
aa(lp1963
I3
aI49
aI00
ag65
aI5
aI1
aI5
aI29
aI3
aI0
ag24
ag52
((lp1964
g21
atRp1965
ag52
((lp1966
g28
ag25
ag21
ag27
ag26
atRp1967
aS'http://infidel753.blogspot.com/2012_09_01_archive.html'
p1968
aS'2015-06-20 14:42:10.210515'
p1969
aa(lp1970
I3
aI50
aI00
ag65
aI5
aI2
aI5
aI24
aI3
aI0
ag24
ag52
((lp1971
g28
ag21
atRp1972
ag52
((lp1973
g28
ag25
ag21
ag27
ag26
atRp1974
aS'http://clinicalcenter.nih.gov/about/news/newsletter/2006/mar06/newsletter.html'
p1975
aS'2015-06-20 14:42:12.703560'
p1976
aa(lp1977
I3
aI51
aI00
ag65
aI5
aI2
aI5
aI51
aI3
aI0
ag24
ag52
((lp1978
g28
ag27
atRp1979
ag52
((lp1980
g28
ag25
ag21
ag27
ag26
atRp1981
aS'http://www.whataboutclients.com/archives/litigation_trials_arbitrations_mediations_in_us_and_abroad/'
p1982
aS'2015-06-20 14:42:13.296328'
p1983
aa(lp1984
I3
aI52
aI00
ag65
aI5
aI1
aI5
aI30
aI3
aI0
ag24
ag52
((lp1985
g21
atRp1986
ag52
((lp1987
g28
ag25
ag21
ag27
ag26
atRp1988
aS'http://articles.dailyamerican.com/articles_2012_04_00000.xml'
p1989
aS'2015-06-20 14:42:15.809789'
p1990
aa(lp1991
I3
aI53
aI00
ag65
aI5
aI0
aI0
aI2
aI3
aI0
ag24
ag52
((ltRp1992
ag52
((ltRp1993
aS'http://www.dailykos.com/story/2008/01/12/435777/-Kos-we-want-nyceve-s-diaries-front-paged'
p1994
aS'2015-06-20 14:42:17.434763'
p1995
aa(lp1996
I3
aI54
aI00
ag65
aI5
aI1
aI1
aI2
aI3
aI0
ag24
ag52
((lp1997
Vproblems
p1998
atRp1999
ag52
((lp2000
g1998
atRp2001
aS'http://www.dailykos.com/story/2008/03/09/472513/-WYFP-End-of-an-Era-Edition'
p2002
aS'2015-06-20 14:42:18.873721'
p2003
aa(lp2004
I3
aI55
aI00
ag65
aI5
aI0
aI2
aI22
aI3
aI0
ag24
ag52
((ltRp2005
ag52
((lp2006
g21
ag27
atRp2007
aS'http://theblackburnhouse.com/blog/'
p2008
aS'2015-06-20 14:42:23.825053'
p2009
aa(lp2010
I3
aI56
aI00
ag65
aI5
aI3
aI5
aI19
aI3
aI0
ag24
ag52
((lp2011
g26
ag28
ag27
atRp2012
ag52
((lp2013
g28
ag25
ag21
ag27
ag26
atRp2014
aS'http://www.newspapers.com/newspage/18847602/'
p2015
aS'2015-06-20 14:42:24.982793'
p2016
aa(lp2017
I3
aI57
aI00
ag65
aI5
aI0
aI5
aI28
aI3
aI0
ag24
ag52
((ltRp2018
ag52
((lp2019
g28
ag25
ag21
ag27
ag26
atRp2020
aS'http://www.archives.daytonsbluffdistrictforum.org/Past%20issues/November2008/DBDF_November2008Txt.html'
p2021
aS'2015-06-20 14:42:25.334952'
p2022
aa(lp2023
I3
aI58
aI00
ag65
aI5
aI0
aI0
aI0
aI3
aI0
ag24
ag52
((ltRp2024
ag52
((ltRp2025
aS'http://www.dtic.mil/cgi-bin/GetTRDoc?AD=AD0703615'
p2026
aS'2015-06-20 14:42:25.737485'
p2027
aa(lp2028
I3
aI59
aI00
ag65
aI5
aI0
aI5
aI40
aI3
aI0
ag24
ag52
((ltRp2029
ag52
((lp2030
g28
ag25
ag21
ag27
ag26
atRp2031
aS'http://www.caretaker.org/m.php?smPID=DBX::SAMPLES&_c=CURRENT&issue=novdec2012'
p2032
aS'2015-06-20 14:42:27.667581'
p2033
aa(lp2034
I3
aI60
aI00
ag65
aI5
aI2
aI5
aI20
aI3
aI0
ag24
ag52
((lp2035
g25
ag27
atRp2036
ag52
((lp2037
g28
ag25
ag21
ag27
ag26
atRp2038
aS'http://www.firstladies.org/bibliography/manuscripts.aspx?bioid=39'
p2039
aS'2015-06-20 14:42:30.264872'
p2040
aa(lp2041
I3
aI61
aI00
ag65
aI5
aI1
aI5
aI31
aI3
aI0
ag24
ag52
((lp2042
g21
atRp2043
ag52
((lp2044
g28
ag25
ag21
ag27
ag26
atRp2045
aS'http://www.laketahoenews.net/2014/09/sass-create-a-vision-the-south-shore-agrees-on/'
p2046
aS'2015-06-20 14:42:34.376402'
p2047
aa(lp2048
I3
aI62
aI00
ag65
aI5
aI2
aI5
aI23
aI3
aI0
ag24
ag52
((lp2049
g28
ag21
atRp2050
ag52
((lp2051
g28
ag25
ag21
ag27
ag26
atRp2052
aS'http://www.laketahoenews.net/2014/04/brown-promote-tourism-clean-industries/'
p2053
aS'2015-06-20 14:42:38.052986'
p2054
aa(lp2055
I3
aI63
aI00
ag65
aI5
aI3
aI5
aI11
aI3
aI0
ag24
ag52
((lp2056
g28
ag21
ag26
atRp2057
ag52
((lp2058
g28
ag25
ag21
ag27
ag26
atRp2059
aS'http://prezi.com/ejgipg1ifkew/pharmacotherapy-qualifying-program/'
p2060
aS'2015-06-20 14:42:40.360626'
p2061
aa(lp2062
I3
aI64
aI00
ag65
aI5
aI1
aI1
aI4
aI3
aI0
ag24
ag52
((lp2063
Vgardening
p2064
atRp2065
ag52
((lp2066
g2064
atRp2067
aS'http://articles.latimes.com/1988/mar/12'
p2068
aS'2015-06-20 14:42:41.329541'
p2069
aa(lp2070
I3
aI65
aI00
ag65
aI5
aI1
aI5
aI39
aI3
aI0
ag24
ag52
((lp2071
g27
atRp2072
ag52
((lp2073
g28
ag25
ag21
ag27
ag26
atRp2074
aS'http://sarahpalinhasaserpentsheart.blogspot.com/2011_07_10_archive.html'
p2075
aS'2015-06-20 14:42:48.773279'
p2076
aa(lp2077
I3
aI66
aI00
ag65
aI5
aI2
aI5
aI45
aI3
aI0
ag24
ag52
((lp2078
g25
ag26
atRp2079
ag52
((lp2080
g28
ag25
ag21
ag27
ag26
atRp2081
aS'http://www.heinleinsociety.org/updates/page/12/'
p2082
aS'2015-06-20 14:42:56.132807'
p2083
aa(lp2084
I3
aI67
aI00
ag65
aI5
aI0
aI5
aI36
aI3
aI0
ag24
ag52
((ltRp2085
ag52
((lp2086
g28
ag25
ag21
ag27
ag26
atRp2087
aS'http://www.mikenowak.net/pastshows40.htm'
p2088
aS'2015-06-20 14:42:56.462861'
p2089
aa(lp2090
I3
aI68
aI00
ag65
aI5
aI0
aI5
aI36
aI3
aI0
ag24
ag52
((ltRp2091
ag52
((lp2092
g28
ag25
ag21
ag27
ag26
atRp2093
aS'http://www.hplibrary.org/hpnews1968'
p2094
aS'2015-06-20 14:42:58.367608'
p2095
aa(lp2096
I3
aI69
aI00
ag65
aI5
aI2
aI5
aI29
aI3
aI0
ag24
ag52
((lp2097
g25
ag27
atRp2098
ag52
((lp2099
g28
ag25
ag21
ag27
ag26
atRp2100
aS'http://www.leasingnews.org/archives/September%202007/09-26-07.htm'
p2101
aS'2015-06-20 14:42:58.983487'
p2102
aa(lp2103
I3
aI70
aI00
ag65
aI5
aI0
aI5
aI36
aI3
aI0
ag24
ag52
((ltRp2104
ag52
((lp2105
g28
ag25
ag21
ag27
ag26
atRp2106
aS'http://www.kpms.blogspot.com/'
p2107
aS'2015-06-20 14:43:02.110117'
p2108
aa(lp2109
I3
aI71
aI00
ag65
aI5
aI0
aI0
aI0
aI3
aI0
ag24
ag52
((ltRp2110
ag52
((ltRp2111
aS'http://www.minnpost.com/glean/2012/11/michele-bachmann-spent-65-vote'
p2112
aS'2015-06-20 14:43:03.267954'
p2113
aa(lp2114
I3
aI72
aI00
ag65
aI5
aI0
aI5
aI24
aI3
aI0
ag24
ag52
((ltRp2115
ag52
((lp2116
g28
ag25
ag21
ag27
ag26
atRp2117
aS'http://www.babysitting.net/blog/'
p2118
aS'2015-06-20 14:43:04.268866'
p2119
aa(lp2120
I3
aI73
aI00
ag65
aI5
aI1
aI5
aI35
aI3
aI0
ag24
ag52
((lp2121
g25
atRp2122
ag52
((lp2123
g28
ag25
ag21
ag27
ag26
atRp2124
aS'http://malibusurfsidenews-blog.blogspot.com/2011_04_01_archive.html'
p2125
aS'2015-06-20 14:43:05.143429'
p2126
aa(lp2127
I3
aI74
aI00
ag65
aI5
aI2
aI5
aI30
aI3
aI0
ag24
ag52
((lp2128
g21
ag27
atRp2129
ag52
((lp2130
g28
ag25
ag21
ag27
ag26
atRp2131
aS'http://www.berkeleydailyplanet.com/issue/2008-07-31/article/30729?headline=Letters-to-the-Editor--'
p2132
aS'2015-06-20 14:43:06.251760'
p2133
aa(lp2134
I3
aI75
aI00
ag65
aI5
aI1
aI1
aI2
aI3
aI0
ag24
ag52
((lp2135
Vproblems
p2136
atRp2137
ag52
((lp2138
g2136
atRp2139
aS'http://dentistbaltimore.rpcv.info/dr-parker-dentist-pascagoula-page-UxR.htm'
p2140
aS'2015-06-20 14:43:08.366249'
p2141
aa(lp2142
I3
aI76
aI00
ag65
aI5
aI1
aI5
aI43
aI3
aI0
ag24
ag52
((lp2143
g25
atRp2144
ag52
((lp2145
g28
ag25
ag21
ag27
ag26
atRp2146
aS'http://www.highbeam.com/publications/the-washington-post-p5554/jun-7-2015'
p2147
aS'2015-06-20 14:43:15.518401'
p2148
aa(lp2149
I3
aI77
aI00
ag65
aI5
aI1
aI3
aI30
aI3
aI0
ag24
ag52
((lp2150
g21
atRp2151
ag52
((lp2152
g28
ag25
ag21
atRp2153
aS'https://oldhamlabourgroup.wordpress.com/author/oldhamlabourgroup/page/10/'
p2154
aS'2015-06-20 14:43:18.457638'
p2155
aa(lp2156
I3
aI78
aI00
ag65
aI5
aI1
aI5
aI19
aI3
aI0
ag24
ag52
((lp2157
g28
atRp2158
ag52
((lp2159
g28
ag25
ag21
ag27
ag26
atRp2160
aS'http://www.texasgopvote.com/hispanic-republican-conference-interviews/interview-rep-rodney-anderson-hispanic-republican-conference-video-002822'
p2161
aS'2015-06-20 14:43:20.834161'
p2162
aa(lp2163
I3
aI79
aI00
ag65
aI5
aI1
aI5
aI20
aI3
aI0
ag24
ag52
((lp2164
g27
atRp2165
ag52
((lp2166
g28
ag25
ag21
ag27
ag26
atRp2167
aS'http://caroleditosti.com/2015/03/'
p2168
aS'2015-06-20 14:43:23.522105'
p2169
aa(lp2170
I3
aI80
aI00
ag65
aI5
aI2
aI5
aI21
aI3
aI0
ag24
ag52
((lp2171
g26
ag27
atRp2172
ag52
((lp2173
g28
ag25
ag21
ag27
ag26
atRp2174
aS'http://www.laketahoenews.net/2010/06/grand-jury-chastises-south-lake-tahoe-council-city-manager/'
p2175
aS'2015-06-20 14:43:28.636514'
p2176
aa(lp2177
I3
aI81
aI00
ag65
aI5
aI2
aI5
aI38
aI3
aI0
ag24
ag52
((lp2178
g26
ag28
atRp2179
ag52
((lp2180
g28
ag25
ag21
ag27
ag26
atRp2181
aS'http://the570.com/page/8/?s=reel+report'
p2182
aS'2015-06-20 14:43:30.702983'
p2183
aa(lp2184
I3
aI82
aI00
ag65
aI5
aI0
aI5
aI18
aI3
aI0
ag24
ag52
((ltRp2185
ag52
((lp2186
g28
ag25
ag21
ag27
ag26
atRp2187
aS'http://well.blogs.nytimes.com/2010/02/04/communicating-with-a-patient-in-a-vegetative-state/comment-page-1/'
p2188
aS'2015-06-20 14:43:35.625263'
p2189
aa(lp2190
I3
aI83
aI00
ag65
aI5
aI1
aI5
aI23
aI3
aI0
ag24
ag52
((lp2191
g21
atRp2192
ag52
((lp2193
g28
ag25
ag21
ag27
ag26
atRp2194
aS'http://www.taistn.com/page.cfm?p=827'
p2195
aS'2015-06-20 14:43:36.988681'
p2196
aa(lp2197
I3
aI84
aI00
ag65
aI5
aI0
aI5
aI46
aI3
aI0
ag24
ag52
((ltRp2198
ag52
((lp2199
g28
ag25
ag21
ag27
ag26
atRp2200
aS'http://publish-it-online.com/display_article.php?id=1297920'
p2201
aS'2015-06-20 14:43:37.740921'
p2202
aa(lp2203
I3
aI85
aI00
ag65
aI5
aI2
aI5
aI20
aI3
aI0
ag24
ag52
((lp2204
g26
ag21
atRp2205
ag52
((lp2206
g28
ag25
ag21
ag27
ag26
atRp2207
aS'http://richmondprogressivealliance.net/info_archives/RPA77_Juneteenth.html'
p2208
aS'2015-06-20 14:43:38.272595'
p2209
aa(lp2210
I3
aI86
aI01
ag65
aI5
aI5
aI5
aI8
aI3
aI0
ag24
ag52
((lp2211
g28
ag25
ag21
ag27
ag26
atRp2212
ag52
((lp2213
g28
ag25
ag21
ag27
ag26
atRp2214
ag36
aS'2015-06-20 14:43:40.967043'
p2215
aa(lp2216
I4
aI1
aI00
ag65
aI5
aI3
aI5
aI9
aI4
aI0
ag31
ag52
((lp2217
g20
ag34
ag32
atRp2218
ag52
((lp2219
g33
ag35
ag20
ag34
ag32
atRp2220
aS'http://www.ebcdalecity.org/mediaplayer.cfm?id=3'
p2221
aS'2015-06-20 14:43:48.313150'
p2222
aa(lp2223
I4
aI2
aI00
ag65
aI5
aI2
aI5
aI9
aI4
aI0
ag31
ag52
((lp2224
g33
ag34
atRp2225
ag52
((lp2226
g33
ag35
ag20
ag34
ag32
atRp2227
aS'http://www.ebcdalecity.org/mediaplayer.cfm?id=149'
p2228
aS'2015-06-20 14:43:49.054305'
p2229
aa(lp2230
I4
aI3
aI00
ag65
aI5
aI4
aI5
aI9
aI4
aI0
ag31
ag52
((lp2231
g33
ag20
ag34
ag32
atRp2232
ag52
((lp2233
g33
ag35
ag20
ag34
ag32
atRp2234
aS'http://www.ebcdalecity.org/mediaplayer.cfm?id=156'
p2235
aS'2015-06-20 14:43:49.483079'
p2236
aa(lp2237
I4
aI4
aI00
ag65
aI5
aI3
aI5
aI9
aI4
aI0
ag31
ag52
((lp2238
g33
ag35
ag34
atRp2239
ag52
((lp2240
g33
ag35
ag20
ag34
ag32
atRp2241
aS'http://www.ebcdalecity.org/mediaplayer.cfm?id=146'
p2242
aS'2015-06-20 14:43:49.973983'
p2243
aa(lp2244
I4
aI5
aI00
ag65
aI5
aI4
aI5
aI9
aI4
aI0
ag31
ag52
((lp2245
g35
ag20
ag34
ag32
atRp2246
ag52
((lp2247
g33
ag35
ag20
ag34
ag32
atRp2248
aS'http://www.ebcdalecity.org/mediaplayer.cfm?id=21'
p2249
aS'2015-06-20 14:43:50.444565'
p2250
aa(lp2251
I4
aI6
aI00
ag65
aI5
aI3
aI5
aI9
aI4
aI0
ag31
ag52
((lp2252
g33
ag35
ag34
atRp2253
ag52
((lp2254
g33
ag35
ag20
ag34
ag32
atRp2255
aS'http://www.ebcdalecity.org/mediaplayer.cfm?id=127'
p2256
aS'2015-06-20 14:43:50.916713'
p2257
aa(lp2258
I4
aI7
aI00
ag65
aI5
aI3
aI5
aI9
aI4
aI0
ag31
ag52
((lp2259
g33
ag35
ag20
atRp2260
ag52
((lp2261
g33
ag35
ag20
ag34
ag32
atRp2262
aS'http://www.ebcdalecity.org/mediaplayer.cfm?id=65'
p2263
aS'2015-06-20 14:43:51.365813'
p2264
aa(lp2265
I4
aI8
aI00
ag65
aI5
aI1
aI5
aI37
aI4
aI0
ag31
ag52
((lp2266
g20
atRp2267
ag52
((lp2268
g33
ag35
ag20
ag34
ag32
atRp2269
aS'https://www.seattleu.edu/searchformeaning/authors/'
p2270
aS'2015-06-20 14:43:53.210264'
p2271
aa(lp2272
I4
aI9
aI00
ag65
aI5
aI3
aI5
aI11
aI4
aI0
ag31
ag52
((lp2273
g35
ag34
ag32
atRp2274
ag52
((lp2275
g33
ag35
ag20
ag34
ag32
atRp2276
aS'http://www.biblebelievers.com/montgomery/montgomery001.html'
p2277
aS'2015-06-20 14:43:53.415795'
p2278
aa(lp2279
I4
aI10
aI00
ag65
aI5
aI1
aI5
aI25
aI4
aI0
ag31
ag52
((lp2280
g20
atRp2281
ag52
((lp2282
g33
ag35
ag20
ag34
ag32
atRp2283
aS'http://travelshows.com/chicago-speaker-stages'
p2284
aS'2015-06-20 14:43:54.906196'
p2285
aa(lp2286
I4
aI11
aI00
ag65
aI5
aI2
aI5
aI17
aI4
aI0
ag31
ag52
((lp2287
g35
ag32
atRp2288
ag52
((lp2289
g33
ag35
ag20
ag34
ag32
atRp2290
aS'https://www.wordsmith.org/awad/awadmail184.html'
p2291
aS'2015-06-20 14:44:04.188285'
p2292
aa(lp2293
I4
aI12
aI00
ag65
aI5
aI3
aI5
aI16
aI4
aI0
ag31
ag52
((lp2294
g35
ag20
ag34
atRp2295
ag52
((lp2296
g33
ag35
ag20
ag34
ag32
atRp2297
aS'http://www.ling.upenn.edu/~wlabov/Papers/DFLC.htm'
p2298
aS'2015-06-20 14:44:04.547070'
p2299
aa(lp2300
I4
aI13
aI00
ag65
aI5
aI2
aI4
aI10
aI4
aI0
ag31
ag52
((lp2301
g35
ag32
atRp2302
ag52
((lp2303
g33
ag35
ag20
ag32
atRp2304
aS'http://www.crowdfundinsider.com/tag/snowball-effect/'
p2305
aS'2015-06-20 14:44:06.029517'
p2306
aa(lp2307
I4
aI14
aI00
ag65
aI5
aI0
aI5
aI36
aI4
aI0
ag31
ag52
((ltRp2308
ag52
((lp2309
g33
ag35
ag20
ag34
ag32
atRp2310
aS'http://psychwatch.blogspot.com/2006_12_24_archive.html'
p2311
aS'2015-06-20 14:44:07.777504'
p2312
aa(lp2313
I4
aI15
aI00
ag65
aI5
aI0
aI0
aI0
aI4
aI0
ag31
ag52
((ltRp2314
ag52
((ltRp2315
aS'http://www.nzpress.work/news/linda-evans'
p2316
aS'2015-06-20 14:44:14.835926'
p2317
aa(lp2318
I4
aI16
aI00
ag65
aI5
aI2
aI2
aI3
aI4
aI0
ag31
ag52
((lp2319
Vtimothy
p2320
aVanother
p2321
atRp2322
ag52
((lp2323
g2320
ag2321
atRp2324
aS'http://timreinhardt.com/new-zealand-pharmacieswith-viagra/'
p2325
aS'2015-06-20 14:44:17.773432'
p2326
aa(lp2327
I4
aI17
aI00
ag65
aI5
aI4
aI5
aI8
aI4
aI0
ag31
ag52
((lp2328
g35
ag20
ag34
ag32
atRp2329
ag52
((lp2330
g33
ag35
ag20
ag34
ag32
atRp2331
aS'http://www.khouse.org/articles/2010/927/print/'
p2332
aS'2015-06-20 14:44:18.065042'
p2333
aa(lp2334
I4
aI18
aI00
ag65
aI5
aI3
aI4
aI17
aI4
aI0
ag31
ag52
((lp2335
g33
ag34
ag32
atRp2336
ag52
((lp2337
g33
ag20
ag34
ag32
atRp2338
aS'http://www.timothywyllie.com/Meta87.htm'
p2339
aS'2015-06-20 14:44:18.600654'
p2340
aa(lp2341
I4
aI19
aI00
ag65
aI5
aI2
aI5
aI24
aI4
aI0
ag31
ag52
((lp2342
g34
ag32
atRp2343
ag52
((lp2344
g33
ag35
ag20
ag34
ag32
atRp2345
aS'http://www.bflnyc.org/'
p2346
aS'2015-06-20 14:44:25.642661'
p2347
aa(lp2348
I4
aI20
aI00
ag65
aI5
aI2
aI5
aI18
aI4
aI0
ag31
ag52
((lp2349
g34
ag32
atRp2350
ag52
((lp2351
g33
ag35
ag20
ag34
ag32
atRp2352
aS'http://www.rapidnet.com/~jbeard/bdm/exposes/palau/general.htm'
p2353
aS'2015-06-20 14:44:26.063853'
p2354
aa(lp2355
I4
aI21
aI00
ag65
aI5
aI0
aI0
aI1
aI4
aI0
ag31
ag52
((ltRp2356
ag52
((ltRp2357
aS'http://seanlinnane.blogspot.com/2012_07_01_archive.html'
p2358
aS'2015-06-20 14:44:33.762331'
p2359
aa(lp2360
I4
aI22
aI00
ag65
aI5
aI1
aI5
aI27
aI4
aI0
ag31
ag52
((lp2361
g20
atRp2362
ag52
((lp2363
g33
ag35
ag20
ag34
ag32
atRp2364
aS'http://www.crosswordfiend.com/blog/2015/01/08/friday-january-9-2015/'
p2365
aS'2015-06-20 14:44:37.402234'
p2366
aa(lp2367
I4
aI23
aI00
ag65
aI5
aI1
aI5
aI16
aI4
aI0
ag31
ag52
((lp2368
g20
atRp2369
ag52
((lp2370
g33
ag35
ag20
ag34
ag32
atRp2371
aS'http://creationtoday.org/hells-best-kept-secret/'
p2372
aS'2015-06-20 14:44:43.063503'
p2373
aa(lp2374
I4
aI24
aI00
ag65
aI5
aI2
aI5
aI17
aI4
aI0
ag31
ag52
((lp2375
g34
ag32
atRp2376
ag52
((lp2377
g33
ag35
ag20
ag34
ag32
atRp2378
aS'http://www.pikespeakchristian.org/about/elders-position-statement/'
p2379
aS'2015-06-20 14:44:45.643301'
p2380
aa(lp2381
I4
aI25
aI00
ag65
aI5
aI1
aI1
aI4
aI4
aI0
ag31
ag52
((lp2382
Vspeaker
p2383
atRp2384
ag52
((lp2385
g2383
atRp2386
aS'http://www.c-span.org/video/?306649-1/book-discussion-peaceful-revolution'
p2387
aS'2015-06-20 14:44:48.155746'
p2388
aa(lp2389
I4
aI26
aI00
ag65
aI5
aI2
aI5
aI20
aI4
aI0
ag31
ag52
((lp2390
g33
ag20
atRp2391
ag52
((lp2392
g33
ag35
ag20
ag34
ag32
atRp2393
aS'https://templeuabroad.wordpress.com/2014/05/'
p2394
aS'2015-06-20 14:44:50.389285'
p2395
aa(lp2396
I4
aI27
aI00
ag65
aI5
aI1
aI5
aI18
aI4
aI0
ag31
ag52
((lp2397
g34
atRp2398
ag52
((lp2399
g33
ag35
ag20
ag34
ag32
atRp2400
aS'https://templeuabroad.wordpress.com/category/temple-in-spain/'
p2401
aS'2015-06-20 14:44:51.740177'
p2402
aa(lp2403
I4
aI28
aI00
ag65
aI5
aI2
aI5
aI18
aI4
aI0
ag31
ag52
((lp2404
g35
ag32
atRp2405
ag52
((lp2406
g33
ag35
ag20
ag34
ag32
atRp2407
aS'https://templeuabroad.wordpress.com/category/temple-in-spain/spain/'
p2408
aS'2015-06-20 14:44:53.110086'
p2409
aa(lp2410
I4
aI29
aI00
ag65
aI5
aI4
aI4
aI11
aI4
aI0
ag31
ag52
((lp2411
g35
ag20
ag34
ag32
atRp2412
ag52
((lp2413
g35
ag20
ag34
ag32
atRp2414
aS'http://www.tpcfamily.org/index.php/component/content/category/2-uncategorised'
p2415
aS'2015-06-20 14:44:55.740559'
p2416
aa(lp2417
I4
aI30
aI00
ag65
aI5
aI2
aI5
aI23
aI4
aI0
ag31
ag52
((lp2418
g35
ag20
atRp2419
ag52
((lp2420
g33
ag35
ag20
ag34
ag32
atRp2421
aS'http://www.imdb.com/list/ls070741973/'
p2422
aS'2015-06-20 14:44:59.239383'
p2423
aa(lp2424
I4
aI31
aI00
ag65
aI5
aI0
aI5
aI33
aI4
aI0
ag31
ag52
((ltRp2425
ag52
((lp2426
g33
ag35
ag20
ag34
ag32
atRp2427
aS'http://www.shell.us/aboutshell/features-and-highlights.html'
p2428
aS'2015-06-20 14:45:07.663299'
p2429
aa(lp2430
I4
aI32
aI00
ag65
aI5
aI4
aI5
aI14
aI4
aI0
ag31
ag52
((lp2431
g33
ag20
ag34
ag32
atRp2432
ag52
((lp2433
g33
ag35
ag20
ag34
ag32
atRp2434
aS'http://lhim.org/blog/2012/06/12/how-important-is-%E2%80%9Cconditional-immortality%E2%80%9D/'
p2435
aS'2015-06-20 14:45:08.932566'
p2436
aa(lp2437
I4
aI33
aI00
ag65
aI5
aI0
aI5
aI29
aI4
aI0
ag31
ag52
((ltRp2438
ag52
((lp2439
g33
ag35
ag20
ag34
ag32
atRp2440
aS'https://www.ecommunity.com/cpn/pl/family-medicine-care'
p2441
aS'2015-06-20 14:45:10.856556'
p2442
aa(lp2443
I4
aI34
aI00
ag65
aI5
aI1
aI5
aI32
aI4
aI0
ag31
ag52
((lp2444
g35
atRp2445
ag52
((lp2446
g33
ag35
ag20
ag34
ag32
atRp2447
aS'http://www.reasonablefaith.org/testimonials'
p2448
aS'2015-06-20 14:45:13.066174'
p2449
aa(lp2450
I4
aI35
aI00
ag65
aI5
aI1
aI5
aI16
aI4
aI0
ag31
ag52
((lp2451
g35
atRp2452
ag52
((lp2453
g33
ag35
ag20
ag34
ag32
atRp2454
aS'https://www.gci.org/bible/acts7'
p2455
aS'2015-06-20 14:45:14.372755'
p2456
aa(lp2457
I4
aI36
aI01
ag65
aI5
aI5
aI5
aI6
aI4
aI0
ag31
ag52
((lp2458
g33
ag35
ag20
ag34
ag32
atRp2459
ag52
((lp2460
g33
ag35
ag20
ag34
ag32
atRp2461
ag44
aS'2015-06-20 14:45:16.510301'
p2462
aa(lp2463
I5
aI1
aI00
ag65
aI5
aI0
aI0
aI0
aI5
aI0
ag38
ag52
((ltRp2464
ag52
((ltRp2465
aS'http://retro-daze.org/site/forumPosts/uid/28'
p2466
aS'2015-06-20 14:45:29.558531'
p2467
aa(lp2468
I5
aI2
aI00
ag65
aI5
aI0
aI4
aI52
aI5
aI0
ag38
ag52
((ltRp2469
ag52
((lp2470
g40
ag42
ag43
ag39
atRp2471
aS'http://www.imdb.com/search/text?field=bio&q=Holes&realm=name&start=51'
p2472
aS'2015-06-20 14:45:30.518804'
p2473
aa(lp2474
I5
aI3
aI00
ag65
aI5
aI0
aI1
aI28
aI5
aI0
ag38
ag52
((ltRp2475
ag52
((lp2476
g40
atRp2477
aS'http://www.imdb.com/search/text?field=bio&q=Beyond&realm=name&start=101'
p2478
aS'2015-06-20 14:45:31.431427'
p2479
aa(lp2480
I5
aI4
aI00
ag65
aI5
aI1
aI5
aI53
aI5
aI0
ag38
ag52
((lp2481
g40
atRp2482
ag52
((lp2483
g40
ag42
ag43
ag41
ag39
atRp2484
aS'http://www.imdb.com/search/text?field=bio&q=Drive&realm=name&start=51'
p2485
aS'2015-06-20 14:45:32.972461'
p2486
aa(lp2487
I5
aI5
aI00
ag65
aI5
aI0
aI0
aI10
aI5
aI0
ag38
ag52
((ltRp2488
ag52
((ltRp2489
aS'http://www.imdb.com/search/title?count=100&has=asin-dvd-us&production_status=released&sort=user_rating,asc&start=52501'
p2490
aS'2015-06-20 14:45:37.671770'
p2491
aa(lp2492
I5
aI6
aI00
ag65
aI5
aI0
aI2
aI44
aI5
aI0
ag38
ag52
((ltRp2493
ag52
((lp2494
g39
ag41
atRp2495
aS'http://www.imdb.com/search/text?field=bio&q=Descendants,%20The&realm=name&start=101'
p2496
aS'2015-06-20 14:45:38.623176'
p2497
aa(lp2498
I5
aI7
aI00
ag65
aI5
aI1
aI5
aI47
aI5
aI0
ag38
ag52
((lp2499
g43
atRp2500
ag52
((lp2501
g40
ag42
ag43
ag41
ag39
atRp2502
aS'http://www.imdb.com/search/text?field=bio&q=genre&realm=name&start=51'
p2503
aS'2015-06-20 14:45:39.750594'
p2504
aa(lp2505
I5
aI8
aI00
ag65
aI5
aI0
aI3
aI46
aI5
aI0
ag38
ag52
((ltRp2506
ag52
((lp2507
g40
ag43
ag41
atRp2508
aS'http://www.imdb.com/search/text?field=bio&q=Intrigue&realm=name&start=251'
p2509
aS'2015-06-20 14:45:41.575089'
p2510
aa(lp2511
I5
aI9
aI00
ag65
aI5
aI0
aI5
aI41
aI5
aI0
ag38
ag52
((ltRp2512
ag52
((lp2513
g40
ag42
ag43
ag41
ag39
atRp2514
aS'http://biostor.org/reference/82250.text'
p2515
aS'2015-06-20 14:45:46.505145'
p2516
aa(lp2517
I5
aI10
aI00
ag65
aI5
aI0
aI0
aI0
aI5
aI0
ag38
ag52
((ltRp2518
ag52
((ltRp2519
aS'https://www.smashwords.com/books/download/243603/6/latest/0/0/all-the-lovely-creatures.txt'
p2520
aS'2015-06-20 14:45:47.025760'
p2521
aa(lp2522
I5
aI11
aI00
ag65
aI5
aI0
aI4
aI45
aI5
aI0
ag38
ag52
((ltRp2523
ag52
((lp2524
g40
ag42
ag39
ag41
atRp2525
aS'http://www.imdb.com/search/text?field=bio&q=diary&realm=name&start=151'
p2526
aS'2015-06-20 14:45:49.847541'
p2527
aa(lp2528
I5
aI12
aI00
ag65
aI5
aI0
aI3
aI42
aI5
aI0
ag38
ag52
((ltRp2529
ag52
((lp2530
g40
ag42
ag39
atRp2531
aS'http://www.imdb.com/search/text?field=bio&q=Repair&realm=name&start=51'
p2532
aS'2015-06-20 14:45:50.742493'
p2533
aa(lp2534
I5
aI13
aI00
ag65
aI5
aI0
aI4
aI54
aI5
aI0
ag38
ag52
((ltRp2535
ag52
((lp2536
g40
ag43
ag41
ag39
atRp2537
aS'http://www.imdb.com/search/text?field=bio&q=Outlaw,%20The&realm=name&start=51'
p2538
aS'2015-06-20 14:45:52.892768'
p2539
aa(lp2540
I5
aI14
aI00
ag65
aI5
aI0
aI5
aI51
aI5
aI0
ag38
ag52
((ltRp2541
ag52
((lp2542
g40
ag42
ag43
ag41
ag39
atRp2543
aS'http://www.imdb.com/search/text?field=bio&q=Pink%20floyd&realm=name&start=1'
p2544
aS'2015-06-20 14:45:53.735345'
p2545
aa(lp2546
I5
aI15
aI00
ag65
aI5
aI0
aI4
aI46
aI5
aI0
ag38
ag52
((ltRp2547
ag52
((lp2548
g39
ag42
ag43
ag41
atRp2549
aS'http://www.imdb.com/search/text?field=bio&q=year%2F2005%2F&realm=name&start=1'
p2550
aS'2015-06-20 14:45:55.109347'
p2551
aa(lp2552
I5
aI16
aI00
ag65
aI5
aI2
aI5
aI29
aI5
aI0
ag38
ag52
((lp2553
g39
ag41
atRp2554
ag52
((lp2555
g40
ag42
ag43
ag41
ag39
atRp2556
aS'http://www.imdb.com/search/text?field=plot&q=Exposure&realm=title&start=201'
p2557
aS'2015-06-20 14:45:56.845005'
p2558
aa(lp2559
I5
aI17
aI00
ag65
aI5
aI0
aI3
aI43
aI5
aI0
ag38
ag52
((ltRp2560
ag52
((lp2561
g40
ag43
ag39
atRp2562
aS'http://www.imdb.com/search/text?field=bio&q=Kane%20&realm=name&start=101'
p2563
aS'2015-06-20 14:45:58.074796'
p2564
aa(lp2565
I5
aI18
aI00
ag65
aI5
aI1
aI3
aI40
aI5
aI0
ag38
ag52
((lp2566
g40
atRp2567
ag52
((lp2568
g40
ag43
ag41
atRp2569
aS'http://www.imdb.com/search/text?field=bio&q=%2522Partners,%20The%2522&realm=name&start=1'
p2570
aS'2015-06-20 14:45:59.137881'
p2571
aa(lp2572
I5
aI19
aI00
ag65
aI5
aI1
aI5
aI32
aI5
aI0
ag38
ag52
((lp2573
g40
atRp2574
ag52
((lp2575
g40
ag42
ag43
ag41
ag39
atRp2576
aS'http://www.wewantsexualfreedom.com/?p=28462'
p2577
aS'2015-06-20 14:46:09.104511'
p2578
aa(lp2579
I5
aI20
aI00
ag65
aI5
aI2
aI5
aI39
aI5
aI0
ag38
ag52
((lp2580
g40
ag42
atRp2581
ag52
((lp2582
g40
ag42
ag43
ag41
ag39
atRp2583
aS'https://www.worldswithoutend.com/searchwwe.asp?st=The+Year&'
p2584
aS'2015-06-20 14:46:14.286174'
p2585
aa(lp2586
I5
aI21
aI00
ag65
aI5
aI0
aI4
aI47
aI5
aI0
ag38
ag52
((ltRp2587
ag52
((lp2588
g39
ag42
ag43
ag41
atRp2589
aS'http://www.imdb.com/search/text?realm=name&field=bio&q=Sentinel,%20The'
p2590
aS'2015-06-20 14:46:15.336764'
p2591
aa(lp2592
I5
aI22
aI00
ag65
aI5
aI0
aI0
aI2
aI5
aI0
ag38
ag52
((ltRp2593
ag52
((ltRp2594
aS'http://www.imdb.com/search/text?realm=name&field=bio&q=Net,%20The'
p2595
aS'2015-06-20 14:46:16.340311'
p2596
aa(lp2597
I5
aI23
aI00
ag65
aI5
aI1
aI5
aI40
aI5
aI0
ag38
ag52
((lp2598
g40
atRp2599
ag52
((lp2600
g40
ag42
ag43
ag41
ag39
atRp2601
aS'http://www.imdb.com/search/text?realm=name&field=bio&q=Starship'
p2602
aS'2015-06-20 14:46:17.202109'
p2603
aa(lp2604
I5
aI24
aI00
ag65
aI5
aI1
aI5
aI58
aI5
aI0
ag38
ag52
((lp2605
g43
atRp2606
ag52
((lp2607
g40
ag42
ag43
ag41
ag39
atRp2608
aS'http://www.imdb.com/search/text?realm=name&field=bio&q=Formula,%20The'
p2609
aS'2015-06-20 14:46:19.142361'
p2610
aa(lp2611
I5
aI25
aI00
ag65
aI5
aI0
aI5
aI47
aI5
aI0
ag38
ag52
((ltRp2612
ag52
((lp2613
g40
ag42
ag43
ag41
ag39
atRp2614
aS'http://www.imdb.com/search/text?realm=name&field=bio&q=Jennifer%20Aniston'
p2615
aS'2015-06-20 14:46:20.236806'
p2616
aa(lp2617
I5
aI26
aI00
ag65
aI5
aI0
aI5
aI47
aI5
aI0
ag38
ag52
((ltRp2618
ag52
((lp2619
g40
ag42
ag43
ag41
ag39
atRp2620
aS'http://www.imdb.com/search/text?realm=name&field=bio&q=Confidence'
p2621
aS'2015-06-20 14:46:21.644908'
p2622
aa(lp2623
I5
aI27
aI00
ag65
aI5
aI0
aI5
aI48
aI5
aI0
ag38
ag52
((ltRp2624
ag52
((lp2625
g40
ag42
ag43
ag41
ag39
atRp2626
aS'http://www.imdb.com/search/text?realm=name&field=bio&q=twisted'
p2627
aS'2015-06-20 14:46:23.320826'
p2628
aa(lp2629
I5
aI28
aI00
ag65
aI5
aI0
aI5
aI47
aI5
aI0
ag38
ag52
((ltRp2630
ag52
((lp2631
g40
ag42
ag43
ag41
ag39
atRp2632
aS'http://www.imdb.com/search/text?realm=name&field=bio&q=TV%20Nation'
p2633
aS'2015-06-20 14:46:24.304946'
p2634
aa(lp2635
I5
aI29
aI00
ag65
aI5
aI1
aI5
aI23
aI5
aI0
ag38
ag52
((lp2636
g42
atRp2637
ag52
((lp2638
g40
ag42
ag43
ag41
ag39
atRp2639
aS'http://bookreviewsbyjasmine.blogspot.com/2015/06/back-stage-by-t-gephart-book-blitz.html'
p2640
aS'2015-06-20 14:46:27.239976'
p2641
aa(lp2642
I5
aI30
aI00
ag65
aI5
aI0
aI4
aI39
aI5
aI0
ag38
ag52
((ltRp2643
ag52
((lp2644
g39
ag42
ag43
ag41
atRp2645
aS'http://www.imdb.com/search/text?realm=name&field=bio&q=TV%20Nation'
p2646
aS'2015-06-20 14:46:30.240313'
p2647
aa(lp2648
I5
aI31
aI00
ag65
aI5
aI1
aI5
aI43
aI5
aI0
ag38
ag52
((lp2649
g42
atRp2650
ag52
((lp2651
g40
ag42
ag43
ag41
ag39
atRp2652
aS'http://www.imdb.com/search/text?realm=name&field=bio&q=Cheech%2520'
p2653
aS'2015-06-20 14:46:31.919156'
p2654
aa(lp2655
I5
aI32
aI00
ag65
aI5
aI2
aI5
aI57
aI5
aI0
ag38
ag52
((lp2656
g39
ag41
atRp2657
ag52
((lp2658
g40
ag42
ag43
ag41
ag39
atRp2659
aS'http://www.imdb.com/search/text?realm=name&field=bio&q=The%20Glow'
p2660
aS'2015-06-20 14:46:33.305069'
p2661
aa(lp2662
I5
aI33
aI00
ag65
aI5
aI2
aI5
aI42
aI5
aI0
ag38
ag52
((lp2663
g42
ag41
atRp2664
ag52
((lp2665
g40
ag42
ag43
ag41
ag39
atRp2666
aS'http://www.imdb.com/search/text?realm=name&field=bio&q=Rod%20Steiger&'
p2667
aS'2015-06-20 14:46:34.429631'
p2668
aa(lp2669
I5
aI34
aI00
ag65
aI5
aI0
aI4
aI37
aI5
aI0
ag38
ag52
((ltRp2670
ag52
((lp2671
g40
ag42
ag43
ag39
atRp2672
aS'http://www.imdb.com/search/text?realm=name&field=bio&q=Mad%20TV'
p2673
aS'2015-06-20 14:46:35.563129'
p2674
aa(lp2675
I5
aI35
aI00
ag65
aI5
aI1
aI5
aI46
aI5
aI0
ag38
ag52
((lp2676
g43
atRp2677
ag52
((lp2678
g40
ag42
ag43
ag41
ag39
atRp2679
aS'http://www.imdb.com/search/text?realm=name&field=bio&q=Mask%252C%20The'
p2680
aS'2015-06-20 14:46:36.855789'
p2681
aa(lp2682
I5
aI36
aI00
ag65
aI5
aI1
aI4
aI34
aI5
aI0
ag38
ag52
((lp2683
g41
atRp2684
ag52
((lp2685
g40
ag42
ag39
ag41
atRp2686
aS'http://sxsw2010.sched.org/list/descriptions/type/panel'
p2687
aS'2015-06-20 14:46:44.409185'
p2688
aa(lp2689
I5
aI37
aI00
ag65
aI5
aI0
aI5
aI43
aI5
aI0
ag38
ag52
((ltRp2690
ag52
((lp2691
g40
ag42
ag43
ag41
ag39
atRp2692
aS'http://melbourne.indywatch.org/archiver/melbourne.indywatch.org/resources/timemachine/2015/103/index.html'
p2693
aS'2015-06-20 14:46:45.093908'
p2694
aa(lp2695
I5
aI38
aI00
ag65
aI5
aI1
aI5
aI33
aI5
aI0
ag38
ag52
((lp2696
g39
atRp2697
ag52
((lp2698
g40
ag42
ag43
ag41
ag39
atRp2699
aS'https://justonemoreclick.wordpress.com/links-04/'
p2700
aS'2015-06-20 14:46:46.653512'
p2701
aa(lp2702
I5
aI39
aI00
ag65
aI5
aI0
aI0
aI0
aI5
aI0
ag38
ag52
((ltRp2703
ag52
((ltRp2704
aS'http://www.perseus.tufts.edu/hopper/dltext?doc=Perseus%3Atext%3A2001.05.0320'
p2705
aS'2015-06-20 14:46:47.841188'
p2706
aa(lp2707
I5
aI40
aI00
ag65
aI5
aI0
aI0
aI2
aI5
aI0
ag38
ag52
((ltRp2708
ag52
((ltRp2709
aS'http://www.hollywood.com/celebrities/55458328/w-scott?page=7'
p2710
aS'2015-06-20 14:46:50.962887'
p2711
aa(lp2712
I5
aI41
aI00
ag65
aI5
aI0
aI0
aI5
aI5
aI0
ag38
ag52
((ltRp2713
ag52
((ltRp2714
aS'http://www.hollywood.com/celebrities/1243369/paris-davis?page=7'
p2715
aS'2015-06-20 14:46:53.257054'
p2716
aa(lp2717
I5
aI42
aI00
ag65
aI5
aI0
aI0
aI5
aI5
aI0
ag38
ag52
((ltRp2718
ag52
((ltRp2719
aS'http://www.hollywood.com/celebrities/56402589/they-might-be-giants?page=6'
p2720
aS'2015-06-20 14:46:55.729547'
p2721
aa(lp2722
I5
aI43
aI00
ag65
aI5
aI0
aI0
aI3
aI5
aI0
ag38
ag52
((ltRp2723
ag52
((ltRp2724
aS'http://www.hollywood.com/celebrities/3136973/michael-carlos'
p2725
aS'2015-06-20 14:46:58.981005'
p2726
aa(lp2727
I5
aI44
aI00
ag65
aI5
aI0
aI5
aI70
aI5
aI0
ag38
ag52
((ltRp2728
ag52
((lp2729
g40
ag42
ag43
ag41
ag39
atRp2730
aS'http://maximizedlivingdrhardick.com/holstein-style-schnitzel'
p2731
aS'2015-06-20 14:47:06.568346'
p2732
aa(lp2733
I5
aI45
aI00
ag65
aI5
aI1
aI5
aI26
aI5
aI0
ag38
ag52
((lp2734
g40
atRp2735
ag52
((lp2736
g40
ag42
ag43
ag41
ag39
atRp2737
aS'http://whatchagot.pbworks.com/'
p2738
aS'2015-06-20 14:47:08.254804'
p2739
aa(lp2740
I5
aI46
aI00
ag65
aI5
aI2
aI3
aI33
aI5
aI0
ag38
ag52
((lp2741
g39
ag41
atRp2742
ag52
((lp2743
g40
ag39
ag41
atRp2744
aS'http://www.ilxor.com/ILX/ThreadSelectedControllerServlet?action=showall&boardid=40&threadid=82467'
p2745
aS'2015-06-20 14:47:11.090011'
p2746
aa(lp2747
I5
aI47
aI00
ag65
aI5
aI0
aI0
aI2
aI5
aI0
ag38
ag52
((ltRp2748
ag52
((ltRp2749
aS'http://www.revolvy.com/main/index.php?s=The%20Dutch%20Shoe%20Mystery'
p2750
aS'2015-06-20 14:47:11.917724'
p2751
aa(lp2752
I5
aI48
aI00
ag65
aI5
aI1
aI5
aI32
aI5
aI0
ag38
ag52
((lp2753
g39
atRp2754
ag52
((lp2755
g40
ag42
ag43
ag41
ag39
atRp2756
aS'http://bellaorlandwiaya9a.blogspot.com/'
p2757
aS'2015-06-20 14:47:13.725056'
p2758
aa(lp2759
I5
aI49
aI00
ag65
aI5
aI1
aI5
aI34
aI5
aI0
ag38
ag52
((lp2760
g43
atRp2761
ag52
((lp2762
g40
ag42
ag43
ag41
ag39
atRp2763
aS'http://nzhetyarindia.blogspot.com/'
p2764
aS'2015-06-20 14:47:15.427268'
p2765
aa(lp2766
I5
aI50
aI00
ag65
aI5
aI0
aI5
aI26
aI5
aI0
ag38
ag52
((ltRp2767
ag52
((lp2768
g40
ag42
ag43
ag41
ag39
atRp2769
aS'http://alfriansyahraihan.blogspot.com/2014/11/lady-gaga.html'
p2770
aS'2015-06-20 14:47:18.993503'
p2771
aa(lp2772
I5
aI51
aI00
ag65
aI5
aI0
aI0
aI0
aI5
aI0
ag38
ag52
((ltRp2773
ag52
((ltRp2774
aS'http://www.strandbooks.com/fiction/_/resultsPerPage/120/page/46/showAll/0/sortType/titleAsc/?condition=Used&searchCategoryIDs=49a00277-a58e-40f2-b340-f2e9523cf1ac'
p2775
aS'2015-06-20 14:47:26.062475'
p2776
aa(lp2777
I5
aI52
aI00
ag65
aI5
aI0
aI5
aI29
aI5
aI0
ag38
ag52
((ltRp2778
ag52
((lp2779
g40
ag42
ag43
ag41
ag39
atRp2780
aS'https://mrtsblog.wordpress.com/tag/newspaper/'
p2781
aS'2015-06-20 14:47:27.905996'
p2782
aa(lp2783
I5
aI53
aI00
ag65
aI5
aI0
aI0
aI4
aI5
aI0
ag38
ag52
((ltRp2784
ag52
((ltRp2785
aS'http://www.hollywood.com/celebrities/56115699/jim-cash?page=6'
p2786
aS'2015-06-20 14:47:31.497639'
p2787
aa(lp2788
I5
aI54
aI00
ag65
aI5
aI0
aI0
aI5
aI5
aI0
ag38
ag52
((ltRp2789
ag52
((ltRp2790
aS'http://www.hollywood.com/celebrities/193614/tom-mix?page=7'
p2791
aS'2015-06-20 14:47:32.908942'
p2792
aa(lp2793
I5
aI55
aI00
ag65
aI5
aI0
aI0
aI6
aI5
aI0
ag38
ag52
((ltRp2794
ag52
((ltRp2795
aS'http://www.hollywood.com/celebrities/3337739/oscar-a-rodriguez?page=2'
p2796
aS'2015-06-20 14:47:35.054938'
p2797
aa(lp2798
I5
aI56
aI00
ag65
aI5
aI0
aI0
aI4
aI5
aI0
ag38
ag52
((ltRp2799
ag52
((ltRp2800
aS'http://www.hollywood.com/celebrities/1558003/patricia-taylor?page=9'
p2801
aS'2015-06-20 14:47:36.825255'
p2802
aa(lp2803
I5
aI57
aI00
ag65
aI5
aI0
aI0
aI6
aI5
aI0
ag38
ag52
((ltRp2804
ag52
((ltRp2805
aS'http://www.hollywood.com/celebrities/56615137/brian-lang?page=2'
p2806
aS'2015-06-20 14:47:38.586462'
p2807
aa(lp2808
I5
aI58
aI00
ag65
aI5
aI0
aI0
aI6
aI5
aI0
ag38
ag52
((ltRp2809
ag52
((ltRp2810
aS'http://www.hollywood.com/celebrities/56428263/spencer-newman?page=2'
p2811
aS'2015-06-20 14:47:40.659902'
p2812
aa(lp2813
I5
aI59
aI00
ag65
aI5
aI0
aI0
aI6
aI5
aI0
ag38
ag52
((ltRp2814
ag52
((ltRp2815
aS'http://www.hollywood.com/celebrities/5789246/bob-ryan?page=11'
p2816
aS'2015-06-20 14:47:42.855979'
p2817
aa(lp2818
I5
aI60
aI00
ag65
aI5
aI0
aI0
aI6
aI5
aI0
ag38
ag52
((ltRp2819
ag52
((ltRp2820
aS'http://www.hollywood.com/celebrities/55409533/ken-worth?page=10'
p2821
aS'2015-06-20 14:47:46.294762'
p2822
aa(lp2823
I5
aI61
aI00
ag65
aI5
aI0
aI0
aI6
aI5
aI0
ag38
ag52
((ltRp2824
ag52
((ltRp2825
aS'http://www.hollywood.com/celebrities/56539074/julia-hills?page=6'
p2826
aS'2015-06-20 14:47:50.141246'
p2827
aa(lp2828
I5
aI62
aI00
ag65
aI5
aI0
aI0
aI5
aI5
aI0
ag38
ag52
((ltRp2829
ag52
((ltRp2830
aS'http://www.hollywood.com/celebrities/55515137/phil-carter?page=4'
p2831
aS'2015-06-20 14:47:51.350865'
p2832
aa(lp2833
I5
aI63
aI00
ag65
aI5
aI3
aI3
aI5
aI5
aI0
ag38
ag52
((lp2834
Vfunds
p2835
aVcompilation
p2836
aVgibson
p2837
atRp2838
ag52
((lp2839
g2835
ag2836
ag2837
atRp2840
aS'http://www.williamgibsonboard.com/topic/4393793103308889?reply=4393793103443683'
p2841
aS'2015-06-20 14:47:55.395475'
p2842
aa(lp2843
I5
aI64
aI00
ag65
aI5
aI2
aI4
aI13
aI5
aI0
ag38
ag52
((lp2844
g40
ag42
atRp2845
ag52
((lp2846
g40
ag42
ag43
ag41
atRp2847
aS'http://www.williamgibsonboard.com/topic/4393793103308889?reply=4393793103443767'
p2848
aS'2015-06-20 14:47:56.931057'
p2849
aa(lp2850
I5
aI65
aI00
ag65
aI5
aI2
aI4
aI17
aI5
aI0
ag38
ag52
((lp2851
g40
ag42
atRp2852
ag52
((lp2853
g40
ag42
ag43
ag41
atRp2854
aS'http://www.williamgibsonboard.com/topic/4393793103308889?reply=4393793103443703'
p2855
aS'2015-06-20 14:47:58.479993'
p2856
aa(lp2857
I5
aI66
aI00
ag65
aI5
aI3
aI4
aI13
aI5
aI0
ag38
ag52
((lp2858
g42
ag43
ag41
atRp2859
ag52
((lp2860
g40
ag42
ag43
ag41
atRp2861
aS'http://www.williamgibsonboard.com/topic/4393793103308889?reply=4393793103443763'
p2862
aS'2015-06-20 14:47:59.992053'
p2863
aa(lp2864
I5
aI67
aI00
ag65
aI5
aI1
aI4
aI14
aI5
aI0
ag38
ag52
((lp2865
g43
atRp2866
ag52
((lp2867
g40
ag42
ag43
ag41
atRp2868
aS'http://www.williamgibsonboard.com/topic/4393793103308889?reply=4393793103443775'
p2869
aS'2015-06-20 14:48:01.621453'
p2870
aa(lp2871
I5
aI68
aI00
ag65
aI5
aI1
aI3
aI35
aI5
aI0
ag38
ag52
((lp2872
g40
atRp2873
ag52
((lp2874
g40
ag39
ag41
atRp2875
aS'http://www.deviantart.com/browse/all/fanart/?view_mode=2&order=9&q=trusted+cabling'
p2876
aS'2015-06-20 14:48:09.357593'
p2877
aa(lp2878
I5
aI69
aI00
ag65
aI5
aI1
aI5
aI18
aI5
aI0
ag38
ag52
((lp2879
g41
atRp2880
ag52
((lp2881
g40
ag42
ag43
ag41
ag39
atRp2882
aS'http://portugal.usbooks.press/261494.The_Oxford_Book_of_Science_Fiction_Stories.html'
p2883
aS'2015-06-20 14:48:10.118294'
p2884
aa(lp2885
I5
aI70
aI00
ag65
aI5
aI1
aI5
aI29
aI5
aI0
ag38
ag52
((lp2886
g42
atRp2887
ag52
((lp2888
g40
ag42
ag43
ag41
ag39
atRp2889
aS'http://www.deviantart.com/browse/all/fanart/?view_mode=2&order=9&q=Real-estate+ventures'
p2890
aS'2015-06-20 14:48:14.697121'
p2891
aa(lp2892
I5
aI71
aI00
ag65
aI5
aI1
aI5
aI29
aI5
aI0
ag38
ag52
((lp2893
g39
atRp2894
ag52
((lp2895
g40
ag42
ag43
ag41
ag39
atRp2896
aS'http://www.deviantart.com/browse/all/?view_mode=2&order=5&q=halloween+tangled'
p2897
aS'2015-06-20 14:48:16.472005'
p2898
aa(lp2899
I5
aI72
aI00
ag65
aI5
aI1
aI5
aI28
aI5
aI0
ag38
ag52
((lp2900
g43
atRp2901
ag52
((lp2902
g40
ag42
ag43
ag41
ag39
atRp2903
aS'http://www.deviantart.com/browse/all/?view_mode=2&order=5&q=Wonder+Woman+mike+jr'
p2904
aS'2015-06-20 14:48:18.922434'
p2905
aa(lp2906
I5
aI73
aI00
ag65
aI5
aI0
aI0
aI1
aI5
aI0
ag38
ag52
((ltRp2907
ag52
((ltRp2908
aS'http://www.canmag.com/movies/2/20/10'
p2909
aS'2015-06-20 14:48:20.658852'
p2910
aa(lp2911
I5
aI74
aI00
ag65
aI5
aI0
aI5
aI19
aI5
aI0
ag38
ag52
((ltRp2912
ag52
((lp2913
g40
ag42
ag43
ag41
ag39
atRp2914
aS'http://www.williamgibsonboard.com/topic/4393793103308889?reply=4393793103443715'
p2915
aS'2015-06-20 14:48:22.976790'
p2916
aa(lp2917
I5
aI75
aI00
ag65
aI5
aI1
aI4
aI15
aI5
aI0
ag38
ag52
((lp2918
g42
atRp2919
ag52
((lp2920
g40
ag42
ag43
ag41
atRp2921
aS'http://www.williamgibsonboard.com/topic/4393793103308889?reply=4393793103443783'
p2922
aS'2015-06-20 14:48:24.537458'
p2923
aa(lp2924
I5
aI76
aI00
ag65
aI5
aI0
aI0
aI0
aI5
aI0
ag38
ag52
((ltRp2925
ag52
((ltRp2926
aS'http://aisenfield.smfforfree4.com/index.php?action=printpage;topic=2479.0'
p2927
aS'2015-06-20 14:48:29.279042'
p2928
aa(lp2929
I5
aI77
aI00
ag65
aI5
aI2
aI5
aI33
aI5
aI0
ag38
ag52
((lp2930
g40
ag39
atRp2931
ag52
((lp2932
g40
ag42
ag43
ag41
ag39
atRp2933
aS'http://athena.uky.edu/static/news/blunews/blunews_KUK-blu1903030801.html'
p2934
aS'2015-06-20 14:48:29.652083'
p2935
aa(lp2936
I5
aI78
aI00
ag65
aI5
aI0
aI2
aI48
aI5
aI0
ag38
ag52
((ltRp2937
ag52
((lp2938
g39
ag41
atRp2939
aS'http://minx.cc:1080/?post=350191/'
p2940
aS'2015-06-20 14:48:33.812315'
p2941
aa(lp2942
I5
aI79
aI00
ag65
aI5
aI1
aI5
aI51
aI5
aI0
ag38
ag52
((lp2943
g40
atRp2944
ag52
((lp2945
g40
ag42
ag43
ag41
ag39
atRp2946
aS'http://austin2011.sched.org/IanEdery/list/descriptions/'
p2947
aS'2015-06-20 14:48:36.775422'
p2948
aa(lp2949
I5
aI80
aI00
ag65
aI5
aI1
aI5
aI43
aI5
aI0
ag38
ag52
((lp2950
g43
atRp2951
ag52
((lp2952
g40
ag42
ag43
ag41
ag39
atRp2953
aS'http://austin2011.sched.org/bigsnax/list/descriptions/'
p2954
aS'2015-06-20 14:48:40.831535'
p2955
aa(lp2956
I5
aI81
aI00
ag65
aI5
aI0
aI5
aI45
aI5
aI0
ag38
ag52
((ltRp2957
ag52
((lp2958
g40
ag42
ag43
ag41
ag39
atRp2959
aS'http://austin2011.sched.org/alyssaj/list/descriptions/'
p2960
aS'2015-06-20 14:48:42.571985'
p2961
aa(lp2962
I5
aI82
aI00
ag65
aI5
aI2
aI5
aI41
aI5
aI0
ag38
ag52
((lp2963
g43
ag41
atRp2964
ag52
((lp2965
g40
ag42
ag43
ag41
ag39
atRp2966
aS'http://austin2011.sched.org/caitlinm74/list/descriptions/'
p2967
aS'2015-06-20 14:48:45.962829'
p2968
aa(lp2969
I5
aI83
aI00
ag65
aI5
aI0
aI0
aI0
aI5
aI0
ag38
ag52
((ltRp2970
ag52
((ltRp2971
aS'https://etd.ohiolink.edu/!etd.send_file?accession=bgsu1345235126&disposition=inline'
p2972
aS'2015-06-20 14:48:46.181782'
p2973
aa(lp2974
I5
aI84
aI00
ag65
aI5
aI1
aI5
aI36
aI5
aI0
ag38
ag52
((lp2975
g43
atRp2976
ag52
((lp2977
g40
ag42
ag43
ag41
ag39
atRp2978
aS'http://fan.tcm.com/films/and-no-one-could-save-her'
p2979
aS'2015-06-20 14:48:47.618473'
p2980
aa(lp2981
I5
aI85
aI00
ag65
aI5
aI0
aI5
aI55
aI5
aI0
ag38
ag52
((ltRp2982
ag52
((lp2983
g40
ag42
ag43
ag41
ag39
atRp2984
aS'http://fan.tcm.com/films/hamsun'
p2985
aS'2015-06-20 14:48:48.313621'
p2986
aa(lp2987
I5
aI86
aI00
ag65
aI5
aI0
aI0
aI0
aI5
aI0
ag38
ag52
((ltRp2988
ag52
((ltRp2989
aS'http://www.munseys.com/diskthree/amadvdex.htm'
p2990
aS'2015-06-20 14:48:48.982188'
p2991
aa(lp2992
I5
aI87
aI00
ag65
aI5
aI0
aI5
aI55
aI5
aI0
ag38
ag52
((ltRp2993
ag52
((lp2994
g40
ag42
ag43
ag41
ag39
atRp2995
aS'http://www.dailycourierpages.com/dcp_archive/sept2013/092813/data/search.xml'
p2996
aS'2015-06-20 14:48:49.641455'
p2997
aa(lp2998
I5
aI88
aI00
ag65
aI5
aI1
aI5
aI65
aI5
aI0
ag38
ag52
((lp2999
g39
atRp3000
ag52
((lp3001
g40
ag42
ag43
ag41
ag39
atRp3002
aS'http://www.dpsale.com/ProductDetails.aspx?productID=1068'
p3003
aS'2015-06-20 14:48:51.985150'
p3004
aa(lp3005
I5
aI89
aI00
ag65
aI5
aI0
aI0
aI3
aI5
aI0
ag38
ag52
((ltRp3006
ag52
((ltRp3007
aS'http://www.learningace.com/topic/600005094-accounts-receivable'
p3008
aS'2015-06-20 14:48:57.230749'
p3009
aa(lp3010
I5
aI90
aI00
ag65
aI5
aI0
aI5
aI44
aI5
aI0
ag38
ag52
((ltRp3011
ag52
((lp3012
g40
ag42
ag43
ag41
ag39
atRp3013
aS'http://austin2011.sched.org/katarokkar/list/descriptions/'
p3014
aS'2015-06-20 14:49:01.821156'
p3015
aa(lp3016
I5
aI91
aI00
ag65
aI5
aI0
aI5
aI37
aI5
aI0
ag38
ag52
((ltRp3017
ag52
((lp3018
g40
ag42
ag43
ag41
ag39
atRp3019
aS'http://ugrad.cs.jhu.edu/~proberts/hw2/DVD.tokenize.hist'
p3020
aS'2015-06-20 14:49:02.949801'
p3021
aa(lp3022
I5
aI92
aI00
ag65
aI5
aI0
aI3
aI30
aI5
aI0
ag38
ag52
((ltRp3023
ag52
((lp3024
g39
ag43
ag41
atRp3025
aS'http://www.asylumnation.com/asylum/printthread.php?s=28f2fb76b57a79e1612897888a27e528&threadid=56233&perpage=843'
p3026
aS'2015-06-20 14:49:06.847388'
p3027
aa(lp3028
I5
aI93
aI00
ag65
aI5
aI1
aI5
aI20
aI5
aI0
ag38
ag52
((lp3029
g43
atRp3030
ag52
((lp3031
g40
ag42
ag43
ag41
ag39
atRp3032
aS'http://www.bookbase.com/search-result?search=%2Cauthor%3Djames%2Blewis%2CuploadedStart%3D0%2CuploadedEnd%3D9223372036854775807%2Clength%3D50&page=1'
p3033
aS'2015-06-20 14:49:10.913669'
p3034
aa(lp3035
I5
aI94
aI00
ag65
aI5
aI1
aI4
aI36
aI5
aI0
ag38
ag52
((lp3036
g39
atRp3037
ag52
((lp3038
g40
ag43
ag41
ag39
atRp3039
aS'https://www.classicvideoarchives.com/search.php?clearSearch=true&searchPhrase=Arizona%252520Days'
p3040
aS'2015-06-20 14:49:18.226751'
p3041
aa(lp3042
I5
aI95
aI00
ag65
aI5
aI1
aI4
aI36
aI5
aI0
ag38
ag52
((lp3043
g39
atRp3044
ag52
((lp3045
g40
ag43
ag41
ag39
atRp3046
aS'https://www.classicvideoarchives.com/search.php?clearSearch=true&searchPhrase=Robert%252520Urich'
p3047
aS'2015-06-20 14:49:25.695436'
p3048
aa(lp3049
I5
aI96
aI00
ag65
aI5
aI0
aI0
aI0
aI5
aI0
ag38
ag52
((ltRp3050
ag52
((ltRp3051
aS'http://www.forbes.com/sites/zackomalleygreenburg/2014/02/19/tyga-cash-moneys-next-cash-king/'
p3052
aS'2015-06-20 14:49:26.173604'
p3053
aa(lp3054
I5
aI97
aI00
ag65
aI5
aI1
aI5
aI36
aI5
aI0
ag38
ag52
((lp3055
g42
atRp3056
ag52
((lp3057
g40
ag42
ag43
ag41
ag39
atRp3058
aS'https://www.themoviedb.org/tv/4231-walt-disney-s-wonderful-world-of-color/episodes?credit_id=52575fb2760ee36aaa2e085f&person_id=4bc89a3c017a3c122d01fb25'
p3059
aS'2015-06-20 14:49:30.712769'
p3060
aa(lp3061
I5
aI98
aI00
ag65
aI5
aI1
aI5
aI36
aI5
aI0
ag38
ag52
((lp3062
g40
atRp3063
ag52
((lp3064
g40
ag42
ag43
ag41
ag39
atRp3065
aS'https://www.themoviedb.org/tv/4231-walt-disney-s-wonderful-world-of-color/episodes?credit_id=52575fb1760ee36aaa2e03ed&person_id=4bc8baab017a3c122d06ccc1'
p3066
aS'2015-06-20 14:49:33.954640'
p3067
aa(lp3068
I5
aI99
aI00
ag65
aI5
aI0
aI1
aI15
aI5
aI0
ag38
ag52
((ltRp3069
ag52
((lp3070
g40
atRp3071
aS'http://infopages.com/people/t45984-Thomas-Carr'
p3072
aS'2015-06-20 14:49:38.903868'
p3073
aa(lp3074
I5
aI100
aI00
ag65
aI5
aI0
aI1
aI15
aI5
aI0
ag38
ag52
((ltRp3075
ag52
((lp3076
g40
atRp3077
aS'http://infopages.com/people/t45946-Thomas-Carr'
p3078
aS'2015-06-20 14:49:43.400850'
p3079
aa(lp3080
I5
aI101
aI00
ag65
aI5
aI1
aI5
aI33
aI5
aI0
ag38
ag52
((lp3081
g43
atRp3082
ag52
((lp3083
g40
ag42
ag43
ag41
ag39
atRp3084
aS'http://www.deviantart.com/browse/all/designs/?view_mode=2&order=11&q=gear+shift'
p3085
aS'2015-06-20 14:49:45.743706'
p3086
aa(lp3087
I5
aI102
aI00
ag65
aI5
aI0
aI0
aI11
aI5
aI0
ag38
ag52
((ltRp3088
ag52
((ltRp3089
aS'http://westfieldcomics.com/store.cgi?sc=&U=40201431141&VP=1&SearchString=Warcraft:%20Shadow%20Wing%20Vol.%2002%20-%20Nexus%20Point%20GN&SearchPO=1&SearchBI=1&SearchCS=1'
p3090
aS'2015-06-20 14:49:52.457073'
p3091
aa(lp3092
I5
aI103
aI00
ag65
aI5
aI1
aI1
aI9
aI5
aI0
ag38
ag52
((lp3093
g41
atRp3094
ag52
((lp3095
g41
atRp3096
aS'http://westfieldcomics.com/store.cgi?sc=&U=1175691141&VP=2&SearchString=Jugheads%20Double-Digest&SearchPO=1&SearchBI=1&SearchCS=1'
p3097
aS'2015-06-20 14:49:56.335629'
p3098
aa(lp3099
I5
aI104
aI00
ag65
aI5
aI1
aI1
aI9
aI5
aI0
ag38
ag52
((lp3100
g41
atRp3101
ag52
((lp3102
g41
atRp3103
aS'http://westfieldcomics.com/store.cgi?sc=&U=5864281142&VP=2&SearchString=Jugheads%20Double-Digest&SearchPO=1&SearchBI=1&SearchCS=1'
p3104
aS'2015-06-20 14:50:00.559901'
p3105
aa(lp3106
I5
aI105
aI00
ag65
aI5
aI0
aI5
aI30
aI5
aI0
ag38
ag52
((ltRp3107
ag52
((lp3108
g40
ag42
ag43
ag41
ag39
atRp3109
aS'http://celebritydb.net/?view=page&url=lady-gaga-family-21631'
p3110
aS'2015-06-20 14:50:04.676846'
p3111
aa(lp3112
I5
aI106
aI00
ag65
aI5
aI2
aI5
aI30
aI5
aI0
ag38
ag52
((lp3113
g42
ag41
atRp3114
ag52
((lp3115
g40
ag42
ag43
ag41
ag39
atRp3116
aS'http://www.cuttingedge.org/news/directory.html'
p3117
aS'2015-06-20 14:50:10.873767'
p3118
aa(lp3119
I5
aI107
aI00
ag65
aI5
aI0
aI0
aI0
aI5
aI0
ag38
ag52
((ltRp3120
ag52
((ltRp3121
aS'http://www2.ljworld.com/weblogs/tags/local/?page=5'
p3122
aS'2015-06-20 14:50:12.255072'
p3123
aa(lp3124
I5
aI108
aI00
ag65
aI5
aI0
aI5
aI32
aI5
aI0
ag38
ag52
((ltRp3125
ag52
((lp3126
g40
ag42
ag43
ag41
ag39
atRp3127
aS"https://wikileaks.org/sony/docs/01/Sales/SPT%20Sales/PHIL'S%20DEALS/Phil%20MISC/SPTfilmclassicsCincin.txt"
p3128
aS'2015-06-20 14:50:14.958100'
p3129
aa(lp3130
I5
aI109
aI00
ag65
aI5
aI0
aI0
aI18
aI5
aI0
ag38
ag52
((ltRp3131
ag52
((ltRp3132
aS'http://hubpages.com/topics/all/1?page=19'
p3133
aS'2015-06-20 14:50:18.017196'
p3134
aa(lp3135
I5
aI110
aI00
ag65
aI5
aI1
aI1
aI15
aI5
aI0
ag38
ag52
((lp3136
g40
atRp3137
ag52
((lp3138
g40
atRp3139
aS'http://infopages.com/people/t45902-Thomas-Carr'
p3140
aS'2015-06-20 14:50:22.660887'
p3141
aa(lp3142
I5
aI111
aI00
ag65
aI5
aI0
aI1
aI16
aI5
aI0
ag38
ag52
((ltRp3143
ag52
((lp3144
g40
atRp3145
aS'http://infopages.com/people/t45911-Thomas-Carr'
p3146
aS'2015-06-20 14:50:25.043555'
p3147
aa(lp3148
I5
aI112
aI00
ag65
aI5
aI1
aI5
aI42
aI5
aI0
ag38
ag52
((lp3149
g41
atRp3150
ag52
((lp3151
g40
ag42
ag43
ag41
ag39
atRp3152
aS'http://www.hackingnetflix.com/newreleases082608.html'
p3153
aS'2015-06-20 14:50:26.939643'
p3154
aa(lp3155
I5
aI113
aI00
ag65
aI5
aI0
aI4
aI53
aI5
aI0
ag38
ag52
((ltRp3156
ag52
((lp3157
g40
ag42
ag43
ag39
atRp3158
aS'http://docsouth.unc.edu/nc/state/state.xml'
p3159
aS'2015-06-20 14:50:33.681471'
p3160
aa(lp3161
I5
aI114
aI00
ag65
aI5
aI0
aI4
aI63
aI5
aI0
ag38
ag52
((ltRp3162
ag52
((lp3163
g40
ag42
ag43
ag39
atRp3164
aS'http://docsouth.unc.edu/nc/state/state.html'
p3165
aS'2015-06-20 14:50:35.393417'
p3166
aa(lp3167
I5
aI115
aI00
ag65
aI5
aI0
aI0
aI0
aI5
aI0
ag38
ag52
((ltRp3168
ag52
((ltRp3169
aS'http://www.podcastpup.com/pod.asp?ID=2699'
p3170
aS'2015-06-20 14:50:36.657722'
p3171
aa(lp3172
I5
aI116
aI00
ag65
aI5
aI1
aI2
aI12
aI5
aI0
ag38
ag52
((lp3173
g43
atRp3174
ag52
((lp3175
g43
ag41
atRp3176
aS'https://www.tumblr.com/tagged/gagas+birthday'
p3177
aS'2015-06-20 14:50:39.957097'
p3178
aa(lp3179
I5
aI117
aI00
ag65
aI5
aI0
aI5
aI30
aI5
aI0
ag38
ag52
((ltRp3180
ag52
((lp3181
g40
ag42
ag43
ag41
ag39
atRp3182
aS'http://littlemonsterforever.weebly.com/biography.html'
p3183
aS'2015-06-20 14:50:41.207981'
p3184
aa(lp3185
I5
aI118
aI00
ag65
aI5
aI0
aI1
aI19
aI5
aI0
ag38
ag52
((ltRp3186
ag52
((lp3187
g41
atRp3188
aS'http://datab.us/Search/Aliens%2BPlayListIDPLIBocI38JMBXnI_2fqusVggeY6TY9GQJa'
p3189
aS'2015-06-20 14:50:44.218141'
p3190
aa(lp3191
I5
aI119
aI00
ag65
aI5
aI0
aI0
aI1
aI5
aI0
ag38
ag52
((ltRp3192
ag52
((ltRp3193
aS'http://www.slideshare.net/LauraThompson4/rock-and-roll-history-upload-for-facebook-15521027'
p3194
aS'2015-06-20 14:50:45.639548'
p3195
aa(lp3196
I5
aI120
aI00
ag65
aI5
aI0
aI4
aI54
aI5
aI0
ag38
ag52
((ltRp3197
ag52
((lp3198
g39
ag42
ag43
ag41
atRp3199
aS'http://infopages.com/people/t45981-Thomas-Carr'
p3200
aS'2015-06-20 14:50:55.120798'
p3201
aa(lp3202
I5
aI121
aI00
ag65
aI5
aI0
aI5
aI59
aI5
aI0
ag38
ag52
((ltRp3203
ag52
((lp3204
g40
ag42
ag43
ag41
ag39
atRp3205
aS'http://www.slideshare.net/LauraThompson4/rock-and-roll-history-upload-for-facebook-15728182'
p3206
aS'2015-06-20 14:50:56.065263'
p3207
aa(lp3208
I5
aI122
aI00
ag65
aI5
aI0
aI3
aI62
aI5
aI0
ag38
ag52
((ltRp3209
ag52
((lp3210
g40
ag39
ag41
atRp3211
aS'http://www.millennium-project.org/millennium/annotated-scen.html'
p3212
aS'2015-06-20 14:50:59.567058'
p3213
aa(lp3214
I5
aI123
aI00
ag65
aI5
aI1
aI5
aI36
aI5
aI0
ag38
ag52
((lp3215
g41
atRp3216
ag52
((lp3217
g40
ag42
ag43
ag41
ag39
atRp3218
aS'http://stuffpoint.com/disney/episodes/'
p3219
aS'2015-06-20 14:51:01.904133'
p3220
aa(lp3221
I5
aI124
aI00
ag65
aI5
aI2
aI5
aI41
aI5
aI0
ag38
ag52
((lp3222
g42
ag41
atRp3223
ag52
((lp3224
g40
ag42
ag43
ag41
ag39
atRp3225
aS'https://thetruthaboutgaga.wordpress.com/the-case-against-lady-gaga/'
p3226
aS'2015-06-20 14:51:11.227191'
p3227
aa(lp3228
I5
aI125
aI00
ag65
aI5
aI1
aI2
aI19
aI5
aI0
ag38
ag52
((lp3229
g39
atRp3230
ag52
((lp3231
g42
ag39
atRp3232
aS'http://adhocart.org/site/shows-and-events/past-events/'
p3233
aS'2015-06-20 14:51:16.937414'
p3234
aa(lp3235
I5
aI126
aI00
ag65
aI5
aI0
aI4
aI42
aI5
aI0
ag38
ag52
((ltRp3236
ag52
((lp3237
g40
ag43
ag41
ag39
atRp3238
aS'http://www.imdb.com/search/text?field=bio&q=%2522Cannon%2522&realm=name&start=51'
p3239
aS'2015-06-20 14:51:18.026513'
p3240
aa(lp3241
I5
aI127
aI00
ag65
aI5
aI1
aI3
aI23
aI5
aI0
ag38
ag52
((lp3242
g43
atRp3243
ag52
((lp3244
g39
ag43
ag41
atRp3245
aS'http://don411.com/warner-bros-pictures-and-legendary-pictures-unleash-the-epic-action-adventure-godzilla-summer-2014/'
p3246
aS'2015-06-20 14:51:23.857021'
p3247
aa(lp3248
I5
aI128
aI00
ag65
aI5
aI0
aI5
aI69
aI5
aI0
ag38
ag52
((ltRp3249
ag52
((lp3250
g40
ag42
ag43
ag41
ag39
atRp3251
aS'http://www.gilesorr.com/misc/movies.html'
p3252
aS'2015-06-20 14:51:25.924788'
p3253
aa(lp3254
I5
aI129
aI00
ag65
aI5
aI0
aI0
aI14
aI5
aI0
ag38
ag52
((ltRp3255
ag52
((ltRp3256
aS'http://biglistofwebsites.com/list-top-websites-like-bangmanagement.com'
p3257
aS'2015-06-20 14:51:29.725433'
p3258
aa(lp3259
I5
aI130
aI00
ag65
aI5
aI0
aI0
aI2
aI5
aI0
ag38
ag52
((ltRp3260
ag52
((ltRp3261
aS'http://www.freecodesource.com/posterous-layouts/view.php?id=1670'
p3262
aS'2015-06-20 14:51:33.280284'
p3263
aa(lp3264
I5
aI131
aI00
ag65
aI5
aI0
aI0
aI1
aI5
aI0
ag38
ag52
((ltRp3265
ag52
((ltRp3266
aS'http://www.slideshare.net/LauraThompson4/rock-and-roll-history-upload-for-facebook-13380141'
p3267
aS'2015-06-20 14:51:34.689249'
p3268
aa(lp3269
I5
aI132
aI00
ag65
aI5
aI0
aI3
aI62
aI5
aI0
ag38
ag52
((ltRp3270
ag52
((lp3271
g40
ag39
ag41
atRp3272
aS'http://millennium-project.org/annotated-scen.html'
p3273
aS'2015-06-20 14:51:36.191176'
p3274
aa(lp3275
I5
aI133
aI00
ag65
aI5
aI0
aI3
aI55
aI5
aI0
ag38
ag52
((ltRp3276
ag52
((lp3277
g39
ag43
ag41
atRp3278
aS'http://newonnetflixnetherlands.blogspot.com/2014_11_01_archive.html'
p3279
aS'2015-06-20 14:51:38.821623'
p3280
aa(lp3281
I5
aI134
aI00
ag65
aI5
aI0
aI5
aI39
aI5
aI0
ag38
ag52
((ltRp3282
ag52
((lp3283
g40
ag42
ag43
ag41
ag39
atRp3284
aS'http://www.thecurmudgeonly.blogspot.com/2005_10_01_archive.html'
p3285
aS'2015-06-20 14:51:39.514526'
p3286
aa(lp3287
I5
aI135
aI00
ag65
aI5
aI0
aI0
aI2
aI5
aI0
ag38
ag52
((ltRp3288
ag52
((ltRp3289
aS'http://www.imdb.com/name/nm0832314/news?year=2012;start=141'
p3290
aS'2015-06-20 14:51:42.284131'
p3291
aa(lp3292
I5
aI136
aI00
ag65
aI5
aI0
aI5
aI76
aI5
aI0
ag38
ag52
((ltRp3293
ag52
((lp3294
g40
ag42
ag43
ag41
ag39
atRp3295
aS'http://www.cs.cmu.edu/~roni/11761/assignments/REVIEWS-DEV.txt'
p3296
aS'2015-06-20 14:51:44.226057'
p3297
aa(lp3298
I5
aI137
aI00
ag65
aI5
aI0
aI0
aI0
aI5
aI0
ag38
ag52
((ltRp3299
ag52
((ltRp3300
aS'http://quod.lib.umich.edu/m/moa/ABF0865.0001.001?rgn=main;view=fulltext'
p3301
aS'2015-06-20 14:51:51.299083'
p3302
aa(lp3303
I5
aI138
aI00
ag65
aI5
aI1
aI5
aI32
aI5
aI0
ag38
ag52
((lp3304
g42
atRp3305
ag52
((lp3306
g40
ag42
ag43
ag41
ag39
atRp3307
aS'http://wednesdaymiddaymedley.org/tag/betse-ellis/'
p3308
aS'2015-06-20 14:51:58.591100'
p3309
aa(lp3310
I5
aI139
aI00
ag65
aI5
aI1
aI4
aI63
aI5
aI0
ag38
ag52
((lp3311
g40
atRp3312
ag52
((lp3313
g40
ag42
ag43
ag39
atRp3314
aS'http://docsouth.unc.edu/nc/state/state.html?keepThis=true'
p3315
aS'2015-06-20 14:52:00.188391'
p3316
aa(lp3317
I5
aI140
aI00
ag65
aI5
aI0
aI0
aI5
aI5
aI0
ag38
ag52
((ltRp3318
ag52
((ltRp3319
aS'http://www.docstoc.com/docs/94345457/Geek-Mafia-Mile-Zero'
p3320
aS'2015-06-20 14:52:03.357849'
p3321
aa(lp3322
I5
aI141
aI00
ag65
aI5
aI1
aI5
aI17
aI5
aI0
ag38
ag52
((lp3323
g43
atRp3324
ag52
((lp3325
g40
ag42
ag43
ag41
ag39
atRp3326
aS'http://www.shawnnacol.com/pPlinks.htm'
p3327
aS'2015-06-20 14:52:04.010811'
p3328
aa(lp3329
I5
aI142
aI00
ag65
aI5
aI1
aI4
aI65
aI5
aI0
ag38
ag52
((lp3330
g43
atRp3331
ag52
((lp3332
g39
ag42
ag43
ag41
atRp3333
aS'http://www.videoscreams.com/2010%20CONSOLIDATED%20MINI%20CATALOGUE.htm'
p3334
aS'2015-06-20 14:52:05.535609'
p3335
aa(lp3336
I5
aI143
aI00
ag65
aI5
aI0
aI0
aI0
aI5
aI0
ag38
ag52
((ltRp3337
ag52
((ltRp3338
aS'https://www.idolbin.com/people?q=kelly%20khumalo&page=6059'
p3339
aS'2015-06-20 14:52:06.996445'
p3340
aa(lp3341
I5
aI144
aI00
ag65
aI5
aI1
aI4
aI48
aI5
aI0
ag38
ag52
((lp3342
g39
atRp3343
ag52
((lp3344
g40
ag43
ag41
ag39
atRp3345
aS'http://webapp1.dlib.indiana.edu/inauthors/view?docId=VAB8206&doc.view=print'
p3346
aS'2015-06-20 14:52:13.332151'
p3347
aa(lp3348
I5
aI145
aI00
ag65
aI5
aI0
aI0
aI1
aI5
aI0
ag38
ag52
((ltRp3349
ag52
((ltRp3350
aS'http://www.slideshare.net/LauraThompson4/rock-and-roll-history-13002630'
p3351
aS'2015-06-20 14:52:15.243279'
p3352
aa(lp3353
I5
aI146
aI00
ag65
aI5
aI0
aI3
aI56
aI5
aI0
ag38
ag52
((ltRp3354
ag52
((lp3355
g39
ag43
ag41
atRp3356
aS'http://newonnetflixnetherlands.blogspot.com/2014/11/10000-bc-plus-2063-more.html'
p3357
aS'2015-06-20 14:52:18.516035'
p3358
aa(lp3359
I5
aI147
aI00
ag65
aI5
aI1
aI4
aI63
aI5
aI0
ag38
ag52
((lp3360
g39
atRp3361
ag52
((lp3362
g40
ag42
ag43
ag39
atRp3363
aS'http://docsouth.unc.edu/nc/state/state.html?keepTh.'
p3364
aS'2015-06-20 14:52:20.110376'
p3365
aa(lp3366
I5
aI148
aI00
ag65
aI5
aI0
aI0
aI3
aI5
aI0
ag38
ag52
((ltRp3367
ag52
((ltRp3368
aS'http://www.gutenberg.org/files/13642/13642.txt'
p3369
aS'2015-06-20 14:52:23.581550'
p3370
aa(lp3371
I5
aI149
aI00
ag65
aI5
aI0
aI5
aI62
aI5
aI0
ag38
ag52
((ltRp3372
ag52
((lp3373
g40
ag42
ag43
ag41
ag39
atRp3374
aS'http://www.gutenberg.org/files/13642/13642-8.txt'
p3375
aS'2015-06-20 14:52:24.850034'
p3376
aa(lp3377
I5
aI150
aI00
ag65
aI5
aI1
aI5
aI34
aI5
aI0
ag38
ag52
((lp3378
g40
atRp3379
ag52
((lp3380
g40
ag42
ag43
ag41
ag39
atRp3381
aS'http://cheerfulghost.com/interviews'
p3382
aS'2015-06-20 14:52:32.779587'
p3383
aa(lp3384
I5
aI151
aI00
ag65
aI5
aI0
aI0
aI5
aI5
aI0
ag38
ag52
((ltRp3385
ag52
((ltRp3386
aS'http://article.wn.com/view/2011/12/29/Lady_Gaga_takes_romantic_stroll_with_new_beau_Taylor_Kinney_/'
p3387
aS'2015-06-20 14:52:39.977021'
p3388
aa(lp3389
I5
aI152
aI00
ag65
aI5
aI0
aI1
aI18
aI5
aI0
ag38
ag52
((ltRp3390
ag52
((lp3391
g43
atRp3392
aS'http://www.jstor.org/stable/1287786'
p3393
aS'2015-06-20 14:52:42.525537'
p3394
aa(lp3395
I5
aI153
aI00
ag65
aI5
aI0
aI0
aI1
aI5
aI0
ag38
ag52
((ltRp3396
ag52
((ltRp3397
aS'http://www.slideshare.net/LauraThompson4/rock-and-roll-history-upload-for-facebook-13097973'
p3398
aS'2015-06-20 14:52:44.426497'
p3399
aa(lp3400
I5
aI154
aI00
ag65
aI5
aI1
aI5
aI55
aI5
aI0
ag38
ag52
((lp3401
g43
atRp3402
ag52
((lp3403
g40
ag42
ag43
ag41
ag39
atRp3404
aS'http://www.slideshare.net/LauraThompson4/rock-and-roll-history'
p3405
aS'2015-06-20 14:52:45.931416'
p3406
aa(lp3407
I5
aI155
aI00
ag65
aI5
aI0
aI0
aI0
aI5
aI0
ag38
ag52
((ltRp3408
ag52
((ltRp3409
aS'http://quod.lib.umich.edu/cgi/t/text/text-idx?c=moaatxt;cc=moaatxt;rgn=main;view=text;idno=BAC4701.0001.001'
p3410
aS'2015-06-20 14:52:52.994894'
p3411
aa(lp3412
I5
aI156
aI00
ag65
aI5
aI0
aI0
aI0
aI5
aI0
ag38
ag52
((ltRp3413
ag52
((ltRp3414
aS'http://quod.lib.umich.edu/m/moaatxt/BAC4701.0001.001?rgn=main;view=fulltext'
p3415
aS'2015-06-20 14:53:00.064214'
p3416
aa(lp3417
I5
aI157
aI00
ag65
aI5
aI0
aI2
aI44
aI5
aI0
ag38
ag52
((ltRp3418
ag52
((lp3419
g39
ag41
atRp3420
aS'http://www.imdb.com/search/text?field=bio&q=The%20Descendants&realm=name&start=101'
p3421
aS'2015-06-20 14:53:01.069550'
p3422
aa(lp3423
I5
aI158
aI00
ag65
aI5
aI1
aI5
aI55
aI5
aI0
ag38
ag52
((lp3424
g40
atRp3425
ag52
((lp3426
g40
ag42
ag43
ag41
ag39
atRp3427
aS'https://jewise.wordpress.com/2010/10/05/perpetual-war-for-perpetual-peace/'
p3428
aS'2015-06-20 14:53:05.941502'
p3429
aa(lp3430
I5
aI159
aI00
ag65
aI5
aI1
aI5
aI32
aI5
aI0
ag38
ag52
((lp3431
g43
atRp3432
ag52
((lp3433
g40
ag42
ag43
ag41
ag39
atRp3434
aS'http://bellaorlandwiaya9a.blogspot.com/2012/11/lady-gaga.html'
p3435
aS'2015-06-20 14:53:07.476269'
p3436
aa(lp3437
I5
aI160
aI00
ag65
aI5
aI0
aI5
aI38
aI5
aI0
ag38
ag52
((ltRp3438
ag52
((lp3439
g40
ag42
ag43
ag41
ag39
atRp3440
aS'http://mytwyyearbook.tripod.com/woodst.html'
p3441
aS'2015-06-20 14:53:07.878388'
p3442
aa(lp3443
I5
aI161
aI00
ag65
aI5
aI3
aI5
aI38
aI5
aI0
ag38
ag52
((lp3444
g39
ag42
ag43
atRp3445
ag52
((lp3446
g40
ag42
ag43
ag41
ag39
atRp3447
aS'https://www.idolbin.com/fprofile/100002323974177'
p3448
aS'2015-06-20 14:53:10.007457'
p3449
aa(lp3450
I5
aI162
aI00
ag65
aI5
aI1
aI5
aI33
aI5
aI0
ag38
ag52
((lp3451
g43
atRp3452
ag52
((lp3453
g40
ag42
ag43
ag41
ag39
atRp3454
aS'https://maggiemcneill.wordpress.com/tag/universal-criminality/'
p3455
aS'2015-06-20 14:53:15.094968'
p3456
aa(lp3457
I5
aI163
aI00
ag65
aI5
aI0
aI0
aI0
aI5
aI0
ag38
ag52
((ltRp3458
ag52
((ltRp3459
aS'http://quod.lib.umich.edu/m/micounty/bad0944.0001.001?rgn=main;view=fulltext;q1=Jackson+County++Mich.++--+History'
p3460
aS'2015-06-20 14:53:22.167208'
p3461
aa(lp3462
I5
aI164
aI00
ag65
aI5
aI0
aI4
aI63
aI5
aI0
ag38
ag52
((ltRp3463
ag52
((lp3464
g40
ag42
ag43
ag39
atRp3465
aS'http://docsouth.unc.edu/nc/state/state.html?keepThis=true&TB_i'
p3466
aS'2015-06-20 14:53:23.751760'
p3467
aa(lp3468
I5
aI165
aI00
ag65
aI5
aI0
aI5
aI30
aI5
aI0
ag38
ag52
((ltRp3469
ag52
((lp3470
g40
ag42
ag43
ag41
ag39
atRp3471
aS'http://blip.tv/sitemap/xml/bliptv-sitemap-show-853062.xml'
p3472
aS'2015-06-20 14:53:25.556584'
p3473
aa(lp3474
I5
aI166
aI00
ag65
aI5
aI0
aI4
aI63
aI5
aI0
ag38
ag52
((ltRp3475
ag52
((lp3476
g40
ag42
ag43
ag39
atRp3477
aS'http://docsouth.unc.edu/nc/state/state.html?keepThis=true&TB_iframe=true'
p3478
aS'2015-06-20 14:53:29.439538'
p3479
aa(lp3480
I5
aI167
aI00
ag65
aI5
aI1
aI5
aI36
aI5
aI0
ag38
ag52
((lp3481
g39
atRp3482
ag52
((lp3483
g40
ag42
ag43
ag41
ag39
atRp3484
aS'http://www.refinery29.com/sitemap/month/2010-10.xml'
p3485
aS'2015-06-20 14:53:35.470223'
p3486
aa(lp3487
I5
aI168
aI00
ag65
aI5
aI0
aI0
aI0
aI5
aI0
ag38
ag52
((ltRp3488
ag52
((ltRp3489
aS'http://quod.lib.umich.edu/m/micounty/bad0944.0001.001?rgn=main;view=fulltext'
p3490
aS'2015-06-20 14:53:42.543072'
p3491
aa(lp3492
I5
aI169
aI00
ag65
aI5
aI1
aI5
aI65
aI5
aI0
ag38
ag52
((lp3493
g40
atRp3494
ag52
((lp3495
g40
ag42
ag43
ag41
ag39
atRp3496
aS'http://quod.lib.umich.edu/cgi/t/text/text-idx?c=micounty;cc=micounty;rgn=main;view=text;idno=BAD0868.0001.001'
p3497
aS'2015-06-20 14:53:48.945798'
p3498
aa(lp3499
I5
aI170
aI00
ag65
aI5
aI1
aI5
aI57
aI5
aI0
ag38
ag52
((lp3500
g39
atRp3501
ag52
((lp3502
g40
ag42
ag43
ag41
ag39
atRp3503
aS'http://fax.libs.uga.edu/hd2951xc776/1f/cooperation_1938.txt'
p3504
aS'2015-06-20 14:53:49.885467'
p3505
aa(lp3506
I5
aI171
aI00
ag65
aI5
aI1
aI5
aI30
aI5
aI0
ag38
ag52
((lp3507
g41
atRp3508
ag52
((lp3509
g40
ag42
ag43
ag41
ag39
atRp3510
aS'http://dance.webdj.co/lady-gaga-r-kelly-do-what-u-want-live-american-music-awards-2013/'
p3511
aS'2015-06-20 14:53:51.871090'
p3512
aa(lp3513
I5
aI172
aI00
ag65
aI5
aI0
aI5
aI64
aI5
aI0
ag38
ag52
((ltRp3514
ag52
((lp3515
g40
ag42
ag43
ag41
ag39
atRp3516
aS'http://www.themovieguys.net/tag/avatar/feed/'
p3517
aS'2015-06-20 14:53:57.062249'
p3518
aa(lp3519
I5
aI173
aI00
ag65
aI5
aI1
aI5
aI28
aI5
aI0
ag38
ag52
((lp3520
g40
atRp3521
ag52
((lp3522
g40
ag42
ag43
ag41
ag39
atRp3523
aS'http://www.newspapers.com/newspage/76166781/'
p3524
aS'2015-06-20 14:53:58.108311'
p3525
aa(lp3526
I5
aI174
aI00
ag65
aI5
aI1
aI5
aI24
aI5
aI0
ag38
ag52
((lp3527
g39
atRp3528
ag52
((lp3529
g40
ag42
ag43
ag41
ag39
atRp3530
aS'http://my.wn.com/search/the_forgotten_ten_an_deichni%C3%BAr_dearmadta_part_2?p=800&t=details'
p3531
aS'2015-06-20 14:54:03.968676'
p3532
aa(lp3533
I5
aI175
aI00
ag65
aI5
aI0
aI5
aI26
aI5
aI0
ag38
ag52
((ltRp3534
ag52
((lp3535
g40
ag42
ag43
ag41
ag39
atRp3536
aS'http://my.wn.com/search/drinking_water?p=7400&t=details'
p3537
aS'2015-06-20 14:54:10.322266'
p3538
aa(lp3539
I5
aI176
aI00
ag65
aI5
aI1
aI5
aI30
aI5
aI0
ag38
ag52
((lp3540
g40
atRp3541
ag52
((lp3542
g40
ag42
ag43
ag41
ag39
atRp3543
aS'http://my.wn.com/search/control_system?p=24700&t=details'
p3544
aS'2015-06-20 14:54:17.668077'
p3545
aa(lp3546
I5
aI177
aI00
ag65
aI5
aI1
aI5
aI42
aI5
aI0
ag38
ag52
((lp3547
g42
atRp3548
ag52
((lp3549
g40
ag42
ag43
ag41
ag39
atRp3550
aS'http://oll.libertyfund.org/titles/milton-the-tenure-of-kings-and-magistrates/simple'
p3551
aS'2015-06-20 14:54:20.739565'
p3552
aa(lp3553
I5
aI178
aI00
ag65
aI5
aI0
aI5
aI57
aI5
aI0
ag38
ag52
((ltRp3554
ag52
((lp3555
g40
ag42
ag43
ag41
ag39
atRp3556
aS'http://djvued.libs.uga.edu/text/co38txt.txt'
p3557
aS'2015-06-20 14:54:21.639530'
p3558
aasS'config'
p3559
(ihunter.dictionary.dictionaries
Config
p3560
(dp3561
S'd'
I1
sS'f'
I2
sS'l'
I2
sS'shuffle_keywords_seed'
p3562
I10
sS'essence_len'
p3563
I6
sS'shuffle_stop'
p3564
I200
sS'w'
I5
sS'x'
I89
sbsS'filename'
p3565
S'stats_1_2_2_89_10_tweet_CO_02.txt_2015-06-20 11:32:39.180913.pkl'
p3566
sb.